
/home/menadue/tree/github/acorn-system-1-gadget/firmware/acorn-system-1-gadget-1/build/acorn_system_1_gadget.elf:     file format elf32-littlearm

Sections:
Idx Name          Size      VMA       LMA       File off  Algn
  0 .flashtext    000001f8  10000000  10000000  00001000  2**2
                  CONTENTS, ALLOC, LOAD, READONLY, CODE
  1 .rodata       00000000  100001f8  100001f8  0000ae14  2**0
                  CONTENTS, ALLOC, LOAD, DATA
  2 .ARM.exidx    00000008  100001f8  100001f8  000011f8  2**2
                  CONTENTS, ALLOC, LOAD, READONLY, DATA
  3 .binary_info  00000024  10000200  10000200  00001200  2**2
                  CONTENTS, ALLOC, LOAD, READONLY, DATA
  4 .ram_vector_table 00000110  20000000  20000000  0000b000  2**2
                  ALLOC
  5 .uninitialized_data 00000078  20000110  20000110  0000b000  2**3
                  ALLOC
  6 .text         000072ec  20000188  10000224  00002188  2**3
                  CONTENTS, ALLOC, LOAD, READONLY, CODE
  7 .data         000018f0  20007478  10007510  00009478  2**3
                  CONTENTS, ALLOC, LOAD, CODE
  8 .tdata        00000000  20008d68  20008d68  0000ae14  2**0
                  CONTENTS, ALLOC, LOAD, DATA, THREAD_LOCAL
  9 .tbss         00000000  20008d68  20008d68  00000000  2**0
                  ALLOC, THREAD_LOCAL
 10 .bss          00010e08  20008d68  10008e00  0000bd68  2**3
                  ALLOC
 11 .heap         00000800  20019b70  20019b70  0000ae14  2**2
                  CONTENTS, READONLY
 12 .scratch_x    00000000  20080000  20080000  0000b614  2**0
                  CONTENTS
 13 .scratch_y    00000000  20081000  20081000  0000b614  2**0
                  CONTENTS
 14 .stack1_dummy 00000fa0  20080000  20080000  0000b000  2**2
                  ALLOC
 15 .stack_dummy  00002710  20081000  20081000  0000b620  2**5
                  CONTENTS, READONLY
 16 .flash_end    00000014  10008e00  10008e00  0000ae00  2**2
                  CONTENTS, ALLOC, LOAD, READONLY, DATA
 17 .ARM.attributes 00000034  00000000  00000000  0000dd30  2**0
                  CONTENTS, READONLY
 18 .comment      00000046  00000000  00000000  0000dd64  2**0
                  CONTENTS, READONLY
 19 .debug_info   0004a309  00000000  00000000  0000ddaa  2**0
                  CONTENTS, READONLY, DEBUGGING, OCTETS
 20 .debug_abbrev 0000bc79  00000000  00000000  000580b3  2**0
                  CONTENTS, READONLY, DEBUGGING, OCTETS
 21 .debug_loclists 0002295d  00000000  00000000  00063d2c  2**0
                  CONTENTS, READONLY, DEBUGGING, OCTETS
 22 .debug_aranges 00001880  00000000  00000000  00086690  2**3
                  CONTENTS, READONLY, DEBUGGING, OCTETS
 23 .debug_rnglists 00005a6d  00000000  00000000  00087f10  2**0
                  CONTENTS, READONLY, DEBUGGING, OCTETS
 24 .debug_line   0002a4f9  00000000  00000000  0008d97d  2**0
                  CONTENTS, READONLY, DEBUGGING, OCTETS
 25 .debug_str    0000c2d4  00000000  00000000  000b7e76  2**0
                  CONTENTS, READONLY, DEBUGGING, OCTETS
 26 .debug_frame  00003fd4  00000000  00000000  000c414c  2**2
                  CONTENTS, READONLY, DEBUGGING, OCTETS
 27 .debug_line_str 00000281  00000000  00000000  000c8120  2**0
                  CONTENTS, READONLY, DEBUGGING, OCTETS

/home/menadue/tree/github/acorn-system-1-gadget/firmware/acorn-system-1-gadget-1/build/acorn_system_1_gadget.elf:     file format elf32-littlearm


Disassembly of section .flashtext:

10000000 <__VECTOR_TABLE>:
10000000:	20082000 	.word	0x20082000
10000004:	1000015d 	.word	0x1000015d
10000008:	10000113 	.word	0x10000113
1000000c:	20006e29 	.word	0x20006e29
10000010:	10000111 	.word	0x10000111
10000014:	10000111 	.word	0x10000111
10000018:	10000111 	.word	0x10000111
1000001c:	10000111 	.word	0x10000111
10000020:	10000111 	.word	0x10000111
10000024:	10000111 	.word	0x10000111
10000028:	10000111 	.word	0x10000111
1000002c:	10000117 	.word	0x10000117
10000030:	10000111 	.word	0x10000111
10000034:	10000111 	.word	0x10000111
10000038:	10000119 	.word	0x10000119
1000003c:	1000011b 	.word	0x1000011b
10000040:	1000011d 	.word	0x1000011d
10000044:	1000011d 	.word	0x1000011d
10000048:	1000011d 	.word	0x1000011d
1000004c:	1000011d 	.word	0x1000011d
10000050:	1000011d 	.word	0x1000011d
10000054:	1000011d 	.word	0x1000011d
10000058:	1000011d 	.word	0x1000011d
1000005c:	1000011d 	.word	0x1000011d
10000060:	1000011d 	.word	0x1000011d
10000064:	1000011d 	.word	0x1000011d
10000068:	1000011d 	.word	0x1000011d
1000006c:	1000011d 	.word	0x1000011d
10000070:	1000011d 	.word	0x1000011d
10000074:	1000011d 	.word	0x1000011d
10000078:	1000011d 	.word	0x1000011d
1000007c:	1000011d 	.word	0x1000011d
10000080:	1000011d 	.word	0x1000011d
10000084:	1000011d 	.word	0x1000011d
10000088:	1000011d 	.word	0x1000011d
1000008c:	1000011d 	.word	0x1000011d
10000090:	1000011d 	.word	0x1000011d
10000094:	1000011d 	.word	0x1000011d
10000098:	1000011d 	.word	0x1000011d
1000009c:	1000011d 	.word	0x1000011d
100000a0:	1000011d 	.word	0x1000011d
100000a4:	1000011d 	.word	0x1000011d
100000a8:	1000011d 	.word	0x1000011d
100000ac:	1000011d 	.word	0x1000011d
100000b0:	1000011d 	.word	0x1000011d
100000b4:	1000011d 	.word	0x1000011d
100000b8:	1000011d 	.word	0x1000011d
100000bc:	1000011d 	.word	0x1000011d
100000c0:	1000011d 	.word	0x1000011d
100000c4:	1000011d 	.word	0x1000011d
100000c8:	1000011d 	.word	0x1000011d
100000cc:	1000011d 	.word	0x1000011d
100000d0:	1000011d 	.word	0x1000011d
100000d4:	1000011d 	.word	0x1000011d
100000d8:	1000011d 	.word	0x1000011d
100000dc:	1000011d 	.word	0x1000011d
100000e0:	1000011d 	.word	0x1000011d
100000e4:	1000011d 	.word	0x1000011d
100000e8:	1000011d 	.word	0x1000011d
100000ec:	1000011d 	.word	0x1000011d
100000f0:	1000011d 	.word	0x1000011d
100000f4:	1000011d 	.word	0x1000011d
100000f8:	1000011d 	.word	0x1000011d
100000fc:	1000011d 	.word	0x1000011d
10000100:	1000011d 	.word	0x1000011d
10000104:	1000011d 	.word	0x1000011d
10000108:	1000011d 	.word	0x1000011d
1000010c:	1000011d 	.word	0x1000011d

10000110 <isr_invalid>:
10000110:	be00      	bkpt	0x0000

10000112 <NMI_Handler>:
10000112:	be00      	bkpt	0x0000
10000114:	be00      	bkpt	0x0000

10000116 <SVC_Handler>:
10000116:	be00      	bkpt	0x0000

10000118 <PendSV_Handler>:
10000118:	be00      	bkpt	0x0000

1000011a <SysTick_Handler>:
1000011a:	be00      	bkpt	0x0000

1000011c <__unhandled_user_irq>:
1000011c:	f3ef 8005 	mrs	r0, IPSR
10000120:	3810      	subs	r0, #16

10000122 <unhandled_user_irq_num_in_r0>:
10000122:	be00      	bkpt	0x0000

10000124 <binary_info_header>:
10000124:	7188ebf2 	.word	0x7188ebf2
10000128:	10000200 	.word	0x10000200
1000012c:	10000224 	.word	0x10000224
10000130:	100001a8 	.word	0x100001a8
10000134:	e71aa390 	.word	0xe71aa390

10000138 <__binary_info_header_end>:
10000138:	ffffded3 	.word	0xffffded3
1000013c:	10210142 	.word	0x10210142
10000140:	000001ff 	.word	0x000001ff
10000144:	00008cc8 	.word	0x00008cc8
10000148:	ab123579 	.word	0xab123579

1000014c <_entry_point>:
1000014c:	f04f 0000 	mov.w	r0, #0

10000150 <_enter_vtable_in_r0>:
10000150:	4923      	ldr	r1, [pc, #140]	@ (100001e0 <data_cpy_table+0x38>)
10000152:	6008      	str	r0, [r1, #0]
10000154:	c806      	ldmia	r0!, {r1, r2}
10000156:	f381 8808 	msr	MSP, r1
1000015a:	4710      	bx	r2

1000015c <_reset_handler>:
1000015c:	f04f 4050 	mov.w	r0, #3489660928	@ 0xd0000000
10000160:	6800      	ldr	r0, [r0, #0]
10000162:	b110      	cbz	r0, 1000016a <hold_non_core0_in_bootrom+0x6>

10000164 <hold_non_core0_in_bootrom>:
10000164:	f04f 0000 	mov.w	r0, #0
10000168:	e7f2      	b.n	10000150 <_enter_vtable_in_r0>
1000016a:	a40f      	add	r4, pc, #60	@ (adr r4, 100001a8 <data_cpy_table>)
1000016c:	cc0e      	ldmia	r4!, {r1, r2, r3}
1000016e:	2900      	cmp	r1, #0
10000170:	d002      	beq.n	10000178 <hold_non_core0_in_bootrom+0x14>
10000172:	f000 f815 	bl	100001a0 <data_cpy>
10000176:	e7f9      	b.n	1000016c <hold_non_core0_in_bootrom+0x8>
10000178:	491a      	ldr	r1, [pc, #104]	@ (100001e4 <data_cpy_table+0x3c>)
1000017a:	4a1b      	ldr	r2, [pc, #108]	@ (100001e8 <data_cpy_table+0x40>)
1000017c:	2000      	movs	r0, #0
1000017e:	e000      	b.n	10000182 <bss_fill_test>

10000180 <bss_fill_loop>:
10000180:	c101      	stmia	r1!, {r0}

10000182 <bss_fill_test>:
10000182:	4291      	cmp	r1, r2
10000184:	d1fc      	bne.n	10000180 <bss_fill_loop>

10000186 <platform_entry>:
10000186:	2000      	movs	r0, #0
10000188:	f380 880a 	msr	MSPLIM, r0
1000018c:	4917      	ldr	r1, [pc, #92]	@ (100001ec <data_cpy_table+0x44>)
1000018e:	4788      	blx	r1
10000190:	4917      	ldr	r1, [pc, #92]	@ (100001f0 <data_cpy_table+0x48>)
10000192:	4788      	blx	r1
10000194:	4917      	ldr	r1, [pc, #92]	@ (100001f4 <data_cpy_table+0x4c>)
10000196:	4788      	blx	r1
10000198:	be00      	bkpt	0x0000
1000019a:	e7fd      	b.n	10000198 <platform_entry+0x12>

1000019c <data_cpy_loop>:
1000019c:	c901      	ldmia	r1!, {r0}
1000019e:	c201      	stmia	r2!, {r0}

100001a0 <data_cpy>:
100001a0:	429a      	cmp	r2, r3
100001a2:	d3fb      	bcc.n	1000019c <data_cpy_loop>
100001a4:	4770      	bx	lr
100001a6:	bf00      	nop

100001a8 <data_cpy_table>:
100001a8:	10000224 	.word	0x10000224
100001ac:	20000188 	.word	0x20000188
100001b0:	20007474 	.word	0x20007474
100001b4:	10007510 	.word	0x10007510
100001b8:	20007478 	.word	0x20007478
100001bc:	20008d68 	.word	0x20008d68
100001c0:	10008e00 	.word	0x10008e00
100001c4:	20080000 	.word	0x20080000
100001c8:	20080000 	.word	0x20080000
100001cc:	10008e00 	.word	0x10008e00
100001d0:	20081000 	.word	0x20081000
100001d4:	20081000 	.word	0x20081000
100001d8:	00000000 	.word	0x00000000
100001dc:	4770      	bx	lr
100001de:	0000      	.short	0x0000
100001e0:	e000ed08 	.word	0xe000ed08
100001e4:	20008d68 	.word	0x20008d68
100001e8:	20019b70 	.word	0x20019b70
100001ec:	20004079 	.word	0x20004079
100001f0:	200004c9 	.word	0x200004c9
100001f4:	20004071 	.word	0x20004071

Disassembly of section .text:

20000188 <_init>:
20000188:	b5f8      	push	{r3, r4, r5, r6, r7, lr}
2000018a:	bf00      	nop

2000018c <deregister_tm_clones>:
2000018c:	4803      	ldr	r0, [pc, #12]	@ (2000019c <deregister_tm_clones+0x10>)
2000018e:	4b04      	ldr	r3, [pc, #16]	@ (200001a0 <deregister_tm_clones+0x14>)
20000190:	4283      	cmp	r3, r0
20000192:	d002      	beq.n	2000019a <deregister_tm_clones+0xe>
20000194:	4b03      	ldr	r3, [pc, #12]	@ (200001a4 <deregister_tm_clones+0x18>)
20000196:	b103      	cbz	r3, 2000019a <deregister_tm_clones+0xe>
20000198:	4718      	bx	r3
2000019a:	4770      	bx	lr
2000019c:	20008d68 	.word	0x20008d68
200001a0:	20008d68 	.word	0x20008d68
200001a4:	00000000 	.word	0x00000000

200001a8 <register_tm_clones>:
200001a8:	4b06      	ldr	r3, [pc, #24]	@ (200001c4 <register_tm_clones+0x1c>)
200001aa:	4907      	ldr	r1, [pc, #28]	@ (200001c8 <register_tm_clones+0x20>)
200001ac:	1ac9      	subs	r1, r1, r3
200001ae:	1089      	asrs	r1, r1, #2
200001b0:	bf48      	it	mi
200001b2:	3101      	addmi	r1, #1
200001b4:	1049      	asrs	r1, r1, #1
200001b6:	d003      	beq.n	200001c0 <register_tm_clones+0x18>
200001b8:	4b04      	ldr	r3, [pc, #16]	@ (200001cc <register_tm_clones+0x24>)
200001ba:	b10b      	cbz	r3, 200001c0 <register_tm_clones+0x18>
200001bc:	4801      	ldr	r0, [pc, #4]	@ (200001c4 <register_tm_clones+0x1c>)
200001be:	4718      	bx	r3
200001c0:	4770      	bx	lr
200001c2:	bf00      	nop
200001c4:	20008d68 	.word	0x20008d68
200001c8:	20008d68 	.word	0x20008d68
200001cc:	00000000 	.word	0x00000000

200001d0 <__do_global_dtors_aux>:
200001d0:	b510      	push	{r4, lr}
200001d2:	4c06      	ldr	r4, [pc, #24]	@ (200001ec <__do_global_dtors_aux+0x1c>)
200001d4:	7823      	ldrb	r3, [r4, #0]
200001d6:	b943      	cbnz	r3, 200001ea <__do_global_dtors_aux+0x1a>
200001d8:	f7ff ffd8 	bl	2000018c <deregister_tm_clones>
200001dc:	4b04      	ldr	r3, [pc, #16]	@ (200001f0 <__do_global_dtors_aux+0x20>)
200001de:	b113      	cbz	r3, 200001e6 <__do_global_dtors_aux+0x16>
200001e0:	4804      	ldr	r0, [pc, #16]	@ (200001f4 <__do_global_dtors_aux+0x24>)
200001e2:	f3af 8000 	nop.w
200001e6:	2301      	movs	r3, #1
200001e8:	7023      	strb	r3, [r4, #0]
200001ea:	bd10      	pop	{r4, pc}
200001ec:	20009040 	.word	0x20009040
200001f0:	00000000 	.word	0x00000000
200001f4:	20007474 	.word	0x20007474

200001f8 <frame_dummy>:
200001f8:	b508      	push	{r3, lr}
200001fa:	4b04      	ldr	r3, [pc, #16]	@ (2000020c <frame_dummy+0x14>)
200001fc:	b11b      	cbz	r3, 20000206 <frame_dummy+0xe>
200001fe:	4904      	ldr	r1, [pc, #16]	@ (20000210 <frame_dummy+0x18>)
20000200:	4804      	ldr	r0, [pc, #16]	@ (20000214 <frame_dummy+0x1c>)
20000202:	f3af 8000 	nop.w
20000206:	e8bd 4008 	ldmia.w	sp!, {r3, lr}
2000020a:	e7cd      	b.n	200001a8 <register_tm_clones>
2000020c:	00000000 	.word	0x00000000
20000210:	20009044 	.word	0x20009044
20000214:	20007474 	.word	0x20007474

20000218 <cli_load_app_1>:
20000218:	b500      	push	{lr}
2000021a:	f8df c018 	ldr.w	ip, [pc, #24]	@ 20000234 <cli_load_app_1+0x1c>
2000021e:	f8df e018 	ldr.w	lr, [pc, #24]	@ 20000238 <cli_load_app_1+0x20>
20000222:	e8be 000f 	ldmia.w	lr!, {r0, r1, r2, r3}
20000226:	e8ac 000f 	stmia.w	ip!, {r0, r1, r2, r3}
2000022a:	e89e 0003 	ldmia.w	lr, {r0, r1}
2000022e:	e88c 0003 	stmia.w	ip, {r0, r1}
20000232:	bd00      	pop	{pc}
20000234:	20014b1c 	.word	0x20014b1c
20000238:	20008c04 	.word	0x20008c04

2000023c <cli_incr_b000>:
2000023c:	4a02      	ldr	r2, [pc, #8]	@ (20000248 <cli_incr_b000+0xc>)
2000023e:	7813      	ldrb	r3, [r2, #0]
20000240:	3301      	adds	r3, #1
20000242:	7013      	strb	r3, [r2, #0]
20000244:	4770      	bx	lr
20000246:	bf00      	nop
20000248:	20014b1c 	.word	0x20014b1c

2000024c <cli_information>:
2000024c:	4770      	bx	lr
2000024e:	bf00      	nop

20000250 <cli_boot_mass>:
20000250:	2100      	movs	r1, #0
20000252:	b508      	push	{r3, lr}
20000254:	4608      	mov	r0, r1
20000256:	f002 f8e9 	bl	2000242c <rom_reset_usb_boot>
2000025a:	bf00      	nop

2000025c <cli_version>:
2000025c:	2126      	movs	r1, #38	@ 0x26
2000025e:	4b02      	ldr	r3, [pc, #8]	@ (20000268 <cli_version+0xc>)
20000260:	4a02      	ldr	r2, [pc, #8]	@ (2000026c <cli_version+0x10>)
20000262:	4803      	ldr	r0, [pc, #12]	@ (20000270 <cli_version+0x14>)
20000264:	f004 b952 	b.w	2000450c <__wrap_printf>
20000268:	2000814c 	.word	0x2000814c
2000026c:	20008158 	.word	0x20008158
20000270:	20008164 	.word	0x20008164

20000274 <cli_digit>:
20000274:	4b02      	ldr	r3, [pc, #8]	@ (20000280 <cli_digit+0xc>)
20000276:	4803      	ldr	r0, [pc, #12]	@ (20000284 <cli_digit+0x10>)
20000278:	6819      	ldr	r1, [r3, #0]
2000027a:	f004 b947 	b.w	2000450c <__wrap_printf>
2000027e:	bf00      	nop
20000280:	20009ad0 	.word	0x20009ad0
20000284:	20008188 	.word	0x20008188

20000288 <cli_do_reset>:
20000288:	b510      	push	{r4, lr}
2000028a:	480a      	ldr	r0, [pc, #40]	@ (200002b4 <cli_do_reset+0x2c>)
2000028c:	f004 f93e 	bl	2000450c <__wrap_printf>
20000290:	2408      	movs	r4, #8
20000292:	f04f 0301 	mov.w	r3, #1
20000296:	ec43 4040 	gpioc_bit_out_put r4, r3
2000029a:	2032      	movs	r0, #50	@ 0x32
2000029c:	f001 fcb0 	bl	20001c00 <sleep_ms>
200002a0:	f04f 0300 	mov.w	r3, #0
200002a4:	ec43 4040 	gpioc_bit_out_put r4, r3
200002a8:	e8bd 4010 	ldmia.w	sp!, {r4, lr}
200002ac:	4802      	ldr	r0, [pc, #8]	@ (200002b8 <cli_do_reset+0x30>)
200002ae:	f004 b92d 	b.w	2000450c <__wrap_printf>
200002b2:	bf00      	nop
200002b4:	2000818c 	.word	0x2000818c
200002b8:	2000819c 	.word	0x2000819c

200002bc <cli_dump_rom>:
200002bc:	b538      	push	{r3, r4, r5, lr}
200002be:	f44f 447e 	mov.w	r4, #65024	@ 0xfe00
200002c2:	4d0d      	ldr	r5, [pc, #52]	@ (200002f8 <cli_dump_rom+0x3c>)
200002c4:	06a3      	lsls	r3, r4, #26
200002c6:	d00c      	beq.n	200002e2 <cli_dump_rom+0x26>
200002c8:	5d29      	ldrb	r1, [r5, r4]
200002ca:	480c      	ldr	r0, [pc, #48]	@ (200002fc <cli_dump_rom+0x40>)
200002cc:	3401      	adds	r4, #1
200002ce:	f004 f91d 	bl	2000450c <__wrap_printf>
200002d2:	f5b4 3f80 	cmp.w	r4, #65536	@ 0x10000
200002d6:	d1f5      	bne.n	200002c4 <cli_dump_rom+0x8>
200002d8:	200a      	movs	r0, #10
200002da:	e8bd 4038 	ldmia.w	sp!, {r3, r4, r5, lr}
200002de:	f004 b855 	b.w	2000438c <__wrap_putchar>
200002e2:	4621      	mov	r1, r4
200002e4:	4806      	ldr	r0, [pc, #24]	@ (20000300 <cli_dump_rom+0x44>)
200002e6:	f004 f911 	bl	2000450c <__wrap_printf>
200002ea:	5d29      	ldrb	r1, [r5, r4]
200002ec:	4803      	ldr	r0, [pc, #12]	@ (200002fc <cli_dump_rom+0x40>)
200002ee:	f004 f90d 	bl	2000450c <__wrap_printf>
200002f2:	3401      	adds	r4, #1
200002f4:	e7e6      	b.n	200002c4 <cli_dump_rom+0x8>
200002f6:	bf00      	nop
200002f8:	20009b1c 	.word	0x20009b1c
200002fc:	200081ac 	.word	0x200081ac
20000300:	200081a4 	.word	0x200081a4

20000304 <cli_dump_window>:
20000304:	b538      	push	{r3, r4, r5, lr}
20000306:	f44f 4430 	mov.w	r4, #45056	@ 0xb000
2000030a:	4d0d      	ldr	r5, [pc, #52]	@ (20000340 <cli_dump_window+0x3c>)
2000030c:	06a3      	lsls	r3, r4, #26
2000030e:	d00c      	beq.n	2000032a <cli_dump_window+0x26>
20000310:	5d29      	ldrb	r1, [r5, r4]
20000312:	480c      	ldr	r0, [pc, #48]	@ (20000344 <cli_dump_window+0x40>)
20000314:	3401      	adds	r4, #1
20000316:	f004 f8f9 	bl	2000450c <__wrap_printf>
2000031a:	f5b4 4f31 	cmp.w	r4, #45312	@ 0xb100
2000031e:	d1f5      	bne.n	2000030c <cli_dump_window+0x8>
20000320:	200a      	movs	r0, #10
20000322:	e8bd 4038 	ldmia.w	sp!, {r3, r4, r5, lr}
20000326:	f004 b831 	b.w	2000438c <__wrap_putchar>
2000032a:	4621      	mov	r1, r4
2000032c:	4806      	ldr	r0, [pc, #24]	@ (20000348 <cli_dump_window+0x44>)
2000032e:	f004 f8ed 	bl	2000450c <__wrap_printf>
20000332:	5d29      	ldrb	r1, [r5, r4]
20000334:	4803      	ldr	r0, [pc, #12]	@ (20000344 <cli_dump_window+0x40>)
20000336:	f004 f8e9 	bl	2000450c <__wrap_printf>
2000033a:	3401      	adds	r4, #1
2000033c:	e7e6      	b.n	2000030c <cli_dump_window+0x8>
2000033e:	bf00      	nop
20000340:	20009b1c 	.word	0x20009b1c
20000344:	200081ac 	.word	0x200081ac
20000348:	200081a4 	.word	0x200081a4

2000034c <cli_dump_ram>:
2000034c:	b538      	push	{r3, r4, r5, lr}
2000034e:	2400      	movs	r4, #0
20000350:	4d12      	ldr	r5, [pc, #72]	@ (2000039c <cli_dump_ram+0x50>)
20000352:	06a2      	lsls	r2, r4, #26
20000354:	d00e      	beq.n	20000374 <cli_dump_ram+0x28>
20000356:	0763      	lsls	r3, r4, #29
20000358:	d016      	beq.n	20000388 <cli_dump_ram+0x3c>
2000035a:	5d29      	ldrb	r1, [r5, r4]
2000035c:	4810      	ldr	r0, [pc, #64]	@ (200003a0 <cli_dump_ram+0x54>)
2000035e:	3401      	adds	r4, #1
20000360:	f004 f8d4 	bl	2000450c <__wrap_printf>
20000364:	f5b4 6f00 	cmp.w	r4, #2048	@ 0x800
20000368:	d1f3      	bne.n	20000352 <cli_dump_ram+0x6>
2000036a:	200a      	movs	r0, #10
2000036c:	e8bd 4038 	ldmia.w	sp!, {r3, r4, r5, lr}
20000370:	f004 b80c 	b.w	2000438c <__wrap_putchar>
20000374:	4621      	mov	r1, r4
20000376:	480b      	ldr	r0, [pc, #44]	@ (200003a4 <cli_dump_ram+0x58>)
20000378:	f004 f8c8 	bl	2000450c <__wrap_printf>
2000037c:	5d29      	ldrb	r1, [r5, r4]
2000037e:	4808      	ldr	r0, [pc, #32]	@ (200003a0 <cli_dump_ram+0x54>)
20000380:	f004 f8c4 	bl	2000450c <__wrap_printf>
20000384:	3401      	adds	r4, #1
20000386:	e7e4      	b.n	20000352 <cli_dump_ram+0x6>
20000388:	2020      	movs	r0, #32
2000038a:	f003 ffff 	bl	2000438c <__wrap_putchar>
2000038e:	5d29      	ldrb	r1, [r5, r4]
20000390:	4803      	ldr	r0, [pc, #12]	@ (200003a0 <cli_dump_ram+0x54>)
20000392:	f004 f8bb 	bl	2000450c <__wrap_printf>
20000396:	3401      	adds	r4, #1
20000398:	e7db      	b.n	20000352 <cli_dump_ram+0x6>
2000039a:	bf00      	nop
2000039c:	20009b1c 	.word	0x20009b1c
200003a0:	200081ac 	.word	0x200081ac
200003a4:	200081a4 	.word	0x200081a4

200003a8 <serial_help>:
200003a8:	b538      	push	{r3, r4, r5, lr}
200003aa:	200a      	movs	r0, #10
200003ac:	f003 ffee 	bl	2000438c <__wrap_putchar>
200003b0:	4c09      	ldr	r4, [pc, #36]	@ (200003d8 <serial_help+0x30>)
200003b2:	f104 05fc 	add.w	r5, r4, #252	@ 0xfc
200003b6:	6862      	ldr	r2, [r4, #4]
200003b8:	7813      	ldrb	r3, [r2, #0]
200003ba:	2b2a      	cmp	r3, #42	@ 0x2a
200003bc:	d003      	beq.n	200003c6 <serial_help+0x1e>
200003be:	4807      	ldr	r0, [pc, #28]	@ (200003dc <serial_help+0x34>)
200003c0:	7821      	ldrb	r1, [r4, #0]
200003c2:	f004 f8a3 	bl	2000450c <__wrap_printf>
200003c6:	340c      	adds	r4, #12
200003c8:	42ac      	cmp	r4, r5
200003ca:	d1f4      	bne.n	200003b6 <serial_help+0xe>
200003cc:	4804      	ldr	r0, [pc, #16]	@ (200003e0 <serial_help+0x38>)
200003ce:	e8bd 4038 	ldmia.w	sp!, {r3, r4, r5, lr}
200003d2:	f004 b89b 	b.w	2000450c <__wrap_printf>
200003d6:	bf00      	nop
200003d8:	20008b08 	.word	0x20008b08
200003dc:	200081b4 	.word	0x200081b4
200003e0:	200081c0 	.word	0x200081c0

200003e4 <ram_emulate>:
200003e4:	f04f 30ff 	mov.w	r0, #4294967295	@ 0xffffffff
200003e8:	b510      	push	{r4, lr}
200003ea:	2100      	movs	r1, #0
200003ec:	f000 fe28 	bl	20001040 <irq_set_mask_enabled>
200003f0:	f04f 4250 	mov.w	r2, #3489660928	@ 0xd0000000
200003f4:	20ff      	movs	r0, #255	@ 0xff
200003f6:	f8df e050 	ldr.w	lr, [pc, #80]	@ 20000448 <ram_emulate+0x64>
200003fa:	6853      	ldr	r3, [r2, #4]
200003fc:	6891      	ldr	r1, [r2, #8]
200003fe:	051c      	lsls	r4, r3, #20
20000400:	d40b      	bmi.n	2000041a <ram_emulate+0x36>
20000402:	f401 417f 	and.w	r1, r1, #65280	@ 0xff00
20000406:	f5b1 4f30 	cmp.w	r1, #45056	@ 0xb000
2000040a:	d1f6      	bne.n	200003fa <ram_emulate+0x16>
2000040c:	6853      	ldr	r3, [r2, #4]
2000040e:	0519      	lsls	r1, r3, #20
20000410:	d5fc      	bpl.n	2000040c <ram_emulate+0x28>
20000412:	6891      	ldr	r1, [r2, #8]
20000414:	b28c      	uxth	r4, r1
20000416:	f80e 3004 	strb.w	r3, [lr, r4]
2000041a:	04dc      	lsls	r4, r3, #19
2000041c:	d4ed      	bmi.n	200003fa <ram_emulate+0x16>
2000041e:	f401 417f 	and.w	r1, r1, #65280	@ 0xff00
20000422:	f5b1 4f30 	cmp.w	r1, #45056	@ 0xb000
20000426:	d1e8      	bne.n	200003fa <ram_emulate+0x16>
20000428:	6390      	str	r0, [r2, #56]	@ 0x38
2000042a:	6893      	ldr	r3, [r2, #8]
2000042c:	b29b      	uxth	r3, r3
2000042e:	f81e 3003 	ldrb.w	r3, [lr, r3]
20000432:	b2db      	uxtb	r3, r3
20000434:	f083 01ff 	eor.w	r1, r3, #255	@ 0xff
20000438:	6193      	str	r3, [r2, #24]
2000043a:	6211      	str	r1, [r2, #32]
2000043c:	6853      	ldr	r3, [r2, #4]
2000043e:	04db      	lsls	r3, r3, #19
20000440:	d4fc      	bmi.n	2000043c <ram_emulate+0x58>
20000442:	6410      	str	r0, [r2, #64]	@ 0x40
20000444:	e7d9      	b.n	200003fa <ram_emulate+0x16>
20000446:	bf00      	nop
20000448:	20009b1c 	.word	0x20009b1c

2000044c <cli_enter_parameter>:
2000044c:	b510      	push	{r4, lr}
2000044e:	4818      	ldr	r0, [pc, #96]	@ (200004b0 <cli_enter_parameter+0x64>)
20000450:	f004 f85c 	bl	2000450c <__wrap_printf>
20000454:	2300      	movs	r3, #0
20000456:	4c17      	ldr	r4, [pc, #92]	@ (200004b4 <cli_enter_parameter+0x68>)
20000458:	6023      	str	r3, [r4, #0]
2000045a:	f44f 707a 	mov.w	r0, #1000	@ 0x3e8
2000045e:	f003 ff4f 	bl	20004300 <stdio_getchar_timeout_us>
20000462:	1c83      	adds	r3, r0, #2
20000464:	d020      	beq.n	200004a8 <cli_enter_parameter+0x5c>
20000466:	2839      	cmp	r0, #57	@ 0x39
20000468:	dcf7      	bgt.n	2000045a <cli_enter_parameter+0xe>
2000046a:	282f      	cmp	r0, #47	@ 0x2f
2000046c:	dc07      	bgt.n	2000047e <cli_enter_parameter+0x32>
2000046e:	4b12      	ldr	r3, [pc, #72]	@ (200004b8 <cli_enter_parameter+0x6c>)
20000470:	281b      	cmp	r0, #27
20000472:	fa43 f300 	asr.w	r3, r3, r0
20000476:	d8f0      	bhi.n	2000045a <cli_enter_parameter+0xe>
20000478:	07da      	lsls	r2, r3, #31
2000047a:	d4ee      	bmi.n	2000045a <cli_enter_parameter+0xe>
2000047c:	bd10      	pop	{r4, pc}
2000047e:	6823      	ldr	r3, [r4, #0]
20000480:	3830      	subs	r0, #48	@ 0x30
20000482:	eb03 0383 	add.w	r3, r3, r3, lsl #2
20000486:	eb00 0043 	add.w	r0, r0, r3, lsl #1
2000048a:	490c      	ldr	r1, [pc, #48]	@ (200004bc <cli_enter_parameter+0x70>)
2000048c:	6020      	str	r0, [r4, #0]
2000048e:	480c      	ldr	r0, [pc, #48]	@ (200004c0 <cli_enter_parameter+0x74>)
20000490:	f004 f83c 	bl	2000450c <__wrap_printf>
20000494:	6821      	ldr	r1, [r4, #0]
20000496:	480b      	ldr	r0, [pc, #44]	@ (200004c4 <cli_enter_parameter+0x78>)
20000498:	f004 f838 	bl	2000450c <__wrap_printf>
2000049c:	f44f 707a 	mov.w	r0, #1000	@ 0x3e8
200004a0:	f003 ff2e 	bl	20004300 <stdio_getchar_timeout_us>
200004a4:	1c83      	adds	r3, r0, #2
200004a6:	d1de      	bne.n	20000466 <cli_enter_parameter+0x1a>
200004a8:	f003 ff18 	bl	200042dc <stdio_flush>
200004ac:	e7d5      	b.n	2000045a <cli_enter_parameter+0xe>
200004ae:	bf00      	nop
200004b0:	200081dc 	.word	0x200081dc
200004b4:	20009af0 	.word	0x20009af0
200004b8:	f7ffdbff 	.word	0xf7ffdbff
200004bc:	20019b28 	.word	0x20019b28
200004c0:	20008208 	.word	0x20008208
200004c4:	20008220 	.word	0x20008220

200004c8 <main>:
200004c8:	b580      	push	{r7, lr}
200004ca:	2000      	movs	r0, #0
200004cc:	b084      	sub	sp, #16
200004ce:	f000 fc93 	bl	20000df8 <gpio_init>
200004d2:	2400      	movs	r4, #0
200004d4:	ec44 4044 	gpioc_bit_oe_put r4, r4
200004d8:	2001      	movs	r0, #1
200004da:	f000 fc8d 	bl	20000df8 <gpio_init>
200004de:	2501      	movs	r5, #1
200004e0:	ec44 5044 	gpioc_bit_oe_put r5, r4
200004e4:	2002      	movs	r0, #2
200004e6:	f000 fc87 	bl	20000df8 <gpio_init>
200004ea:	2302      	movs	r3, #2
200004ec:	ec44 3044 	gpioc_bit_oe_put r3, r4
200004f0:	2003      	movs	r0, #3
200004f2:	f000 fc81 	bl	20000df8 <gpio_init>
200004f6:	2303      	movs	r3, #3
200004f8:	ec44 3044 	gpioc_bit_oe_put r3, r4
200004fc:	2004      	movs	r0, #4
200004fe:	f000 fc7b 	bl	20000df8 <gpio_init>
20000502:	2304      	movs	r3, #4
20000504:	ec44 3044 	gpioc_bit_oe_put r3, r4
20000508:	2005      	movs	r0, #5
2000050a:	f000 fc75 	bl	20000df8 <gpio_init>
2000050e:	2305      	movs	r3, #5
20000510:	ec44 3044 	gpioc_bit_oe_put r3, r4
20000514:	2006      	movs	r0, #6
20000516:	f000 fc6f 	bl	20000df8 <gpio_init>
2000051a:	2306      	movs	r3, #6
2000051c:	ec44 3044 	gpioc_bit_oe_put r3, r4
20000520:	2007      	movs	r0, #7
20000522:	f000 fc69 	bl	20000df8 <gpio_init>
20000526:	2307      	movs	r3, #7
20000528:	ec44 3044 	gpioc_bit_oe_put r3, r4
2000052c:	2008      	movs	r0, #8
2000052e:	f000 fc63 	bl	20000df8 <gpio_init>
20000532:	2708      	movs	r7, #8
20000534:	ec45 7044 	gpioc_bit_oe_put r7, r5
20000538:	2009      	movs	r0, #9
2000053a:	f000 fc5d 	bl	20000df8 <gpio_init>
2000053e:	f04f 0809 	mov.w	r8, #9
20000542:	ec45 8044 	gpioc_bit_oe_put r8, r5
20000546:	200a      	movs	r0, #10
20000548:	f000 fc56 	bl	20000df8 <gpio_init>
2000054c:	260a      	movs	r6, #10
2000054e:	ec45 6044 	gpioc_bit_oe_put r6, r5
20000552:	200b      	movs	r0, #11
20000554:	f000 fc50 	bl	20000df8 <gpio_init>
20000558:	230b      	movs	r3, #11
2000055a:	ec44 3044 	gpioc_bit_oe_put r3, r4
2000055e:	200c      	movs	r0, #12
20000560:	f000 fc4a 	bl	20000df8 <gpio_init>
20000564:	230c      	movs	r3, #12
20000566:	ec44 3044 	gpioc_bit_oe_put r3, r4
2000056a:	200d      	movs	r0, #13
2000056c:	f000 fc44 	bl	20000df8 <gpio_init>
20000570:	230d      	movs	r3, #13
20000572:	ec44 3044 	gpioc_bit_oe_put r3, r4
20000576:	200e      	movs	r0, #14
20000578:	f000 fc3e 	bl	20000df8 <gpio_init>
2000057c:	230e      	movs	r3, #14
2000057e:	ec44 3044 	gpioc_bit_oe_put r3, r4
20000582:	200f      	movs	r0, #15
20000584:	f000 fc38 	bl	20000df8 <gpio_init>
20000588:	230f      	movs	r3, #15
2000058a:	ec44 3044 	gpioc_bit_oe_put r3, r4
2000058e:	201c      	movs	r0, #28
20000590:	f000 fc32 	bl	20000df8 <gpio_init>
20000594:	231c      	movs	r3, #28
20000596:	ec44 3044 	gpioc_bit_oe_put r3, r4
2000059a:	201d      	movs	r0, #29
2000059c:	f000 fc2c 	bl	20000df8 <gpio_init>
200005a0:	231d      	movs	r3, #29
200005a2:	ec44 3044 	gpioc_bit_oe_put r3, r4
200005a6:	201e      	movs	r0, #30
200005a8:	f000 fc26 	bl	20000df8 <gpio_init>
200005ac:	251e      	movs	r5, #30
200005ae:	ec44 5044 	gpioc_bit_oe_put r5, r4
200005b2:	2020      	movs	r0, #32
200005b4:	f000 fc20 	bl	20000df8 <gpio_init>
200005b8:	2320      	movs	r3, #32
200005ba:	ec44 3044 	gpioc_bit_oe_put r3, r4
200005be:	2021      	movs	r0, #33	@ 0x21
200005c0:	f000 fc1a 	bl	20000df8 <gpio_init>
200005c4:	2321      	movs	r3, #33	@ 0x21
200005c6:	ec44 3044 	gpioc_bit_oe_put r3, r4
200005ca:	2022      	movs	r0, #34	@ 0x22
200005cc:	f000 fc14 	bl	20000df8 <gpio_init>
200005d0:	2322      	movs	r3, #34	@ 0x22
200005d2:	ec44 3044 	gpioc_bit_oe_put r3, r4
200005d6:	2023      	movs	r0, #35	@ 0x23
200005d8:	f000 fc0e 	bl	20000df8 <gpio_init>
200005dc:	2323      	movs	r3, #35	@ 0x23
200005de:	ec44 3044 	gpioc_bit_oe_put r3, r4
200005e2:	2024      	movs	r0, #36	@ 0x24
200005e4:	f000 fc08 	bl	20000df8 <gpio_init>
200005e8:	2324      	movs	r3, #36	@ 0x24
200005ea:	ec44 3044 	gpioc_bit_oe_put r3, r4
200005ee:	2025      	movs	r0, #37	@ 0x25
200005f0:	f000 fc02 	bl	20000df8 <gpio_init>
200005f4:	2325      	movs	r3, #37	@ 0x25
200005f6:	ec44 3044 	gpioc_bit_oe_put r3, r4
200005fa:	2026      	movs	r0, #38	@ 0x26
200005fc:	f000 fbfc 	bl	20000df8 <gpio_init>
20000600:	f04f 0926 	mov.w	r9, #38	@ 0x26
20000604:	ec44 9044 	gpioc_bit_oe_put r9, r4
20000608:	2027      	movs	r0, #39	@ 0x27
2000060a:	f000 fbf5 	bl	20000df8 <gpio_init>
2000060e:	2327      	movs	r3, #39	@ 0x27
20000610:	ec44 3044 	gpioc_bit_oe_put r3, r4
20000614:	2028      	movs	r0, #40	@ 0x28
20000616:	f000 fbef 	bl	20000df8 <gpio_init>
2000061a:	2328      	movs	r3, #40	@ 0x28
2000061c:	ec44 3044 	gpioc_bit_oe_put r3, r4
20000620:	2029      	movs	r0, #41	@ 0x29
20000622:	f000 fbe9 	bl	20000df8 <gpio_init>
20000626:	2329      	movs	r3, #41	@ 0x29
20000628:	ec44 3044 	gpioc_bit_oe_put r3, r4
2000062c:	202a      	movs	r0, #42	@ 0x2a
2000062e:	f000 fbe3 	bl	20000df8 <gpio_init>
20000632:	232a      	movs	r3, #42	@ 0x2a
20000634:	ec44 3044 	gpioc_bit_oe_put r3, r4
20000638:	202b      	movs	r0, #43	@ 0x2b
2000063a:	f000 fbdd 	bl	20000df8 <gpio_init>
2000063e:	232b      	movs	r3, #43	@ 0x2b
20000640:	ec44 3044 	gpioc_bit_oe_put r3, r4
20000644:	202c      	movs	r0, #44	@ 0x2c
20000646:	f000 fbd7 	bl	20000df8 <gpio_init>
2000064a:	232c      	movs	r3, #44	@ 0x2c
2000064c:	ec44 3044 	gpioc_bit_oe_put r3, r4
20000650:	202d      	movs	r0, #45	@ 0x2d
20000652:	f000 fbd1 	bl	20000df8 <gpio_init>
20000656:	232d      	movs	r3, #45	@ 0x2d
20000658:	ec44 3044 	gpioc_bit_oe_put r3, r4
2000065c:	202e      	movs	r0, #46	@ 0x2e
2000065e:	f000 fbcb 	bl	20000df8 <gpio_init>
20000662:	232e      	movs	r3, #46	@ 0x2e
20000664:	ec44 3044 	gpioc_bit_oe_put r3, r4
20000668:	202f      	movs	r0, #47	@ 0x2f
2000066a:	f000 fbc5 	bl	20000df8 <gpio_init>
2000066e:	232f      	movs	r3, #47	@ 0x2f
20000670:	ec44 3044 	gpioc_bit_oe_put r3, r4
20000674:	ec44 7040 	gpioc_bit_out_put r7, r4
20000678:	ec44 8040 	gpioc_bit_out_put r8, r4
2000067c:	ec44 6040 	gpioc_bit_out_put r6, r4
20000680:	483a      	ldr	r0, [pc, #232]	@ (2000076c <main+0x2a4>)
20000682:	ab03      	add	r3, sp, #12
20000684:	eb0d 0207 	add.w	r2, sp, r7
20000688:	a901      	add	r1, sp, #4
2000068a:	f001 fd41 	bl	20002110 <check_sys_clock_khz>
2000068e:	b918      	cbnz	r0, 20000698 <main+0x1d0>
20000690:	4936      	ldr	r1, [pc, #216]	@ (2000076c <main+0x2a4>)
20000692:	4837      	ldr	r0, [pc, #220]	@ (20000770 <main+0x2a8>)
20000694:	f000 fbd6 	bl	20000e44 <panic>
20000698:	e9dd 1202 	ldrd	r1, r2, [sp, #8]
2000069c:	9801      	ldr	r0, [sp, #4]
2000069e:	f001 fc73 	bl	20001f88 <set_sys_clock_pll>
200006a2:	f004 f955 	bl	20004950 <stdio_usb_init>
200006a6:	4833      	ldr	r0, [pc, #204]	@ (20000774 <main+0x2ac>)
200006a8:	f006 fb46 	bl	20006d38 <multicore_launch_core1>
200006ac:	4630      	mov	r0, r6
200006ae:	f003 fe6d 	bl	2000438c <__wrap_putchar>
200006b2:	4831      	ldr	r0, [pc, #196]	@ (20000778 <main+0x2b0>)
200006b4:	f003 ff2a 	bl	2000450c <__wrap_printf>
200006b8:	4830      	ldr	r0, [pc, #192]	@ (2000077c <main+0x2b4>)
200006ba:	f003 ff27 	bl	2000450c <__wrap_printf>
200006be:	482e      	ldr	r0, [pc, #184]	@ (20000778 <main+0x2b0>)
200006c0:	f003 ff24 	bl	2000450c <__wrap_printf>
200006c4:	4630      	mov	r0, r6
200006c6:	f003 fe61 	bl	2000438c <__wrap_putchar>
200006ca:	4b2d      	ldr	r3, [pc, #180]	@ (20000780 <main+0x2b8>)
200006cc:	4649      	mov	r1, r9
200006ce:	4a2d      	ldr	r2, [pc, #180]	@ (20000784 <main+0x2bc>)
200006d0:	482d      	ldr	r0, [pc, #180]	@ (20000788 <main+0x2c0>)
200006d2:	f003 ff1b 	bl	2000450c <__wrap_printf>
200006d6:	4630      	mov	r0, r6
200006d8:	f003 fe58 	bl	2000438c <__wrap_putchar>
200006dc:	482b      	ldr	r0, [pc, #172]	@ (2000078c <main+0x2c4>)
200006de:	f000 f907 	bl	200008f0 <i2c_init>
200006e2:	482b      	ldr	r0, [pc, #172]	@ (20000790 <main+0x2c8>)
200006e4:	f000 fb20 	bl	20000d28 <oled_setup>
200006e8:	4829      	ldr	r0, [pc, #164]	@ (20000790 <main+0x2c8>)
200006ea:	f000 fa93 	bl	20000c14 <oled_clear_display>
200006ee:	4622      	mov	r2, r4
200006f0:	2114      	movs	r1, #20
200006f2:	4827      	ldr	r0, [pc, #156]	@ (20000790 <main+0x2c8>)
200006f4:	f000 f906 	bl	20000904 <oled_set_xy>
200006f8:	4926      	ldr	r1, [pc, #152]	@ (20000794 <main+0x2cc>)
200006fa:	4825      	ldr	r0, [pc, #148]	@ (20000790 <main+0x2c8>)
200006fc:	f000 f970 	bl	200009e0 <oled_display_string>
20000700:	463a      	mov	r2, r7
20000702:	4629      	mov	r1, r5
20000704:	4822      	ldr	r0, [pc, #136]	@ (20000790 <main+0x2c8>)
20000706:	f000 f8fd 	bl	20000904 <oled_set_xy>
2000070a:	4923      	ldr	r1, [pc, #140]	@ (20000798 <main+0x2d0>)
2000070c:	4820      	ldr	r0, [pc, #128]	@ (20000790 <main+0x2c8>)
2000070e:	f000 f967 	bl	200009e0 <oled_display_string>
20000712:	4f22      	ldr	r7, [pc, #136]	@ (2000079c <main+0x2d4>)
20000714:	4e22      	ldr	r6, [pc, #136]	@ (200007a0 <main+0x2d8>)
20000716:	4d23      	ldr	r5, [pc, #140]	@ (200007a4 <main+0x2dc>)
20000718:	f44f 707a 	mov.w	r0, #1000	@ 0x3e8
2000071c:	f003 fdf0 	bl	20004300 <stdio_getchar_timeout_us>
20000720:	f110 0f02 	cmn.w	r0, #2
20000724:	4680      	mov	r8, r0
20000726:	d0f7      	beq.n	20000718 <main+0x250>
20000728:	2400      	movs	r4, #0
2000072a:	4b1c      	ldr	r3, [pc, #112]	@ (2000079c <main+0x2d4>)
2000072c:	e004      	b.n	20000738 <main+0x270>
2000072e:	3401      	adds	r4, #1
20000730:	2c15      	cmp	r4, #21
20000732:	f103 030c 	add.w	r3, r3, #12
20000736:	d0ef      	beq.n	20000718 <main+0x250>
20000738:	7818      	ldrb	r0, [r3, #0]
2000073a:	4580      	cmp	r8, r0
2000073c:	d1f7      	bne.n	2000072e <main+0x266>
2000073e:	eb04 0444 	add.w	r4, r4, r4, lsl #1
20000742:	4642      	mov	r2, r8
20000744:	4641      	mov	r1, r8
20000746:	eb07 0484 	add.w	r4, r7, r4, lsl #2
2000074a:	4817      	ldr	r0, [pc, #92]	@ (200007a8 <main+0x2e0>)
2000074c:	f003 fede 	bl	2000450c <__wrap_printf>
20000750:	68a3      	ldr	r3, [r4, #8]
20000752:	f8c6 8000 	str.w	r8, [r6]
20000756:	4798      	blx	r3
20000758:	4914      	ldr	r1, [pc, #80]	@ (200007ac <main+0x2e4>)
2000075a:	4815      	ldr	r0, [pc, #84]	@ (200007b0 <main+0x2e8>)
2000075c:	f003 fed6 	bl	2000450c <__wrap_printf>
20000760:	6829      	ldr	r1, [r5, #0]
20000762:	4814      	ldr	r0, [pc, #80]	@ (200007b4 <main+0x2ec>)
20000764:	f003 fed2 	bl	2000450c <__wrap_printf>
20000768:	e7d6      	b.n	20000718 <main+0x250>
2000076a:	bf00      	nop
2000076c:	00041eb0 	.word	0x00041eb0
20000770:	2000832c 	.word	0x2000832c
20000774:	200003e5 	.word	0x200003e5
20000778:	20008248 	.word	0x20008248
2000077c:	20008298 	.word	0x20008298
20000780:	2000814c 	.word	0x2000814c
20000784:	20008158 	.word	0x20008158
20000788:	200082e8 	.word	0x200082e8
2000078c:	20008c24 	.word	0x20008c24
20000790:	20008c1c 	.word	0x20008c1c
20000794:	2000830c 	.word	0x2000830c
20000798:	2000831c 	.word	0x2000831c
2000079c:	20008b08 	.word	0x20008b08
200007a0:	20009ad0 	.word	0x20009ad0
200007a4:	20009af0 	.word	0x20009af0
200007a8:	20008234 	.word	0x20008234
200007ac:	20019b28 	.word	0x20019b28
200007b0:	20008208 	.word	0x20008208
200007b4:	20008220 	.word	0x20008220

200007b8 <i2c_send_byte.constprop.0>:
200007b8:	e92d 41f0 	stmdb	sp!, {r4, r5, r6, r7, r8, lr}
200007bc:	2708      	movs	r7, #8
200007be:	f04f 0801 	mov.w	r8, #1
200007c2:	f04f 0500 	mov.w	r5, #0
200007c6:	4606      	mov	r6, r0
200007c8:	e01a      	b.n	20000800 <i2c_send_byte.constprop.0+0x48>
200007ca:	ec48 3044 	gpioc_bit_oe_put r3, r8
200007ce:	ec45 3040 	gpioc_bit_out_put r3, r5
200007d2:	2001      	movs	r0, #1
200007d4:	2100      	movs	r1, #0
200007d6:	f001 f9a7 	bl	20001b28 <sleep_us>
200007da:	240f      	movs	r4, #15
200007dc:	ec45 4044 	gpioc_bit_oe_put r4, r5
200007e0:	2001      	movs	r0, #1
200007e2:	2100      	movs	r1, #0
200007e4:	f001 f9a0 	bl	20001b28 <sleep_us>
200007e8:	ec48 4044 	gpioc_bit_oe_put r4, r8
200007ec:	ec45 4040 	gpioc_bit_out_put r4, r5
200007f0:	2001      	movs	r0, #1
200007f2:	2100      	movs	r1, #0
200007f4:	f001 f998 	bl	20001b28 <sleep_us>
200007f8:	3f01      	subs	r7, #1
200007fa:	ea4f 0646 	mov.w	r6, r6, lsl #1
200007fe:	d006      	beq.n	2000080e <i2c_send_byte.constprop.0+0x56>
20000800:	0632      	lsls	r2, r6, #24
20000802:	f04f 030e 	mov.w	r3, #14
20000806:	d5e0      	bpl.n	200007ca <i2c_send_byte.constprop.0+0x12>
20000808:	ec45 3044 	gpioc_bit_oe_put r3, r5
2000080c:	e7e1      	b.n	200007d2 <i2c_send_byte.constprop.0+0x1a>
2000080e:	230e      	movs	r3, #14
20000810:	ec45 3044 	gpioc_bit_oe_put r3, r5
20000814:	ec45 4044 	gpioc_bit_oe_put r4, r5
20000818:	2001      	movs	r0, #1
2000081a:	2100      	movs	r1, #0
2000081c:	f001 f984 	bl	20001b28 <sleep_us>
20000820:	2064      	movs	r0, #100	@ 0x64
20000822:	f04f 4250 	mov.w	r2, #3489660928	@ 0xd0000000
20000826:	e001      	b.n	2000082c <i2c_send_byte.constprop.0+0x74>
20000828:	3801      	subs	r0, #1
2000082a:	d013      	beq.n	20000854 <i2c_send_byte.constprop.0+0x9c>
2000082c:	6853      	ldr	r3, [r2, #4]
2000082e:	045b      	lsls	r3, r3, #17
20000830:	d4fa      	bmi.n	20000828 <i2c_send_byte.constprop.0+0x70>
20000832:	2401      	movs	r4, #1
20000834:	230f      	movs	r3, #15
20000836:	f04f 0201 	mov.w	r2, #1
2000083a:	ec42 3044 	gpioc_bit_oe_put r3, r2
2000083e:	f04f 0200 	mov.w	r2, #0
20000842:	ec42 3040 	gpioc_bit_out_put r3, r2
20000846:	2001      	movs	r0, #1
20000848:	2100      	movs	r1, #0
2000084a:	f001 f96d 	bl	20001b28 <sleep_us>
2000084e:	4620      	mov	r0, r4
20000850:	e8bd 81f0 	ldmia.w	sp!, {r4, r5, r6, r7, r8, pc}
20000854:	4604      	mov	r4, r0
20000856:	e7ed      	b.n	20000834 <i2c_send_byte.constprop.0+0x7c>

20000858 <oled_send_cmd.constprop.1>:
20000858:	b5f0      	push	{r4, r5, r6, r7, lr}
2000085a:	b083      	sub	sp, #12
2000085c:	4607      	mov	r7, r0
2000085e:	230e      	movs	r3, #14
20000860:	f04f 0601 	mov.w	r6, #1
20000864:	460c      	mov	r4, r1
20000866:	9201      	str	r2, [sp, #4]
20000868:	ec46 3044 	gpioc_bit_oe_put r3, r6
2000086c:	f04f 0500 	mov.w	r5, #0
20000870:	ec45 3040 	gpioc_bit_out_put r3, r5
20000874:	2001      	movs	r0, #1
20000876:	2100      	movs	r1, #0
20000878:	f001 f956 	bl	20001b28 <sleep_us>
2000087c:	230f      	movs	r3, #15
2000087e:	ec46 3044 	gpioc_bit_oe_put r3, r6
20000882:	ec45 3040 	gpioc_bit_out_put r3, r5
20000886:	2001      	movs	r0, #1
20000888:	2100      	movs	r1, #0
2000088a:	f001 f94d 	bl	20001b28 <sleep_us>
2000088e:	7938      	ldrb	r0, [r7, #4]
20000890:	0040      	lsls	r0, r0, #1
20000892:	f000 00fe 	and.w	r0, r0, #254	@ 0xfe
20000896:	f7ff ff8f 	bl	200007b8 <i2c_send_byte.constprop.0>
2000089a:	9a01      	ldr	r2, [sp, #4]
2000089c:	b1e2      	cbz	r2, 200008d8 <oled_send_cmd.constprop.1+0x80>
2000089e:	1ce5      	adds	r5, r4, #3
200008a0:	2080      	movs	r0, #128	@ 0x80
200008a2:	f7ff ff89 	bl	200007b8 <i2c_send_byte.constprop.0>
200008a6:	f814 0b01 	ldrb.w	r0, [r4], #1
200008aa:	f7ff ff85 	bl	200007b8 <i2c_send_byte.constprop.0>
200008ae:	42ac      	cmp	r4, r5
200008b0:	d1f6      	bne.n	200008a0 <oled_send_cmd.constprop.1+0x48>
200008b2:	230f      	movs	r3, #15
200008b4:	f04f 0400 	mov.w	r4, #0
200008b8:	ec44 3044 	gpioc_bit_oe_put r3, r4
200008bc:	2001      	movs	r0, #1
200008be:	2100      	movs	r1, #0
200008c0:	f001 f932 	bl	20001b28 <sleep_us>
200008c4:	230e      	movs	r3, #14
200008c6:	ec44 3044 	gpioc_bit_oe_put r3, r4
200008ca:	2001      	movs	r0, #1
200008cc:	2100      	movs	r1, #0
200008ce:	b003      	add	sp, #12
200008d0:	e8bd 40f0 	ldmia.w	sp!, {r4, r5, r6, r7, lr}
200008d4:	f001 b928 	b.w	20001b28 <sleep_us>
200008d8:	2040      	movs	r0, #64	@ 0x40
200008da:	f7ff ff6d 	bl	200007b8 <i2c_send_byte.constprop.0>
200008de:	1ce5      	adds	r5, r4, #3
200008e0:	f814 0b01 	ldrb.w	r0, [r4], #1
200008e4:	f7ff ff68 	bl	200007b8 <i2c_send_byte.constprop.0>
200008e8:	42ac      	cmp	r4, r5
200008ea:	d1f9      	bne.n	200008e0 <oled_send_cmd.constprop.1+0x88>
200008ec:	e7e1      	b.n	200008b2 <oled_send_cmd.constprop.1+0x5a>
200008ee:	bf00      	nop

200008f0 <i2c_init>:
200008f0:	b508      	push	{r3, lr}
200008f2:	200e      	movs	r0, #14
200008f4:	f000 fa80 	bl	20000df8 <gpio_init>
200008f8:	e8bd 4008 	ldmia.w	sp!, {r3, lr}
200008fc:	200f      	movs	r0, #15
200008fe:	f000 ba7b 	b.w	20000df8 <gpio_init>
20000902:	bf00      	nop

20000904 <oled_set_xy>:
20000904:	b570      	push	{r4, r5, r6, lr}
20000906:	4b34      	ldr	r3, [pc, #208]	@ (200009d8 <oled_set_xy+0xd4>)
20000908:	b082      	sub	sp, #8
2000090a:	4d34      	ldr	r5, [pc, #208]	@ (200009dc <oled_set_xy+0xd8>)
2000090c:	601a      	str	r2, [r3, #0]
2000090e:	424b      	negs	r3, r1
20000910:	f003 037f 	and.w	r3, r3, #127	@ 0x7f
20000914:	6029      	str	r1, [r5, #0]
20000916:	f001 017f 	and.w	r1, r1, #127	@ 0x7f
2000091a:	bf58      	it	pl
2000091c:	4259      	negpl	r1, r3
2000091e:	4253      	negs	r3, r2
20000920:	f003 033f 	and.w	r3, r3, #63	@ 0x3f
20000924:	f002 023f 	and.w	r2, r2, #63	@ 0x3f
20000928:	bf58      	it	pl
2000092a:	425a      	negpl	r2, r3
2000092c:	2936      	cmp	r1, #54	@ 0x36
2000092e:	bfc8      	it	gt
20000930:	3101      	addgt	r1, #1
20000932:	2a00      	cmp	r2, #0
20000934:	4604      	mov	r4, r0
20000936:	bfb8      	it	lt
20000938:	3207      	addlt	r2, #7
2000093a:	4248      	negs	r0, r1
2000093c:	f000 000f 	and.w	r0, r0, #15
20000940:	f001 030f 	and.w	r3, r1, #15
20000944:	bf58      	it	pl
20000946:	4243      	negpl	r3, r0
20000948:	2900      	cmp	r1, #0
2000094a:	bfb8      	it	lt
2000094c:	310f      	addlt	r1, #15
2000094e:	10d2      	asrs	r2, r2, #3
20000950:	1109      	asrs	r1, r1, #4
20000952:	3a50      	subs	r2, #80	@ 0x50
20000954:	3110      	adds	r1, #16
20000956:	f88d 3005 	strb.w	r3, [sp, #5]
2000095a:	f88d 2004 	strb.w	r2, [sp, #4]
2000095e:	f88d 1006 	strb.w	r1, [sp, #6]
20000962:	230e      	movs	r3, #14
20000964:	f04f 0601 	mov.w	r6, #1
20000968:	ec46 3044 	gpioc_bit_oe_put r3, r6
2000096c:	f04f 0500 	mov.w	r5, #0
20000970:	ec45 3040 	gpioc_bit_out_put r3, r5
20000974:	2001      	movs	r0, #1
20000976:	2100      	movs	r1, #0
20000978:	f001 f8d6 	bl	20001b28 <sleep_us>
2000097c:	230f      	movs	r3, #15
2000097e:	ec46 3044 	gpioc_bit_oe_put r3, r6
20000982:	ec45 3040 	gpioc_bit_out_put r3, r5
20000986:	2001      	movs	r0, #1
20000988:	2100      	movs	r1, #0
2000098a:	f001 f8cd 	bl	20001b28 <sleep_us>
2000098e:	7920      	ldrb	r0, [r4, #4]
20000990:	f10d 0507 	add.w	r5, sp, #7
20000994:	0040      	lsls	r0, r0, #1
20000996:	f000 00fe 	and.w	r0, r0, #254	@ 0xfe
2000099a:	f7ff ff0d 	bl	200007b8 <i2c_send_byte.constprop.0>
2000099e:	ac01      	add	r4, sp, #4
200009a0:	2080      	movs	r0, #128	@ 0x80
200009a2:	f7ff ff09 	bl	200007b8 <i2c_send_byte.constprop.0>
200009a6:	f814 0b01 	ldrb.w	r0, [r4], #1
200009aa:	f7ff ff05 	bl	200007b8 <i2c_send_byte.constprop.0>
200009ae:	42ac      	cmp	r4, r5
200009b0:	d1f6      	bne.n	200009a0 <oled_set_xy+0x9c>
200009b2:	230f      	movs	r3, #15
200009b4:	f04f 0400 	mov.w	r4, #0
200009b8:	ec44 3044 	gpioc_bit_oe_put r3, r4
200009bc:	2001      	movs	r0, #1
200009be:	2100      	movs	r1, #0
200009c0:	f001 f8b2 	bl	20001b28 <sleep_us>
200009c4:	230e      	movs	r3, #14
200009c6:	ec44 3044 	gpioc_bit_oe_put r3, r4
200009ca:	2001      	movs	r0, #1
200009cc:	2100      	movs	r1, #0
200009ce:	b002      	add	sp, #8
200009d0:	e8bd 4070 	ldmia.w	sp!, {r4, r5, r6, lr}
200009d4:	f001 b8a8 	b.w	20001b28 <sleep_us>
200009d8:	20009ad8 	.word	0x20009ad8
200009dc:	20009ad4 	.word	0x20009ad4

200009e0 <oled_display_string>:
200009e0:	e92d 4ff0 	stmdb	sp!, {r4, r5, r6, r7, r8, r9, sl, fp, lr}
200009e4:	4607      	mov	r7, r0
200009e6:	b087      	sub	sp, #28
200009e8:	4608      	mov	r0, r1
200009ea:	460d      	mov	r5, r1
200009ec:	f006 fcc6 	bl	2000737c <strlen>
200009f0:	2800      	cmp	r0, #0
200009f2:	f000 8098 	beq.w	20000b26 <oled_display_string+0x146>
200009f6:	f04f 0b00 	mov.w	fp, #0
200009fa:	4680      	mov	r8, r0
200009fc:	465e      	mov	r6, fp
200009fe:	f8cd b004 	str.w	fp, [sp, #4]
20000a02:	f8cd b008 	str.w	fp, [sp, #8]
20000a06:	782b      	ldrb	r3, [r5, #0]
20000a08:	2b26      	cmp	r3, #38	@ 0x26
20000a0a:	f000 80e5 	beq.w	20000bd8 <oled_display_string+0x1f8>
20000a0e:	4a7d      	ldr	r2, [pc, #500]	@ (20000c04 <oled_display_string+0x224>)
20000a10:	3b20      	subs	r3, #32
20000a12:	eb03 0383 	add.w	r3, r3, r3, lsl #2
20000a16:	eb02 0903 	add.w	r9, r2, r3
20000a1a:	f105 0a01 	add.w	sl, r5, #1
20000a1e:	210e      	movs	r1, #14
20000a20:	f04f 0b01 	mov.w	fp, #1
20000a24:	ec4b 1044 	gpioc_bit_oe_put r1, fp
20000a28:	f04f 0400 	mov.w	r4, #0
20000a2c:	ec44 1040 	gpioc_bit_out_put r1, r4
20000a30:	2001      	movs	r0, #1
20000a32:	2100      	movs	r1, #0
20000a34:	f001 f878 	bl	20001b28 <sleep_us>
20000a38:	210f      	movs	r1, #15
20000a3a:	ec4b 1044 	gpioc_bit_oe_put r1, fp
20000a3e:	ec44 1040 	gpioc_bit_out_put r1, r4
20000a42:	2100      	movs	r1, #0
20000a44:	2001      	movs	r0, #1
20000a46:	f001 f86f 	bl	20001b28 <sleep_us>
20000a4a:	7938      	ldrb	r0, [r7, #4]
20000a4c:	f109 0405 	add.w	r4, r9, #5
20000a50:	0040      	lsls	r0, r0, #1
20000a52:	f000 00fe 	and.w	r0, r0, #254	@ 0xfe
20000a56:	f7ff feaf 	bl	200007b8 <i2c_send_byte.constprop.0>
20000a5a:	2040      	movs	r0, #64	@ 0x40
20000a5c:	f7ff feac 	bl	200007b8 <i2c_send_byte.constprop.0>
20000a60:	f819 0b01 	ldrb.w	r0, [r9], #1
20000a64:	f7ff fea8 	bl	200007b8 <i2c_send_byte.constprop.0>
20000a68:	45a1      	cmp	r9, r4
20000a6a:	d1f9      	bne.n	20000a60 <oled_display_string+0x80>
20000a6c:	240f      	movs	r4, #15
20000a6e:	f04f 0300 	mov.w	r3, #0
20000a72:	ec43 4044 	gpioc_bit_oe_put r4, r3
20000a76:	2001      	movs	r0, #1
20000a78:	2100      	movs	r1, #0
20000a7a:	f001 f855 	bl	20001b28 <sleep_us>
20000a7e:	f04f 090e 	mov.w	r9, #14
20000a82:	f04f 0300 	mov.w	r3, #0
20000a86:	ec43 9044 	gpioc_bit_oe_put r9, r3
20000a8a:	2001      	movs	r0, #1
20000a8c:	2100      	movs	r1, #0
20000a8e:	f001 f84b 	bl	20001b28 <sleep_us>
20000a92:	786a      	ldrb	r2, [r5, #1]
20000a94:	2a2e      	cmp	r2, #46	@ 0x2e
20000a96:	d05e      	beq.n	20000b56 <oled_display_string+0x176>
20000a98:	9b01      	ldr	r3, [sp, #4]
20000a9a:	b113      	cbz	r3, 20000aa2 <oled_display_string+0xc2>
20000a9c:	9b02      	ldr	r3, [sp, #8]
20000a9e:	2b03      	cmp	r3, #3
20000aa0:	d044      	beq.n	20000b2c <oled_display_string+0x14c>
20000aa2:	2400      	movs	r4, #0
20000aa4:	230e      	movs	r3, #14
20000aa6:	f04f 0501 	mov.w	r5, #1
20000aaa:	f8ad 4014 	strh.w	r4, [sp, #20]
20000aae:	f88d 4016 	strb.w	r4, [sp, #22]
20000ab2:	ec45 3044 	gpioc_bit_oe_put r3, r5
20000ab6:	ec44 3040 	gpioc_bit_out_put r3, r4
20000aba:	2001      	movs	r0, #1
20000abc:	2100      	movs	r1, #0
20000abe:	f001 f833 	bl	20001b28 <sleep_us>
20000ac2:	230f      	movs	r3, #15
20000ac4:	ec45 3044 	gpioc_bit_oe_put r3, r5
20000ac8:	ec44 3040 	gpioc_bit_out_put r3, r4
20000acc:	2100      	movs	r1, #0
20000ace:	2001      	movs	r0, #1
20000ad0:	f001 f82a 	bl	20001b28 <sleep_us>
20000ad4:	7938      	ldrb	r0, [r7, #4]
20000ad6:	ac05      	add	r4, sp, #20
20000ad8:	0040      	lsls	r0, r0, #1
20000ada:	f000 00fe 	and.w	r0, r0, #254	@ 0xfe
20000ade:	f7ff fe6b 	bl	200007b8 <i2c_send_byte.constprop.0>
20000ae2:	2040      	movs	r0, #64	@ 0x40
20000ae4:	f7ff fe68 	bl	200007b8 <i2c_send_byte.constprop.0>
20000ae8:	f10d 0517 	add.w	r5, sp, #23
20000aec:	f814 0b01 	ldrb.w	r0, [r4], #1
20000af0:	f7ff fe62 	bl	200007b8 <i2c_send_byte.constprop.0>
20000af4:	42ac      	cmp	r4, r5
20000af6:	d1f9      	bne.n	20000aec <oled_display_string+0x10c>
20000af8:	230f      	movs	r3, #15
20000afa:	f04f 0400 	mov.w	r4, #0
20000afe:	ec44 3044 	gpioc_bit_oe_put r3, r4
20000b02:	2001      	movs	r0, #1
20000b04:	2100      	movs	r1, #0
20000b06:	f001 f80f 	bl	20001b28 <sleep_us>
20000b0a:	230e      	movs	r3, #14
20000b0c:	ec44 3044 	gpioc_bit_oe_put r3, r4
20000b10:	2001      	movs	r0, #1
20000b12:	2100      	movs	r1, #0
20000b14:	f001 f808 	bl	20001b28 <sleep_us>
20000b18:	4655      	mov	r5, sl
20000b1a:	9b01      	ldr	r3, [sp, #4]
20000b1c:	b9bb      	cbnz	r3, 20000b4e <oled_display_string+0x16e>
20000b1e:	3601      	adds	r6, #1
20000b20:	4546      	cmp	r6, r8
20000b22:	f6ff af70 	blt.w	20000a06 <oled_display_string+0x26>
20000b26:	b007      	add	sp, #28
20000b28:	e8bd 8ff0 	ldmia.w	sp!, {r4, r5, r6, r7, r8, r9, sl, fp, pc}
20000b2c:	f04f 0300 	mov.w	r3, #0
20000b30:	2200      	movs	r2, #0
20000b32:	4638      	mov	r0, r7
20000b34:	a905      	add	r1, sp, #20
20000b36:	f8ad 3014 	strh.w	r3, [sp, #20]
20000b3a:	f88d 3016 	strb.w	r3, [sp, #22]
20000b3e:	f7ff fe8b 	bl	20000858 <oled_send_cmd.constprop.1>
20000b42:	2200      	movs	r2, #0
20000b44:	4638      	mov	r0, r7
20000b46:	a905      	add	r1, sp, #20
20000b48:	f7ff fe86 	bl	20000858 <oled_send_cmd.constprop.1>
20000b4c:	4655      	mov	r5, sl
20000b4e:	9b02      	ldr	r3, [sp, #8]
20000b50:	3301      	adds	r3, #1
20000b52:	9302      	str	r3, [sp, #8]
20000b54:	e7e3      	b.n	20000b1e <oled_display_string+0x13e>
20000b56:	4a2c      	ldr	r2, [pc, #176]	@ (20000c08 <oled_display_string+0x228>)
20000b58:	9205      	str	r2, [sp, #20]
20000b5a:	f04f 0201 	mov.w	r2, #1
20000b5e:	ec42 9044 	gpioc_bit_oe_put r9, r2
20000b62:	f04f 0300 	mov.w	r3, #0
20000b66:	9203      	str	r2, [sp, #12]
20000b68:	ec43 9040 	gpioc_bit_out_put r9, r3
20000b6c:	2001      	movs	r0, #1
20000b6e:	2100      	movs	r1, #0
20000b70:	f000 ffda 	bl	20001b28 <sleep_us>
20000b74:	9a03      	ldr	r2, [sp, #12]
20000b76:	ec42 4044 	gpioc_bit_oe_put r4, r2
20000b7a:	f04f 0300 	mov.w	r3, #0
20000b7e:	ec43 4040 	gpioc_bit_out_put r4, r3
20000b82:	2100      	movs	r1, #0
20000b84:	2001      	movs	r0, #1
20000b86:	f000 ffcf 	bl	20001b28 <sleep_us>
20000b8a:	7938      	ldrb	r0, [r7, #4]
20000b8c:	ac05      	add	r4, sp, #20
20000b8e:	0040      	lsls	r0, r0, #1
20000b90:	f000 00fe 	and.w	r0, r0, #254	@ 0xfe
20000b94:	f7ff fe10 	bl	200007b8 <i2c_send_byte.constprop.0>
20000b98:	2040      	movs	r0, #64	@ 0x40
20000b9a:	f7ff fe0d 	bl	200007b8 <i2c_send_byte.constprop.0>
20000b9e:	f814 0b01 	ldrb.w	r0, [r4], #1
20000ba2:	f7ff fe09 	bl	200007b8 <i2c_send_byte.constprop.0>
20000ba6:	ab06      	add	r3, sp, #24
20000ba8:	429c      	cmp	r4, r3
20000baa:	d1f8      	bne.n	20000b9e <oled_display_string+0x1be>
20000bac:	230f      	movs	r3, #15
20000bae:	f04f 0400 	mov.w	r4, #0
20000bb2:	ec44 3044 	gpioc_bit_oe_put r3, r4
20000bb6:	2001      	movs	r0, #1
20000bb8:	2100      	movs	r1, #0
20000bba:	f000 ffb5 	bl	20001b28 <sleep_us>
20000bbe:	230e      	movs	r3, #14
20000bc0:	ec44 3044 	gpioc_bit_oe_put r3, r4
20000bc4:	2001      	movs	r0, #1
20000bc6:	2100      	movs	r1, #0
20000bc8:	f000 ffae 	bl	20001b28 <sleep_us>
20000bcc:	78ab      	ldrb	r3, [r5, #2]
20000bce:	b1b3      	cbz	r3, 20000bfe <oled_display_string+0x21e>
20000bd0:	3502      	adds	r5, #2
20000bd2:	f108 38ff 	add.w	r8, r8, #4294967295	@ 0xffffffff
20000bd6:	e7a0      	b.n	20000b1a <oled_display_string+0x13a>
20000bd8:	4b0c      	ldr	r3, [pc, #48]	@ (20000c0c <oled_display_string+0x22c>)
20000bda:	4638      	mov	r0, r7
20000bdc:	6819      	ldr	r1, [r3, #0]
20000bde:	4b0c      	ldr	r3, [pc, #48]	@ (20000c10 <oled_display_string+0x230>)
20000be0:	3902      	subs	r1, #2
20000be2:	681a      	ldr	r2, [r3, #0]
20000be4:	eb01 01c6 	add.w	r1, r1, r6, lsl #3
20000be8:	f7ff fe8c 	bl	20000904 <oled_set_xy>
20000bec:	2301      	movs	r3, #1
20000bee:	2200      	movs	r2, #0
20000bf0:	f108 38ff 	add.w	r8, r8, #4294967295	@ 0xffffffff
20000bf4:	e9cd 3201 	strd	r3, r2, [sp, #4]
20000bf8:	3501      	adds	r5, #1
20000bfa:	782b      	ldrb	r3, [r5, #0]
20000bfc:	e707      	b.n	20000a0e <oled_display_string+0x2e>
20000bfe:	4655      	mov	r5, sl
20000c00:	e7e7      	b.n	20000bd2 <oled_display_string+0x1f2>
20000c02:	bf00      	nop
20000c04:	20008594 	.word	0x20008594
20000c08:	00181800 	.word	0x00181800
20000c0c:	20009ad4 	.word	0x20009ad4
20000c10:	20009ad8 	.word	0x20009ad8

20000c14 <oled_clear_display>:
20000c14:	e92d 4ff0 	stmdb	sp!, {r4, r5, r6, r7, r8, r9, sl, fp, lr}
20000c18:	f04f 0b00 	mov.w	fp, #0
20000c1c:	f04f 080f 	mov.w	r8, #15
20000c20:	f04f 090e 	mov.w	r9, #14
20000c24:	f04f 0a01 	mov.w	sl, #1
20000c28:	465f      	mov	r7, fp
20000c2a:	b085      	sub	sp, #20
20000c2c:	4e3b      	ldr	r6, [pc, #236]	@ (20000d1c <oled_clear_display+0x108>)
20000c2e:	9001      	str	r0, [sp, #4]
20000c30:	eb0d 0508 	add.w	r5, sp, r8
20000c34:	2200      	movs	r2, #0
20000c36:	ea4f 03eb 	mov.w	r3, fp, asr #3
20000c3a:	3b50      	subs	r3, #80	@ 0x50
20000c3c:	f88d 300c 	strb.w	r3, [sp, #12]
20000c40:	4b37      	ldr	r3, [pc, #220]	@ (20000d20 <oled_clear_display+0x10c>)
20000c42:	f04f 0400 	mov.w	r4, #0
20000c46:	601a      	str	r2, [r3, #0]
20000c48:	4b36      	ldr	r3, [pc, #216]	@ (20000d24 <oled_clear_display+0x110>)
20000c4a:	f88d 400d 	strb.w	r4, [sp, #13]
20000c4e:	f8c3 b000 	str.w	fp, [r3]
20000c52:	2310      	movs	r3, #16
20000c54:	f88d 300e 	strb.w	r3, [sp, #14]
20000c58:	ec4a 9044 	gpioc_bit_oe_put r9, sl
20000c5c:	ec44 9040 	gpioc_bit_out_put r9, r4
20000c60:	2001      	movs	r0, #1
20000c62:	2100      	movs	r1, #0
20000c64:	f000 ff60 	bl	20001b28 <sleep_us>
20000c68:	ec4a 8044 	gpioc_bit_oe_put r8, sl
20000c6c:	ec44 8040 	gpioc_bit_out_put r8, r4
20000c70:	2001      	movs	r0, #1
20000c72:	2100      	movs	r1, #0
20000c74:	f000 ff58 	bl	20001b28 <sleep_us>
20000c78:	9b01      	ldr	r3, [sp, #4]
20000c7a:	ac03      	add	r4, sp, #12
20000c7c:	7918      	ldrb	r0, [r3, #4]
20000c7e:	0040      	lsls	r0, r0, #1
20000c80:	f000 00fe 	and.w	r0, r0, #254	@ 0xfe
20000c84:	f7ff fd98 	bl	200007b8 <i2c_send_byte.constprop.0>
20000c88:	2080      	movs	r0, #128	@ 0x80
20000c8a:	f7ff fd95 	bl	200007b8 <i2c_send_byte.constprop.0>
20000c8e:	f814 0b01 	ldrb.w	r0, [r4], #1
20000c92:	f7ff fd91 	bl	200007b8 <i2c_send_byte.constprop.0>
20000c96:	42ac      	cmp	r4, r5
20000c98:	d1f6      	bne.n	20000c88 <oled_clear_display+0x74>
20000c9a:	ec47 8044 	gpioc_bit_oe_put r8, r7
20000c9e:	2001      	movs	r0, #1
20000ca0:	2100      	movs	r1, #0
20000ca2:	f000 ff41 	bl	20001b28 <sleep_us>
20000ca6:	ec47 9044 	gpioc_bit_oe_put r9, r7
20000caa:	2001      	movs	r0, #1
20000cac:	2100      	movs	r1, #0
20000cae:	f000 ff3b 	bl	20001b28 <sleep_us>
20000cb2:	ec4a 9044 	gpioc_bit_oe_put r9, sl
20000cb6:	ec47 9040 	gpioc_bit_out_put r9, r7
20000cba:	2001      	movs	r0, #1
20000cbc:	2100      	movs	r1, #0
20000cbe:	f000 ff33 	bl	20001b28 <sleep_us>
20000cc2:	ec4a 8044 	gpioc_bit_oe_put r8, sl
20000cc6:	ec47 8040 	gpioc_bit_out_put r8, r7
20000cca:	2100      	movs	r1, #0
20000ccc:	2001      	movs	r0, #1
20000cce:	f000 ff2b 	bl	20001b28 <sleep_us>
20000cd2:	9b01      	ldr	r3, [sp, #4]
20000cd4:	2480      	movs	r4, #128	@ 0x80
20000cd6:	7918      	ldrb	r0, [r3, #4]
20000cd8:	0040      	lsls	r0, r0, #1
20000cda:	f000 00fe 	and.w	r0, r0, #254	@ 0xfe
20000cde:	f7ff fd6b 	bl	200007b8 <i2c_send_byte.constprop.0>
20000ce2:	2040      	movs	r0, #64	@ 0x40
20000ce4:	f7ff fd68 	bl	200007b8 <i2c_send_byte.constprop.0>
20000ce8:	7830      	ldrb	r0, [r6, #0]
20000cea:	f7ff fd65 	bl	200007b8 <i2c_send_byte.constprop.0>
20000cee:	3c01      	subs	r4, #1
20000cf0:	d1fa      	bne.n	20000ce8 <oled_clear_display+0xd4>
20000cf2:	ec47 8044 	gpioc_bit_oe_put r8, r7
20000cf6:	2001      	movs	r0, #1
20000cf8:	2100      	movs	r1, #0
20000cfa:	f000 ff15 	bl	20001b28 <sleep_us>
20000cfe:	ec47 9044 	gpioc_bit_oe_put r9, r7
20000d02:	2001      	movs	r0, #1
20000d04:	2100      	movs	r1, #0
20000d06:	f10b 0b08 	add.w	fp, fp, #8
20000d0a:	f000 ff0d 	bl	20001b28 <sleep_us>
20000d0e:	f1bb 0f40 	cmp.w	fp, #64	@ 0x40
20000d12:	d18f      	bne.n	20000c34 <oled_clear_display+0x20>
20000d14:	b005      	add	sp, #20
20000d16:	e8bd 8ff0 	ldmia.w	sp!, {r4, r5, r6, r7, r8, r9, sl, fp, pc}
20000d1a:	bf00      	nop
20000d1c:	20019b6d 	.word	0x20019b6d
20000d20:	20009ad4 	.word	0x20009ad4
20000d24:	20009ad8 	.word	0x20009ad8

20000d28 <oled_setup>:
20000d28:	e92d 41f0 	stmdb	sp!, {r4, r5, r6, r7, r8, lr}
20000d2c:	4680      	mov	r8, r0
20000d2e:	260e      	movs	r6, #14
20000d30:	f04f 0701 	mov.w	r7, #1
20000d34:	ec47 6044 	gpioc_bit_oe_put r6, r7
20000d38:	250f      	movs	r5, #15
20000d3a:	ec47 5044 	gpioc_bit_oe_put r5, r7
20000d3e:	f04f 0400 	mov.w	r4, #0
20000d42:	ec44 6040 	gpioc_bit_out_put r6, r4
20000d46:	ec44 5040 	gpioc_bit_out_put r5, r4
20000d4a:	ec47 6044 	gpioc_bit_oe_put r6, r7
20000d4e:	ec44 6040 	gpioc_bit_out_put r6, r4
20000d52:	2001      	movs	r0, #1
20000d54:	2100      	movs	r1, #0
20000d56:	f000 fee7 	bl	20001b28 <sleep_us>
20000d5a:	ec47 5044 	gpioc_bit_oe_put r5, r7
20000d5e:	ec44 5040 	gpioc_bit_out_put r5, r4
20000d62:	2001      	movs	r0, #1
20000d64:	2100      	movs	r1, #0
20000d66:	f000 fedf 	bl	20001b28 <sleep_us>
20000d6a:	ec44 5044 	gpioc_bit_oe_put r5, r4
20000d6e:	2001      	movs	r0, #1
20000d70:	2100      	movs	r1, #0
20000d72:	f000 fed9 	bl	20001b28 <sleep_us>
20000d76:	ec44 6044 	gpioc_bit_oe_put r6, r4
20000d7a:	2001      	movs	r0, #1
20000d7c:	2100      	movs	r1, #0
20000d7e:	f000 fed3 	bl	20001b28 <sleep_us>
20000d82:	ec47 6044 	gpioc_bit_oe_put r6, r7
20000d86:	ec44 6040 	gpioc_bit_out_put r6, r4
20000d8a:	2001      	movs	r0, #1
20000d8c:	2100      	movs	r1, #0
20000d8e:	f000 fecb 	bl	20001b28 <sleep_us>
20000d92:	ec47 5044 	gpioc_bit_oe_put r5, r7
20000d96:	ec44 5040 	gpioc_bit_out_put r5, r4
20000d9a:	2001      	movs	r0, #1
20000d9c:	2100      	movs	r1, #0
20000d9e:	f000 fec3 	bl	20001b28 <sleep_us>
20000da2:	f898 0004 	ldrb.w	r0, [r8, #4]
20000da6:	4c13      	ldr	r4, [pc, #76]	@ (20000df4 <oled_setup+0xcc>)
20000da8:	0040      	lsls	r0, r0, #1
20000daa:	f000 00fe 	and.w	r0, r0, #254	@ 0xfe
20000dae:	f7ff fd03 	bl	200007b8 <i2c_send_byte.constprop.0>
20000db2:	f104 051e 	add.w	r5, r4, #30
20000db6:	2080      	movs	r0, #128	@ 0x80
20000db8:	f7ff fcfe 	bl	200007b8 <i2c_send_byte.constprop.0>
20000dbc:	f814 0b01 	ldrb.w	r0, [r4], #1
20000dc0:	f7ff fcfa 	bl	200007b8 <i2c_send_byte.constprop.0>
20000dc4:	42ac      	cmp	r4, r5
20000dc6:	d1f6      	bne.n	20000db6 <oled_setup+0x8e>
20000dc8:	230f      	movs	r3, #15
20000dca:	f04f 0400 	mov.w	r4, #0
20000dce:	ec44 3044 	gpioc_bit_oe_put r3, r4
20000dd2:	2001      	movs	r0, #1
20000dd4:	2100      	movs	r1, #0
20000dd6:	f000 fea7 	bl	20001b28 <sleep_us>
20000dda:	230e      	movs	r3, #14
20000ddc:	ec44 3044 	gpioc_bit_oe_put r3, r4
20000de0:	2001      	movs	r0, #1
20000de2:	2100      	movs	r1, #0
20000de4:	f000 fea0 	bl	20001b28 <sleep_us>
20000de8:	4640      	mov	r0, r8
20000dea:	e8bd 41f0 	ldmia.w	sp!, {r4, r5, r6, r7, r8, lr}
20000dee:	f7ff bf11 	b.w	20000c14 <oled_clear_display>
20000df2:	bf00      	nop
20000df4:	20008774 	.word	0x20008774

20000df8 <gpio_init>:
20000df8:	f04f 0300 	mov.w	r3, #0
20000dfc:	b500      	push	{lr}
20000dfe:	ec43 0044 	gpioc_bit_oe_put r0, r3
20000e02:	ec43 0040 	gpioc_bit_out_put r0, r3
20000e06:	f04f 0e05 	mov.w	lr, #5
20000e0a:	f44f 7c80 	mov.w	ip, #256	@ 0x100
20000e0e:	4b0c      	ldr	r3, [pc, #48]	@ (20000e40 <gpio_init+0x48>)
20000e10:	00c2      	lsls	r2, r0, #3
20000e12:	f853 1020 	ldr.w	r1, [r3, r0, lsl #2]
20000e16:	eb03 0080 	add.w	r0, r3, r0, lsl #2
20000e1a:	f081 0140 	eor.w	r1, r1, #64	@ 0x40
20000e1e:	f102 4380 	add.w	r3, r2, #1073741824	@ 0x40000000
20000e22:	f503 3320 	add.w	r3, r3, #163840	@ 0x28000
20000e26:	f001 02c0 	and.w	r2, r1, #192	@ 0xc0
20000e2a:	f500 5180 	add.w	r1, r0, #4096	@ 0x1000
20000e2e:	f500 5040 	add.w	r0, r0, #12288	@ 0x3000
20000e32:	600a      	str	r2, [r1, #0]
20000e34:	f8c3 e004 	str.w	lr, [r3, #4]
20000e38:	f8c0 c000 	str.w	ip, [r0]
20000e3c:	bd00      	pop	{pc}
20000e3e:	bf00      	nop
20000e40:	40038004 	.word	0x40038004

20000e44 <panic>:
20000e44:	b40f      	push	{r0, r1, r2, r3}
20000e46:	b500      	push	{lr}
20000e48:	4808      	ldr	r0, [pc, #32]	@ (20000e6c <panic+0x28>)
20000e4a:	b083      	sub	sp, #12
20000e4c:	f003 fae0 	bl	20004410 <__wrap_puts>
20000e50:	9b04      	ldr	r3, [sp, #16]
20000e52:	b13b      	cbz	r3, 20000e64 <panic+0x20>
20000e54:	a905      	add	r1, sp, #20
20000e56:	4618      	mov	r0, r3
20000e58:	9101      	str	r1, [sp, #4]
20000e5a:	f003 f8ef 	bl	2000403c <weak_raw_vprintf>
20000e5e:	4804      	ldr	r0, [pc, #16]	@ (20000e70 <panic+0x2c>)
20000e60:	f003 fad6 	bl	20004410 <__wrap_puts>
20000e64:	2001      	movs	r0, #1
20000e66:	f003 f901 	bl	2000406c <_exit>
20000e6a:	bf00      	nop
20000e6c:	20008414 	.word	0x20008414
20000e70:	20008424 	.word	0x20008424

20000e74 <hw_claim_or_assert>:
20000e74:	b570      	push	{r4, r5, r6, lr}
20000e76:	4616      	mov	r6, r2
20000e78:	f3ef 8410 	mrs	r4, PRIMASK
20000e7c:	b672      	cpsid	i
20000e7e:	f8df e048 	ldr.w	lr, [pc, #72]	@ 20000ec8 <hw_claim_or_assert+0x54>
20000e82:	e8de 2fcf 	ldaexb	r2, [lr]
20000e86:	2301      	movs	r3, #1
20000e88:	2a00      	cmp	r2, #0
20000e8a:	d1fa      	bne.n	20000e82 <hw_claim_or_assert+0xe>
20000e8c:	e8ce 3f42 	strexb	r2, r3, [lr]
20000e90:	2a00      	cmp	r2, #0
20000e92:	d1f6      	bne.n	20000e82 <hw_claim_or_assert+0xe>
20000e94:	f3bf 8f5f 	dmb	sy
20000e98:	2301      	movs	r3, #1
20000e9a:	f001 0c07 	and.w	ip, r1, #7
20000e9e:	08ca      	lsrs	r2, r1, #3
20000ea0:	fa03 f30c 	lsl.w	r3, r3, ip
20000ea4:	f810 c002 	ldrb.w	ip, [r0, r2]
20000ea8:	ea1c 0503 	ands.w	r5, ip, r3
20000eac:	d108      	bne.n	20000ec0 <hw_claim_or_assert+0x4c>
20000eae:	ea4c 0c03 	orr.w	ip, ip, r3
20000eb2:	f800 c002 	strb.w	ip, [r0, r2]
20000eb6:	e8ce 5f8f 	stlb	r5, [lr]
20000eba:	f384 8810 	msr	PRIMASK, r4
20000ebe:	bd70      	pop	{r4, r5, r6, pc}
20000ec0:	4630      	mov	r0, r6
20000ec2:	f7ff ffbf 	bl	20000e44 <panic>
20000ec6:	bf00      	nop
20000ec8:	2000921f 	.word	0x2000921f

20000ecc <hw_claim_unused_from_range>:
20000ecc:	b5f8      	push	{r3, r4, r5, r6, r7, lr}
20000ece:	460f      	mov	r7, r1
20000ed0:	4619      	mov	r1, r3
20000ed2:	f3ef 8610 	mrs	r6, PRIMASK
20000ed6:	b672      	cpsid	i
20000ed8:	4d1c      	ldr	r5, [pc, #112]	@ (20000f4c <hw_claim_unused_from_range+0x80>)
20000eda:	e8d5 4fcf 	ldaexb	r4, [r5]
20000ede:	2301      	movs	r3, #1
20000ee0:	2c00      	cmp	r4, #0
20000ee2:	d1fa      	bne.n	20000eda <hw_claim_unused_from_range+0xe>
20000ee4:	e8c5 3f44 	strexb	r4, r3, [r5]
20000ee8:	2c00      	cmp	r4, #0
20000eea:	d1f6      	bne.n	20000eda <hw_claim_unused_from_range+0xe>
20000eec:	f3bf 8f5f 	dmb	sy
20000ef0:	428a      	cmp	r2, r1
20000ef2:	d81b      	bhi.n	20000f2c <hw_claim_unused_from_range+0x60>
20000ef4:	2401      	movs	r4, #1
20000ef6:	e002      	b.n	20000efe <hw_claim_unused_from_range+0x32>
20000ef8:	3201      	adds	r2, #1
20000efa:	4291      	cmp	r1, r2
20000efc:	d322      	bcc.n	20000f44 <hw_claim_unused_from_range+0x78>
20000efe:	08d3      	lsrs	r3, r2, #3
20000f00:	f810 e003 	ldrb.w	lr, [r0, r3]
20000f04:	f002 0c07 	and.w	ip, r2, #7
20000f08:	fa04 fc0c 	lsl.w	ip, r4, ip
20000f0c:	ea1e 0f0c 	tst.w	lr, ip
20000f10:	d1f2      	bne.n	20000ef8 <hw_claim_unused_from_range+0x2c>
20000f12:	ea4e 0e0c 	orr.w	lr, lr, ip
20000f16:	f800 e003 	strb.w	lr, [r0, r3]
20000f1a:	4610      	mov	r0, r2
20000f1c:	2300      	movs	r3, #0
20000f1e:	e8c5 3f8f 	stlb	r3, [r5]
20000f22:	f386 8810 	msr	PRIMASK, r6
20000f26:	4298      	cmp	r0, r3
20000f28:	db07      	blt.n	20000f3a <hw_claim_unused_from_range+0x6e>
20000f2a:	bdf8      	pop	{r3, r4, r5, r6, r7, pc}
20000f2c:	2300      	movs	r3, #0
20000f2e:	e8c5 3f8f 	stlb	r3, [r5]
20000f32:	f386 8810 	msr	PRIMASK, r6
20000f36:	f04f 30ff 	mov.w	r0, #4294967295	@ 0xffffffff
20000f3a:	2f00      	cmp	r7, #0
20000f3c:	d0f5      	beq.n	20000f2a <hw_claim_unused_from_range+0x5e>
20000f3e:	9806      	ldr	r0, [sp, #24]
20000f40:	f7ff ff80 	bl	20000e44 <panic>
20000f44:	f04f 30ff 	mov.w	r0, #4294967295	@ 0xffffffff
20000f48:	e7e8      	b.n	20000f1c <hw_claim_unused_from_range+0x50>
20000f4a:	bf00      	nop
20000f4c:	2000921f 	.word	0x2000921f

20000f50 <next_striped_spin_lock_num>:
20000f50:	4a04      	ldr	r2, [pc, #16]	@ (20000f64 <next_striped_spin_lock_num+0x14>)
20000f52:	7810      	ldrb	r0, [r2, #0]
20000f54:	1c43      	adds	r3, r0, #1
20000f56:	b2db      	uxtb	r3, r3
20000f58:	2b18      	cmp	r3, #24
20000f5a:	bf28      	it	cs
20000f5c:	2310      	movcs	r3, #16
20000f5e:	7013      	strb	r3, [r2, #0]
20000f60:	4770      	bx	lr
20000f62:	bf00      	nop
20000f64:	20008c28 	.word	0x20008c28

20000f68 <spin_lock_claim_unused>:
20000f68:	b500      	push	{lr}
20000f6a:	f8df c01c 	ldr.w	ip, [pc, #28]	@ 20000f88 <spin_lock_claim_unused+0x20>
20000f6e:	b083      	sub	sp, #12
20000f70:	4601      	mov	r1, r0
20000f72:	231f      	movs	r3, #31
20000f74:	2218      	movs	r2, #24
20000f76:	f8cd c000 	str.w	ip, [sp]
20000f7a:	4802      	ldr	r0, [pc, #8]	@ (20000f84 <spin_lock_claim_unused+0x1c>)
20000f7c:	f7ff ffa6 	bl	20000ecc <hw_claim_unused_from_range>
20000f80:	b003      	add	sp, #12
20000f82:	bd00      	pop	{pc}
20000f84:	2000966c 	.word	0x2000966c
20000f88:	20008428 	.word	0x20008428

20000f8c <spinlock_set_extexclall>:
20000f8c:	f04f 22e0 	mov.w	r2, #3758153728	@ 0xe000e000
20000f90:	6893      	ldr	r3, [r2, #8]
20000f92:	f043 5300 	orr.w	r3, r3, #536870912	@ 0x20000000
20000f96:	6093      	str	r3, [r2, #8]
20000f98:	4770      	bx	lr
20000f9a:	bf00      	nop

20000f9c <spin_locks_reset>:
20000f9c:	2100      	movs	r1, #0
20000f9e:	4b04      	ldr	r3, [pc, #16]	@ (20000fb0 <spin_locks_reset+0x14>)
20000fa0:	f103 0220 	add.w	r2, r3, #32
20000fa4:	e8c3 1f8f 	stlb	r1, [r3]
20000fa8:	3301      	adds	r3, #1
20000faa:	4293      	cmp	r3, r2
20000fac:	d1fa      	bne.n	20000fa4 <spin_locks_reset+0x8>
20000fae:	4770      	bx	lr
20000fb0:	20009214 	.word	0x20009214

20000fb4 <runtime_init_per_core_irq_priorities>:
20000fb4:	f04f 23e0 	mov.w	r3, #3758153728	@ 0xe000e000
20000fb8:	f04f 3280 	mov.w	r2, #2155905152	@ 0x80808080
20000fbc:	f8c3 2400 	str.w	r2, [r3, #1024]	@ 0x400
20000fc0:	f8c3 2404 	str.w	r2, [r3, #1028]	@ 0x404
20000fc4:	f8c3 2408 	str.w	r2, [r3, #1032]	@ 0x408
20000fc8:	f8c3 240c 	str.w	r2, [r3, #1036]	@ 0x40c
20000fcc:	f8c3 2410 	str.w	r2, [r3, #1040]	@ 0x410
20000fd0:	f8c3 2414 	str.w	r2, [r3, #1044]	@ 0x414
20000fd4:	f8c3 2418 	str.w	r2, [r3, #1048]	@ 0x418
20000fd8:	f8c3 241c 	str.w	r2, [r3, #1052]	@ 0x41c
20000fdc:	f8c3 2420 	str.w	r2, [r3, #1056]	@ 0x420
20000fe0:	f8c3 2424 	str.w	r2, [r3, #1060]	@ 0x424
20000fe4:	f8c3 2428 	str.w	r2, [r3, #1064]	@ 0x428
20000fe8:	f8c3 242c 	str.w	r2, [r3, #1068]	@ 0x42c
20000fec:	f8c3 2430 	str.w	r2, [r3, #1072]	@ 0x430
20000ff0:	4770      	bx	lr
20000ff2:	bf00      	nop

20000ff4 <irq_set_enabled>:
20000ff4:	2301      	movs	r3, #1
20000ff6:	f000 021f 	and.w	r2, r0, #31
20000ffa:	4093      	lsls	r3, r2
20000ffc:	0940      	lsrs	r0, r0, #5
20000ffe:	b141      	cbz	r1, 20001012 <irq_set_enabled+0x1e>
20001000:	0080      	lsls	r0, r0, #2
20001002:	f100 4060 	add.w	r0, r0, #3758096384	@ 0xe0000000
20001006:	f500 4061 	add.w	r0, r0, #57600	@ 0xe100
2000100a:	f8c0 3180 	str.w	r3, [r0, #384]	@ 0x180
2000100e:	6003      	str	r3, [r0, #0]
20001010:	4770      	bx	lr
20001012:	4a02      	ldr	r2, [pc, #8]	@ (2000101c <irq_set_enabled+0x28>)
20001014:	3020      	adds	r0, #32
20001016:	f842 3020 	str.w	r3, [r2, r0, lsl #2]
2000101a:	4770      	bx	lr
2000101c:	e000e100 	.word	0xe000e100

20001020 <irq_is_enabled>:
20001020:	2301      	movs	r3, #1
20001022:	4a06      	ldr	r2, [pc, #24]	@ (2000103c <irq_is_enabled+0x1c>)
20001024:	0941      	lsrs	r1, r0, #5
20001026:	f852 2021 	ldr.w	r2, [r2, r1, lsl #2]
2000102a:	f000 001f 	and.w	r0, r0, #31
2000102e:	4083      	lsls	r3, r0
20001030:	4213      	tst	r3, r2
20001032:	bf14      	ite	ne
20001034:	2001      	movne	r0, #1
20001036:	2000      	moveq	r0, #0
20001038:	4770      	bx	lr
2000103a:	bf00      	nop
2000103c:	e000e100 	.word	0xe000e100

20001040 <irq_set_mask_enabled>:
20001040:	4b04      	ldr	r3, [pc, #16]	@ (20001054 <irq_set_mask_enabled+0x14>)
20001042:	b119      	cbz	r1, 2000104c <irq_set_mask_enabled+0xc>
20001044:	f8c3 0180 	str.w	r0, [r3, #384]	@ 0x180
20001048:	6018      	str	r0, [r3, #0]
2000104a:	4770      	bx	lr
2000104c:	f8c3 0080 	str.w	r0, [r3, #128]	@ 0x80
20001050:	4770      	bx	lr
20001052:	bf00      	nop
20001054:	e000e100 	.word	0xe000e100

20001058 <irq_set_pending>:
20001058:	2201      	movs	r2, #1
2000105a:	0943      	lsrs	r3, r0, #5
2000105c:	4903      	ldr	r1, [pc, #12]	@ (2000106c <irq_set_pending+0x14>)
2000105e:	f000 001f 	and.w	r0, r0, #31
20001062:	4082      	lsls	r2, r0
20001064:	3340      	adds	r3, #64	@ 0x40
20001066:	f841 2023 	str.w	r2, [r1, r3, lsl #2]
2000106a:	4770      	bx	lr
2000106c:	e000e100 	.word	0xe000e100

20001070 <irq_has_shared_handler>:
20001070:	4a05      	ldr	r2, [pc, #20]	@ (20001088 <irq_has_shared_handler+0x18>)
20001072:	3010      	adds	r0, #16
20001074:	6892      	ldr	r2, [r2, #8]
20001076:	4b05      	ldr	r3, [pc, #20]	@ (2000108c <irq_has_shared_handler+0x1c>)
20001078:	f852 0020 	ldr.w	r0, [r2, r0, lsl #2]
2000107c:	1ac0      	subs	r0, r0, r3
2000107e:	285f      	cmp	r0, #95	@ 0x5f
20001080:	bf8c      	ite	hi
20001082:	2000      	movhi	r0, #0
20001084:	2001      	movls	r0, #1
20001086:	4770      	bx	lr
20001088:	e000ed00 	.word	0xe000ed00
2000108c:	20008c2c 	.word	0x20008c2c

20001090 <irq_set_exclusive_handler>:
20001090:	b510      	push	{r4, lr}
20001092:	b082      	sub	sp, #8
20001094:	f3ef 8410 	mrs	r4, PRIMASK
20001098:	b672      	cpsid	i
2000109a:	4b16      	ldr	r3, [pc, #88]	@ (200010f4 <irq_set_exclusive_handler+0x64>)
2000109c:	e8d3 cfcf 	ldaexb	ip, [r3]
200010a0:	2201      	movs	r2, #1
200010a2:	f1bc 0f00 	cmp.w	ip, #0
200010a6:	d1f9      	bne.n	2000109c <irq_set_exclusive_handler+0xc>
200010a8:	e8c3 2f4c 	strexb	ip, r2, [r3]
200010ac:	f1bc 0f00 	cmp.w	ip, #0
200010b0:	d1f4      	bne.n	2000109c <irq_set_exclusive_handler+0xc>
200010b2:	f3bf 8f5f 	dmb	sy
200010b6:	4a10      	ldr	r2, [pc, #64]	@ (200010f8 <irq_set_exclusive_handler+0x68>)
200010b8:	3010      	adds	r0, #16
200010ba:	6892      	ldr	r2, [r2, #8]
200010bc:	f8df c03c 	ldr.w	ip, [pc, #60]	@ 200010fc <irq_set_exclusive_handler+0x6c>
200010c0:	f852 2020 	ldr.w	r2, [r2, r0, lsl #2]
200010c4:	4562      	cmp	r2, ip
200010c6:	d008      	beq.n	200010da <irq_set_exclusive_handler+0x4a>
200010c8:	4291      	cmp	r1, r2
200010ca:	d006      	beq.n	200010da <irq_set_exclusive_handler+0x4a>
200010cc:	e9cd 0100 	strd	r0, r1, [sp]
200010d0:	f001 f9f8 	bl	200024c4 <hard_assertion_failure>
200010d4:	9901      	ldr	r1, [sp, #4]
200010d6:	4b07      	ldr	r3, [pc, #28]	@ (200010f4 <irq_set_exclusive_handler+0x64>)
200010d8:	9800      	ldr	r0, [sp, #0]
200010da:	4a07      	ldr	r2, [pc, #28]	@ (200010f8 <irq_set_exclusive_handler+0x68>)
200010dc:	6892      	ldr	r2, [r2, #8]
200010de:	f842 1020 	str.w	r1, [r2, r0, lsl #2]
200010e2:	f3bf 8f5f 	dmb	sy
200010e6:	2200      	movs	r2, #0
200010e8:	e8c3 2f8f 	stlb	r2, [r3]
200010ec:	f384 8810 	msr	PRIMASK, r4
200010f0:	b002      	add	sp, #8
200010f2:	bd10      	pop	{r4, pc}
200010f4:	2000921d 	.word	0x2000921d
200010f8:	e000ed00 	.word	0xe000ed00
200010fc:	1000011d 	.word	0x1000011d

20001100 <irq_add_shared_handler>:
20001100:	e92d 4ff0 	stmdb	sp!, {r4, r5, r6, r7, r8, r9, sl, fp, lr}
20001104:	4606      	mov	r6, r0
20001106:	468a      	mov	sl, r1
20001108:	4615      	mov	r5, r2
2000110a:	b083      	sub	sp, #12
2000110c:	f3ef 8810 	mrs	r8, PRIMASK
20001110:	b672      	cpsid	i
20001112:	4f71      	ldr	r7, [pc, #452]	@ (200012d8 <irq_add_shared_handler+0x1d8>)
20001114:	e8d7 2fcf 	ldaexb	r2, [r7]
20001118:	2301      	movs	r3, #1
2000111a:	2a00      	cmp	r2, #0
2000111c:	d1fa      	bne.n	20001114 <irq_add_shared_handler+0x14>
2000111e:	e8c7 3f42 	strexb	r2, r3, [r7]
20001122:	2a00      	cmp	r2, #0
20001124:	d1f6      	bne.n	20001114 <irq_add_shared_handler+0x14>
20001126:	f3bf 8f5f 	dmb	sy
2000112a:	496c      	ldr	r1, [pc, #432]	@ (200012dc <irq_add_shared_handler+0x1dc>)
2000112c:	f991 2000 	ldrsb.w	r2, [r1]
20001130:	2a00      	cmp	r2, #0
20001132:	db7b      	blt.n	2000122c <irq_add_shared_handler+0x12c>
20001134:	486a      	ldr	r0, [pc, #424]	@ (200012e0 <irq_add_shared_handler+0x1e0>)
20001136:	eb02 0442 	add.w	r4, r2, r2, lsl #1
2000113a:	eb00 0384 	add.w	r3, r0, r4, lsl #2
2000113e:	f893 c006 	ldrb.w	ip, [r3, #6]
20001142:	3610      	adds	r6, #16
20001144:	f881 c000 	strb.w	ip, [r1]
20001148:	4966      	ldr	r1, [pc, #408]	@ (200012e4 <irq_add_shared_handler+0x1e4>)
2000114a:	00a4      	lsls	r4, r4, #2
2000114c:	6889      	ldr	r1, [r1, #8]
2000114e:	ea4f 0b42 	mov.w	fp, r2, lsl #1
20001152:	f851 e026 	ldr.w	lr, [r1, r6, lsl #2]
20001156:	ebae 0100 	sub.w	r1, lr, r0
2000115a:	295f      	cmp	r1, #95	@ 0x5f
2000115c:	d92e      	bls.n	200011bc <irq_add_shared_handler+0xbc>
2000115e:	4962      	ldr	r1, [pc, #392]	@ (200012e8 <irq_add_shared_handler+0x1e8>)
20001160:	458e      	cmp	lr, r1
20001162:	f040 8084 	bne.w	2000126e <irq_add_shared_handler+0x16e>
20001166:	f043 0e01 	orr.w	lr, r3, #1
2000116a:	4b60      	ldr	r3, [pc, #384]	@ (200012ec <irq_add_shared_handler+0x1ec>)
2000116c:	3402      	adds	r4, #2
2000116e:	4404      	add	r4, r0
20001170:	3b04      	subs	r3, #4
20001172:	1b1b      	subs	r3, r3, r4
20001174:	f3c3 034a 	ubfx	r3, r3, #1, #11
20001178:	ea6f 43c3 	mvn.w	r3, r3, lsl #19
2000117c:	f44f 4121 	mov.w	r1, #41216	@ 0xa100
20001180:	ea6f 43d3 	mvn.w	r3, r3, lsr #19
20001184:	445a      	add	r2, fp
20001186:	f820 1022 	strh.w	r1, [r0, r2, lsl #2]
2000118a:	eb00 0282 	add.w	r2, r0, r2, lsl #2
2000118e:	8053      	strh	r3, [r2, #2]
20001190:	f64b 5301 	movw	r3, #48385	@ 0xbd01
20001194:	8093      	strh	r3, [r2, #4]
20001196:	23ff      	movs	r3, #255	@ 0xff
20001198:	71d5      	strb	r5, [r2, #7]
2000119a:	f8c2 a008 	str.w	sl, [r2, #8]
2000119e:	7193      	strb	r3, [r2, #6]
200011a0:	4b50      	ldr	r3, [pc, #320]	@ (200012e4 <irq_add_shared_handler+0x1e4>)
200011a2:	689b      	ldr	r3, [r3, #8]
200011a4:	f843 e026 	str.w	lr, [r3, r6, lsl #2]
200011a8:	f3bf 8f5f 	dmb	sy
200011ac:	2300      	movs	r3, #0
200011ae:	e8c7 3f8f 	stlb	r3, [r7]
200011b2:	f388 8810 	msr	PRIMASK, r8
200011b6:	b003      	add	sp, #12
200011b8:	e8bd 8ff0 	ldmia.w	sp!, {r4, r5, r6, r7, r8, r9, sl, fp, pc}
200011bc:	f02e 0c01 	bic.w	ip, lr, #1
200011c0:	f89c 1007 	ldrb.w	r1, [ip, #7]
200011c4:	42a9      	cmp	r1, r5
200011c6:	d95a      	bls.n	2000127e <irq_add_shared_handler+0x17e>
200011c8:	46b1      	mov	r9, r6
200011ca:	9401      	str	r4, [sp, #4]
200011cc:	461e      	mov	r6, r3
200011ce:	e003      	b.n	200011d8 <irq_add_shared_handler+0xd8>
200011d0:	79cb      	ldrb	r3, [r1, #7]
200011d2:	42ab      	cmp	r3, r5
200011d4:	d930      	bls.n	20001238 <irq_add_shared_handler+0x138>
200011d6:	468c      	mov	ip, r1
200011d8:	f99c 4006 	ldrsb.w	r4, [ip, #6]
200011dc:	eb04 0144 	add.w	r1, r4, r4, lsl #1
200011e0:	2c00      	cmp	r4, #0
200011e2:	eb00 0181 	add.w	r1, r0, r1, lsl #2
200011e6:	daf3      	bge.n	200011d0 <irq_add_shared_handler+0xd0>
200011e8:	9400      	str	r4, [sp, #0]
200011ea:	f64b 5401 	movw	r4, #48385	@ 0xbd01
200011ee:	4633      	mov	r3, r6
200011f0:	464e      	mov	r6, r9
200011f2:	f10c 0904 	add.w	r9, ip, #4
200011f6:	3b04      	subs	r3, #4
200011f8:	eba3 0309 	sub.w	r3, r3, r9
200011fc:	f3c3 034a 	ubfx	r3, r3, #1, #11
20001200:	ea6f 43c3 	mvn.w	r3, r3, lsl #19
20001204:	ea6f 43d3 	mvn.w	r3, r3, lsr #19
20001208:	f8ac 3004 	strh.w	r3, [ip, #4]
2000120c:	4b38      	ldr	r3, [pc, #224]	@ (200012f0 <irq_add_shared_handler+0x1f0>)
2000120e:	eb0b 0102 	add.w	r1, fp, r2
20001212:	f88c 2006 	strb.w	r2, [ip, #6]
20001216:	f840 3021 	str.w	r3, [r0, r1, lsl #2]
2000121a:	9b00      	ldr	r3, [sp, #0]
2000121c:	eb00 0281 	add.w	r2, r0, r1, lsl #2
20001220:	8094      	strh	r4, [r2, #4]
20001222:	7193      	strb	r3, [r2, #6]
20001224:	71d5      	strb	r5, [r2, #7]
20001226:	f8c2 a008 	str.w	sl, [r2, #8]
2000122a:	e7b9      	b.n	200011a0 <irq_add_shared_handler+0xa0>
2000122c:	f001 f94a 	bl	200024c4 <hard_assertion_failure>
20001230:	492a      	ldr	r1, [pc, #168]	@ (200012dc <irq_add_shared_handler+0x1dc>)
20001232:	f991 2000 	ldrsb.w	r2, [r1]
20001236:	e77d      	b.n	20001134 <irq_add_shared_handler+0x34>
20001238:	f06f 0107 	mvn.w	r1, #7
2000123c:	9400      	str	r4, [sp, #0]
2000123e:	9c01      	ldr	r4, [sp, #4]
20001240:	4633      	mov	r3, r6
20001242:	1b0c      	subs	r4, r1, r4
20001244:	4661      	mov	r1, ip
20001246:	1a24      	subs	r4, r4, r0
20001248:	9401      	str	r4, [sp, #4]
2000124a:	f831 4f04 	ldrh.w	r4, [r1, #4]!
2000124e:	464e      	mov	r6, r9
20001250:	f344 040a 	sbfx	r4, r4, #0, #11
20001254:	3402      	adds	r4, #2
20001256:	eb01 0444 	add.w	r4, r1, r4, lsl #1
2000125a:	4689      	mov	r9, r1
2000125c:	9901      	ldr	r1, [sp, #4]
2000125e:	440c      	add	r4, r1
20001260:	f3c4 044a 	ubfx	r4, r4, #1, #11
20001264:	ea6f 44c4 	mvn.w	r4, r4, lsl #19
20001268:	ea6f 44d4 	mvn.w	r4, r4, lsr #19
2000126c:	e7c3      	b.n	200011f6 <irq_add_shared_handler+0xf6>
2000126e:	e9cd 2300 	strd	r2, r3, [sp]
20001272:	f001 f927 	bl	200024c4 <hard_assertion_failure>
20001276:	e9dd 2300 	ldrd	r2, r3, [sp]
2000127a:	4819      	ldr	r0, [pc, #100]	@ (200012e0 <irq_add_shared_handler+0x1e0>)
2000127c:	e773      	b.n	20001166 <irq_add_shared_handler+0x66>
2000127e:	4a1b      	ldr	r2, [pc, #108]	@ (200012ec <irq_add_shared_handler+0x1ec>)
20001280:	1ca1      	adds	r1, r4, #2
20001282:	71dd      	strb	r5, [r3, #7]
20001284:	4401      	add	r1, r0
20001286:	3a04      	subs	r2, #4
20001288:	1d25      	adds	r5, r4, #4
2000128a:	1a52      	subs	r2, r2, r1
2000128c:	4405      	add	r5, r0
2000128e:	f1ac 0104 	sub.w	r1, ip, #4
20001292:	1b49      	subs	r1, r1, r5
20001294:	f3c1 014a 	ubfx	r1, r1, #1, #11
20001298:	ea6f 41c1 	mvn.w	r1, r1, lsl #19
2000129c:	f3c2 024a 	ubfx	r2, r2, #1, #11
200012a0:	ea6f 42c2 	mvn.w	r2, r2, lsl #19
200012a4:	ea6f 41d1 	mvn.w	r1, r1, lsr #19
200012a8:	f44f 4e21 	mov.w	lr, #41216	@ 0xa100
200012ac:	ea6f 42d2 	mvn.w	r2, r2, lsr #19
200012b0:	8099      	strh	r1, [r3, #4]
200012b2:	490f      	ldr	r1, [pc, #60]	@ (200012f0 <irq_add_shared_handler+0x1f0>)
200012b4:	f820 e004 	strh.w	lr, [r0, r4]
200012b8:	805a      	strh	r2, [r3, #2]
200012ba:	f64a 25aa 	movw	r5, #43690	@ 0xaaaa
200012be:	4662      	mov	r2, ip
200012c0:	1a12      	subs	r2, r2, r0
200012c2:	4152      	adcs	r2, r2
200012c4:	4355      	muls	r5, r2
200012c6:	0d2d      	lsrs	r5, r5, #20
200012c8:	f8c3 a008 	str.w	sl, [r3, #8]
200012cc:	719d      	strb	r5, [r3, #6]
200012ce:	f043 0e01 	orr.w	lr, r3, #1
200012d2:	f8cc 1000 	str.w	r1, [ip]
200012d6:	e763      	b.n	200011a0 <irq_add_shared_handler+0xa0>
200012d8:	2000921d 	.word	0x2000921d
200012dc:	20019b68 	.word	0x20019b68
200012e0:	20008c2c 	.word	0x20008c2c
200012e4:	e000ed00 	.word	0xe000ed00
200012e8:	1000011d 	.word	0x1000011d
200012ec:	20008c8c 	.word	0x20008c8c
200012f0:	47804801 	.word	0x47804801

200012f4 <irq_add_tail_to_free_list>:
200012f4:	e92d 41f0 	stmdb	sp!, {r4, r5, r6, r7, r8, lr}
200012f8:	f3ef 8305 	mrs	r3, IPSR
200012fc:	b2db      	uxtb	r3, r3
200012fe:	469e      	mov	lr, r3
20001300:	f3ef 8510 	mrs	r5, PRIMASK
20001304:	b672      	cpsid	i
20001306:	4935      	ldr	r1, [pc, #212]	@ (200013dc <irq_add_tail_to_free_list+0xe8>)
20001308:	e8d1 2fcf 	ldaexb	r2, [r1]
2000130c:	2301      	movs	r3, #1
2000130e:	2a00      	cmp	r2, #0
20001310:	d1fa      	bne.n	20001308 <irq_add_tail_to_free_list+0x14>
20001312:	e8c1 3f42 	strexb	r2, r3, [r1]
20001316:	2a00      	cmp	r2, #0
20001318:	d1f6      	bne.n	20001308 <irq_add_tail_to_free_list+0x14>
2000131a:	f3bf 8f5f 	dmb	sy
2000131e:	f8df 80cc 	ldr.w	r8, [pc, #204]	@ 200013ec <irq_add_tail_to_free_list+0xf8>
20001322:	f040 0601 	orr.w	r6, r0, #1
20001326:	f8d8 7008 	ldr.w	r7, [r8, #8]
2000132a:	f64a 23aa 	movw	r3, #43690	@ 0xaaaa
2000132e:	f857 702e 	ldr.w	r7, [r7, lr, lsl #2]
20001332:	4604      	mov	r4, r0
20001334:	4a2a      	ldr	r2, [pc, #168]	@ (200013e0 <irq_add_tail_to_free_list+0xec>)
20001336:	1aa4      	subs	r4, r4, r2
20001338:	4164      	adcs	r4, r4
2000133a:	4363      	muls	r3, r4
2000133c:	0d1b      	lsrs	r3, r3, #20
2000133e:	42b7      	cmp	r7, r6
20001340:	b25b      	sxtb	r3, r3
20001342:	d02e      	beq.n	200013a2 <irq_add_tail_to_free_list+0xae>
20001344:	f992 4006 	ldrsb.w	r4, [r2, #6]
20001348:	429c      	cmp	r4, r3
2000134a:	d030      	beq.n	200013ae <irq_add_tail_to_free_list+0xba>
2000134c:	f992 4012 	ldrsb.w	r4, [r2, #18]
20001350:	429c      	cmp	r4, r3
20001352:	d039      	beq.n	200013c8 <irq_add_tail_to_free_list+0xd4>
20001354:	f992 401e 	ldrsb.w	r4, [r2, #30]
20001358:	429c      	cmp	r4, r3
2000135a:	d037      	beq.n	200013cc <irq_add_tail_to_free_list+0xd8>
2000135c:	f992 402a 	ldrsb.w	r4, [r2, #42]	@ 0x2a
20001360:	429c      	cmp	r4, r3
20001362:	d035      	beq.n	200013d0 <irq_add_tail_to_free_list+0xdc>
20001364:	f992 4036 	ldrsb.w	r4, [r2, #54]	@ 0x36
20001368:	429c      	cmp	r4, r3
2000136a:	d033      	beq.n	200013d4 <irq_add_tail_to_free_list+0xe0>
2000136c:	f992 4042 	ldrsb.w	r4, [r2, #66]	@ 0x42
20001370:	429c      	cmp	r4, r3
20001372:	d027      	beq.n	200013c4 <irq_add_tail_to_free_list+0xd0>
20001374:	f992 404e 	ldrsb.w	r4, [r2, #78]	@ 0x4e
20001378:	429c      	cmp	r4, r3
2000137a:	d02d      	beq.n	200013d8 <irq_add_tail_to_free_list+0xe4>
2000137c:	f992 405a 	ldrsb.w	r4, [r2, #90]	@ 0x5a
20001380:	429c      	cmp	r4, r3
20001382:	bf08      	it	eq
20001384:	2407      	moveq	r4, #7
20001386:	d013      	beq.n	200013b0 <irq_add_tail_to_free_list+0xbc>
20001388:	4a16      	ldr	r2, [pc, #88]	@ (200013e4 <irq_add_tail_to_free_list+0xf0>)
2000138a:	2400      	movs	r4, #0
2000138c:	f892 c000 	ldrb.w	ip, [r2]
20001390:	7013      	strb	r3, [r2, #0]
20001392:	f880 c006 	strb.w	ip, [r0, #6]
20001396:	e8c1 4f8f 	stlb	r4, [r1]
2000139a:	f385 8810 	msr	PRIMASK, r5
2000139e:	e8bd 81f0 	ldmia.w	sp!, {r4, r5, r6, r7, r8, pc}
200013a2:	f8d8 2008 	ldr.w	r2, [r8, #8]
200013a6:	4c10      	ldr	r4, [pc, #64]	@ (200013e8 <irq_add_tail_to_free_list+0xf4>)
200013a8:	f842 402e 	str.w	r4, [r2, lr, lsl #2]
200013ac:	e7ec      	b.n	20001388 <irq_add_tail_to_free_list+0x94>
200013ae:	2400      	movs	r4, #0
200013b0:	eb04 0444 	add.w	r4, r4, r4, lsl #1
200013b4:	eb02 0284 	add.w	r2, r2, r4, lsl #2
200013b8:	24ff      	movs	r4, #255	@ 0xff
200013ba:	7194      	strb	r4, [r2, #6]
200013bc:	f64b 5401 	movw	r4, #48385	@ 0xbd01
200013c0:	8094      	strh	r4, [r2, #4]
200013c2:	e7e1      	b.n	20001388 <irq_add_tail_to_free_list+0x94>
200013c4:	2405      	movs	r4, #5
200013c6:	e7f3      	b.n	200013b0 <irq_add_tail_to_free_list+0xbc>
200013c8:	2401      	movs	r4, #1
200013ca:	e7f1      	b.n	200013b0 <irq_add_tail_to_free_list+0xbc>
200013cc:	2402      	movs	r4, #2
200013ce:	e7ef      	b.n	200013b0 <irq_add_tail_to_free_list+0xbc>
200013d0:	2403      	movs	r4, #3
200013d2:	e7ed      	b.n	200013b0 <irq_add_tail_to_free_list+0xbc>
200013d4:	2404      	movs	r4, #4
200013d6:	e7eb      	b.n	200013b0 <irq_add_tail_to_free_list+0xbc>
200013d8:	2406      	movs	r4, #6
200013da:	e7e9      	b.n	200013b0 <irq_add_tail_to_free_list+0xbc>
200013dc:	2000921d 	.word	0x2000921d
200013e0:	20008c2c 	.word	0x20008c2c
200013e4:	20019b68 	.word	0x20019b68
200013e8:	1000011d 	.word	0x1000011d
200013ec:	e000ed00 	.word	0xe000ed00

200013f0 <user_irq_claim_unused>:
200013f0:	b500      	push	{lr}
200013f2:	f8df c024 	ldr.w	ip, [pc, #36]	@ 20001418 <user_irq_claim_unused+0x28>
200013f6:	b083      	sub	sp, #12
200013f8:	4601      	mov	r1, r0
200013fa:	2305      	movs	r3, #5
200013fc:	2200      	movs	r2, #0
200013fe:	f8cd c000 	str.w	ip, [sp]
20001402:	4804      	ldr	r0, [pc, #16]	@ (20001414 <user_irq_claim_unused+0x24>)
20001404:	f7ff fd62 	bl	20000ecc <hw_claim_unused_from_range>
20001408:	2800      	cmp	r0, #0
2000140a:	bfa8      	it	ge
2000140c:	f1c0 0033 	rsbge	r0, r0, #51	@ 0x33
20001410:	b003      	add	sp, #12
20001412:	bd00      	pop	{pc}
20001414:	20019b6c 	.word	0x20019b6c
20001418:	20008444 	.word	0x20008444

2000141c <lock_init>:
2000141c:	4b01      	ldr	r3, [pc, #4]	@ (20001424 <lock_init+0x8>)
2000141e:	440b      	add	r3, r1
20001420:	6003      	str	r3, [r0, #0]
20001422:	4770      	bx	lr
20001424:	20009214 	.word	0x20009214

20001428 <runtime_init_mutex>:
20001428:	b570      	push	{r4, r5, r6, lr}
2000142a:	4c10      	ldr	r4, [pc, #64]	@ (2000146c <runtime_init_mutex+0x44>)
2000142c:	4d10      	ldr	r5, [pc, #64]	@ (20001470 <runtime_init_mutex+0x48>)
2000142e:	42ac      	cmp	r4, r5
20001430:	d20e      	bcs.n	20001450 <runtime_init_mutex+0x28>
20001432:	26ff      	movs	r6, #255	@ 0xff
20001434:	6823      	ldr	r3, [r4, #0]
20001436:	b163      	cbz	r3, 20001452 <runtime_init_mutex+0x2a>
20001438:	f7ff fd8a 	bl	20000f50 <next_striped_spin_lock_num>
2000143c:	4601      	mov	r1, r0
2000143e:	4620      	mov	r0, r4
20001440:	f7ff ffec 	bl	2000141c <lock_init>
20001444:	80a6      	strh	r6, [r4, #4]
20001446:	f3bf 8f5f 	dmb	sy
2000144a:	3408      	adds	r4, #8
2000144c:	42ac      	cmp	r4, r5
2000144e:	d3f1      	bcc.n	20001434 <runtime_init_mutex+0xc>
20001450:	bd70      	pop	{r4, r5, r6, pc}
20001452:	f7ff fd7d 	bl	20000f50 <next_striped_spin_lock_num>
20001456:	4601      	mov	r1, r0
20001458:	4620      	mov	r0, r4
2000145a:	f7ff ffdf 	bl	2000141c <lock_init>
2000145e:	7126      	strb	r6, [r4, #4]
20001460:	f3bf 8f5f 	dmb	sy
20001464:	3408      	adds	r4, #8
20001466:	42ac      	cmp	r4, r5
20001468:	d3e4      	bcc.n	20001434 <runtime_init_mutex+0xc>
2000146a:	bd70      	pop	{r4, r5, r6, pc}
2000146c:	20008cf8 	.word	0x20008cf8
20001470:	20008d18 	.word	0x20008d18

20001474 <mutex_init>:
20001474:	b510      	push	{r4, lr}
20001476:	4604      	mov	r4, r0
20001478:	f7ff fd6a 	bl	20000f50 <next_striped_spin_lock_num>
2000147c:	4601      	mov	r1, r0
2000147e:	4620      	mov	r0, r4
20001480:	f7ff ffcc 	bl	2000141c <lock_init>
20001484:	23ff      	movs	r3, #255	@ 0xff
20001486:	7123      	strb	r3, [r4, #4]
20001488:	f3bf 8f5f 	dmb	sy
2000148c:	bd10      	pop	{r4, pc}
2000148e:	bf00      	nop

20001490 <critical_section_init>:
20001490:	b510      	push	{r4, lr}
20001492:	4604      	mov	r4, r0
20001494:	2001      	movs	r0, #1
20001496:	f7ff fd67 	bl	20000f68 <spin_lock_claim_unused>
2000149a:	4b03      	ldr	r3, [pc, #12]	@ (200014a8 <critical_section_init+0x18>)
2000149c:	4403      	add	r3, r0
2000149e:	6023      	str	r3, [r4, #0]
200014a0:	f3bf 8f5f 	dmb	sy
200014a4:	bd10      	pop	{r4, pc}
200014a6:	bf00      	nop
200014a8:	20009214 	.word	0x20009214

200014ac <critical_section_init_with_lock_num>:
200014ac:	4b02      	ldr	r3, [pc, #8]	@ (200014b8 <critical_section_init_with_lock_num+0xc>)
200014ae:	440b      	add	r3, r1
200014b0:	6003      	str	r3, [r0, #0]
200014b2:	f3bf 8f5f 	dmb	sy
200014b6:	4770      	bx	lr
200014b8:	20009214 	.word	0x20009214

200014bc <sleep_until_callback>:
200014bc:	4b0d      	ldr	r3, [pc, #52]	@ (200014f4 <sleep_until_callback+0x38>)
200014be:	681a      	ldr	r2, [r3, #0]
200014c0:	f3ef 8110 	mrs	r1, PRIMASK
200014c4:	b672      	cpsid	i
200014c6:	e8d2 cfcf 	ldaexb	ip, [r2]
200014ca:	2001      	movs	r0, #1
200014cc:	f1bc 0f00 	cmp.w	ip, #0
200014d0:	d1f9      	bne.n	200014c6 <sleep_until_callback+0xa>
200014d2:	e8c2 0f4c 	strexb	ip, r0, [r2]
200014d6:	f1bc 0f00 	cmp.w	ip, #0
200014da:	d1f4      	bne.n	200014c6 <sleep_until_callback+0xa>
200014dc:	f3bf 8f5f 	dmb	sy
200014e0:	2200      	movs	r2, #0
200014e2:	681b      	ldr	r3, [r3, #0]
200014e4:	e8c3 2f8f 	stlb	r2, [r3]
200014e8:	f381 8810 	msr	PRIMASK, r1
200014ec:	bf40      	sev
200014ee:	2000      	movs	r0, #0
200014f0:	2100      	movs	r1, #0
200014f2:	4770      	bx	lr
200014f4:	20019b1c 	.word	0x20019b1c

200014f8 <alarm_pool_irq_handler>:
200014f8:	e92d 4ff0 	stmdb	sp!, {r4, r5, r6, r7, r8, r9, sl, fp, lr}
200014fc:	ed2d 8b02 	vpush	{d8}
20001500:	b085      	sub	sp, #20
20001502:	f3ef 8305 	mrs	r3, IPSR
20001506:	b2db      	uxtb	r3, r3
20001508:	3b10      	subs	r3, #16
2000150a:	089a      	lsrs	r2, r3, #2
2000150c:	bf18      	it	ne
2000150e:	2201      	movne	r2, #1
20001510:	f04f 0101 	mov.w	r1, #1
20001514:	f003 0b03 	and.w	fp, r3, #3
20001518:	bf18      	it	ne
2000151a:	4ca9      	ldrne	r4, [pc, #676]	@ (200017c0 <alarm_pool_irq_handler+0x2c8>)
2000151c:	4ba9      	ldr	r3, [pc, #676]	@ (200017c4 <alarm_pool_irq_handler+0x2cc>)
2000151e:	bf08      	it	eq
20001520:	4ca9      	ldreq	r4, [pc, #676]	@ (200017c8 <alarm_pool_irq_handler+0x2d0>)
20001522:	eb0b 0282 	add.w	r2, fp, r2, lsl #2
20001526:	f853 5022 	ldr.w	r5, [r3, r2, lsl #2]
2000152a:	fa01 f20b 	lsl.w	r2, r1, fp
2000152e:	f504 5341 	add.w	r3, r4, #12352	@ 0x3040
20001532:	ed9f 8ba1 	vldr	d8, [pc, #644]	@ 200017b8 <alarm_pool_irq_handler+0x2c0>
20001536:	9202      	str	r2, [sp, #8]
20001538:	605a      	str	r2, [r3, #4]
2000153a:	e02f      	b.n	2000159c <alarm_pool_irq_handler+0xa4>
2000153c:	88ab      	ldrh	r3, [r5, #4]
2000153e:	0419      	lsls	r1, r3, #16
20001540:	f140 8094 	bpl.w	2000166c <alarm_pool_irq_handler+0x174>
20001544:	79ab      	ldrb	r3, [r5, #6]
20001546:	2b00      	cmp	r3, #0
20001548:	f040 80de 	bne.w	20001708 <alarm_pool_irq_handler+0x210>
2000154c:	f9b5 6008 	ldrsh.w	r6, [r5, #8]
20001550:	2e00      	cmp	r6, #0
20001552:	f2c0 811c 	blt.w	2000178e <alarm_pool_irq_handler+0x296>
20001556:	696b      	ldr	r3, [r5, #20]
20001558:	eb06 0646 	add.w	r6, r6, r6, lsl #1
2000155c:	eb03 03c6 	add.w	r3, r3, r6, lsl #3
20001560:	e9d3 6702 	ldrd	r6, r7, [r3, #8]
20001564:	f1b7 3fff 	cmp.w	r7, #4294967295	@ 0xffffffff
20001568:	bf08      	it	eq
2000156a:	f1b6 3fff 	cmpeq.w	r6, #4294967295	@ 0xffffffff
2000156e:	d00e      	beq.n	2000158e <alarm_pool_irq_handler+0x96>
20001570:	eb04 018b 	add.w	r1, r4, fp, lsl #2
20001574:	6aa3      	ldr	r3, [r4, #40]	@ 0x28
20001576:	690a      	ldr	r2, [r1, #16]
20001578:	1ad2      	subs	r2, r2, r3
2000157a:	1af3      	subs	r3, r6, r3
2000157c:	4293      	cmp	r3, r2
2000157e:	d305      	bcc.n	2000158c <alarm_pool_irq_handler+0x94>
20001580:	2301      	movs	r3, #1
20001582:	6a22      	ldr	r2, [r4, #32]
20001584:	fa03 f30b 	lsl.w	r3, r3, fp
20001588:	4213      	tst	r3, r2
2000158a:	d100      	bne.n	2000158e <alarm_pool_irq_handler+0x96>
2000158c:	610e      	str	r6, [r1, #16]
2000158e:	4620      	mov	r0, r4
20001590:	f000 fc32 	bl	20001df8 <timer_time_us_64>
20001594:	42b0      	cmp	r0, r6
20001596:	41b9      	sbcs	r1, r7
20001598:	f2c0 80f9 	blt.w	2000178e <alarm_pool_irq_handler+0x296>
2000159c:	f9b5 6008 	ldrsh.w	r6, [r5, #8]
200015a0:	9b02      	ldr	r3, [sp, #8]
200015a2:	2e00      	cmp	r6, #0
200015a4:	63e3      	str	r3, [r4, #60]	@ 0x3c
200015a6:	dbc9      	blt.n	2000153c <alarm_pool_irq_handler+0x44>
200015a8:	f8d5 9014 	ldr.w	r9, [r5, #20]
200015ac:	eb06 0a46 	add.w	sl, r6, r6, lsl #1
200015b0:	eb09 07ca 	add.w	r7, r9, sl, lsl #3
200015b4:	68bb      	ldr	r3, [r7, #8]
200015b6:	4620      	mov	r0, r4
200015b8:	f8d7 800c 	ldr.w	r8, [r7, #12]
200015bc:	9301      	str	r3, [sp, #4]
200015be:	f000 fc1b 	bl	20001df8 <timer_time_us_64>
200015c2:	9b01      	ldr	r3, [sp, #4]
200015c4:	4298      	cmp	r0, r3
200015c6:	eb71 0108 	sbcs.w	r1, r1, r8
200015ca:	dbb7      	blt.n	2000153c <alarm_pool_irq_handler+0x44>
200015cc:	f1b8 0f00 	cmp.w	r8, #0
200015d0:	f2c0 80c0 	blt.w	20001754 <alarm_pool_irq_handler+0x25c>
200015d4:	e9d7 3104 	ldrd	r3, r1, [r7, #16]
200015d8:	4a7c      	ldr	r2, [pc, #496]	@ (200017cc <alarm_pool_irq_handler+0x2d4>)
200015da:	4293      	cmp	r3, r2
200015dc:	f000 80f8 	beq.w	200017d0 <alarm_pool_irq_handler+0x2d8>
200015e0:	887a      	ldrh	r2, [r7, #2]
200015e2:	f9b5 0008 	ldrsh.w	r0, [r5, #8]
200015e6:	b292      	uxth	r2, r2
200015e8:	ea42 4000 	orr.w	r0, r2, r0, lsl #16
200015ec:	4798      	blx	r3
200015ee:	4602      	mov	r2, r0
200015f0:	460b      	mov	r3, r1
200015f2:	ea52 0103 	orrs.w	r1, r2, r3
200015f6:	f000 80ad 	beq.w	20001754 <alarm_pool_irq_handler+0x25c>
200015fa:	2b00      	cmp	r3, #0
200015fc:	f280 80cd 	bge.w	2000179a <alarm_pool_irq_handler+0x2a2>
20001600:	9901      	ldr	r1, [sp, #4]
20001602:	ebb1 0e02 	subs.w	lr, r1, r2
20001606:	eb68 0803 	sbc.w	r8, r8, r3
2000160a:	f939 303a 	ldrsh.w	r3, [r9, sl, lsl #3]
2000160e:	e9c7 e802 	strd	lr, r8, [r7, #8]
20001612:	2b00      	cmp	r3, #0
20001614:	db92      	blt.n	2000153c <alarm_pool_irq_handler+0x44>
20001616:	6968      	ldr	r0, [r5, #20]
20001618:	eb03 0243 	add.w	r2, r3, r3, lsl #1
2000161c:	eb00 02c2 	add.w	r2, r0, r2, lsl #3
20001620:	e9d2 7102 	ldrd	r7, r1, [r2, #8]
20001624:	45be      	cmp	lr, r7
20001626:	eb78 0c01 	sbcs.w	ip, r8, r1
2000162a:	ea4f 0243 	mov.w	r2, r3, lsl #1
2000162e:	db85      	blt.n	2000153c <alarm_pool_irq_handler+0x44>
20001630:	46ac      	mov	ip, r5
20001632:	f82c 3f08 	strh.w	r3, [ip, #8]!
20001636:	e006      	b.n	20001646 <alarm_pool_irq_handler+0x14e>
20001638:	eb03 0143 	add.w	r1, r3, r3, lsl #1
2000163c:	eb00 01c1 	add.w	r1, r0, r1, lsl #3
20001640:	005a      	lsls	r2, r3, #1
20001642:	e9d1 7102 	ldrd	r7, r1, [r1, #8]
20001646:	45be      	cmp	lr, r7
20001648:	eb78 0101 	sbcs.w	r1, r8, r1
2000164c:	441a      	add	r2, r3
2000164e:	db05      	blt.n	2000165c <alarm_pool_irq_handler+0x164>
20001650:	f930 3032 	ldrsh.w	r3, [r0, r2, lsl #3]
20001654:	eb00 0cc2 	add.w	ip, r0, r2, lsl #3
20001658:	2b00      	cmp	r3, #0
2000165a:	daed      	bge.n	20001638 <alarm_pool_irq_handler+0x140>
2000165c:	f829 303a 	strh.w	r3, [r9, sl, lsl #3]
20001660:	f8ac 6000 	strh.w	r6, [ip]
20001664:	88ab      	ldrh	r3, [r5, #4]
20001666:	0419      	lsls	r1, r3, #16
20001668:	f53f af6c 	bmi.w	20001544 <alarm_pool_irq_handler+0x4c>
2000166c:	692b      	ldr	r3, [r5, #16]
2000166e:	f3ef 8210 	mrs	r2, PRIMASK
20001672:	b672      	cpsid	i
20001674:	e8d3 0fcf 	ldaexb	r0, [r3]
20001678:	2101      	movs	r1, #1
2000167a:	2800      	cmp	r0, #0
2000167c:	d1fa      	bne.n	20001674 <alarm_pool_irq_handler+0x17c>
2000167e:	e8c3 1f40 	strexb	r0, r1, [r3]
20001682:	2800      	cmp	r0, #0
20001684:	d1f6      	bne.n	20001674 <alarm_pool_irq_handler+0x17c>
20001686:	f3bf 8f5f 	dmb	sy
2000168a:	f64f 76ff 	movw	r6, #65535	@ 0xffff
2000168e:	88a8      	ldrh	r0, [r5, #4]
20001690:	2300      	movs	r3, #0
20001692:	6929      	ldr	r1, [r5, #16]
20001694:	b200      	sxth	r0, r0
20001696:	80ae      	strh	r6, [r5, #4]
20001698:	e8c1 3f8f 	stlb	r3, [r1]
2000169c:	f382 8810 	msr	PRIMASK, r2
200016a0:	4298      	cmp	r0, r3
200016a2:	f6ff af4f 	blt.w	20001544 <alarm_pool_irq_handler+0x4c>
200016a6:	4607      	mov	r7, r0
200016a8:	46a1      	mov	r9, r4
200016aa:	696e      	ldr	r6, [r5, #20]
200016ac:	f105 0808 	add.w	r8, r5, #8
200016b0:	f9b5 3008 	ldrsh.w	r3, [r5, #8]
200016b4:	eb07 0e47 	add.w	lr, r7, r7, lsl #1
200016b8:	2b00      	cmp	r3, #0
200016ba:	46c4      	mov	ip, r8
200016bc:	eb06 02ce 	add.w	r2, r6, lr, lsl #3
200016c0:	db15      	blt.n	200016ee <alarm_pool_irq_handler+0x1f6>
200016c2:	e9d2 4002 	ldrd	r4, r0, [r2, #8]
200016c6:	46aa      	mov	sl, r5
200016c8:	9701      	str	r7, [sp, #4]
200016ca:	e004      	b.n	200016d6 <alarm_pool_irq_handler+0x1de>
200016cc:	f936 3035 	ldrsh.w	r3, [r6, r5, lsl #3]
200016d0:	4694      	mov	ip, r2
200016d2:	2b00      	cmp	r3, #0
200016d4:	db09      	blt.n	200016ea <alarm_pool_irq_handler+0x1f2>
200016d6:	eb03 0543 	add.w	r5, r3, r3, lsl #1
200016da:	eb06 02c5 	add.w	r2, r6, r5, lsl #3
200016de:	e9d2 7102 	ldrd	r7, r1, [r2, #8]
200016e2:	42bc      	cmp	r4, r7
200016e4:	eb70 0101 	sbcs.w	r1, r0, r1
200016e8:	daf0      	bge.n	200016cc <alarm_pool_irq_handler+0x1d4>
200016ea:	4655      	mov	r5, sl
200016ec:	9f01      	ldr	r7, [sp, #4]
200016ee:	f8ac 7000 	strh.w	r7, [ip]
200016f2:	f936 703e 	ldrsh.w	r7, [r6, lr, lsl #3]
200016f6:	f826 303e 	strh.w	r3, [r6, lr, lsl #3]
200016fa:	2f00      	cmp	r7, #0
200016fc:	dad8      	bge.n	200016b0 <alarm_pool_irq_handler+0x1b8>
200016fe:	79ab      	ldrb	r3, [r5, #6]
20001700:	464c      	mov	r4, r9
20001702:	2b00      	cmp	r3, #0
20001704:	f43f af22 	beq.w	2000154c <alarm_pool_irq_handler+0x54>
20001708:	2300      	movs	r3, #0
2000170a:	71ab      	strb	r3, [r5, #6]
2000170c:	f9b5 6008 	ldrsh.w	r6, [r5, #8]
20001710:	1c72      	adds	r2, r6, #1
20001712:	4633      	mov	r3, r6
20001714:	d03b      	beq.n	2000178e <alarm_pool_irq_handler+0x296>
20001716:	6968      	ldr	r0, [r5, #20]
20001718:	f105 0e08 	add.w	lr, r5, #8
2000171c:	e003      	b.n	20001726 <alarm_pool_irq_handler+0x22e>
2000171e:	468e      	mov	lr, r1
20001720:	1c5a      	adds	r2, r3, #1
20001722:	f43f af15 	beq.w	20001550 <alarm_pool_irq_handler+0x58>
20001726:	eb03 0243 	add.w	r2, r3, r3, lsl #1
2000172a:	eb00 01c2 	add.w	r1, r0, r2, lsl #3
2000172e:	884f      	ldrh	r7, [r1, #2]
20001730:	469c      	mov	ip, r3
20001732:	043f      	lsls	r7, r7, #16
20001734:	f930 3032 	ldrsh.w	r3, [r0, r2, lsl #3]
20001738:	d5f1      	bpl.n	2000171e <alarm_pool_irq_handler+0x226>
2000173a:	4566      	cmp	r6, ip
2000173c:	ed81 8b02 	vstr	d8, [r1, #8]
20001740:	d0ee      	beq.n	20001720 <alarm_pool_irq_handler+0x228>
20001742:	f8ae 3000 	strh.w	r3, [lr]
20001746:	8929      	ldrh	r1, [r5, #8]
20001748:	4666      	mov	r6, ip
2000174a:	f820 1032 	strh.w	r1, [r0, r2, lsl #3]
2000174e:	f8a5 c008 	strh.w	ip, [r5, #8]
20001752:	e7e5      	b.n	20001720 <alarm_pool_irq_handler+0x228>
20001754:	f839 303a 	ldrh.w	r3, [r9, sl, lsl #3]
20001758:	812b      	strh	r3, [r5, #8]
2000175a:	692b      	ldr	r3, [r5, #16]
2000175c:	f3ef 8210 	mrs	r2, PRIMASK
20001760:	b672      	cpsid	i
20001762:	e8d3 0fcf 	ldaexb	r0, [r3]
20001766:	2101      	movs	r1, #1
20001768:	2800      	cmp	r0, #0
2000176a:	d1fa      	bne.n	20001762 <alarm_pool_irq_handler+0x26a>
2000176c:	e8c3 1f40 	strexb	r0, r1, [r3]
20001770:	2800      	cmp	r0, #0
20001772:	d1f6      	bne.n	20001762 <alarm_pool_irq_handler+0x26a>
20001774:	f3bf 8f5f 	dmb	sy
20001778:	886b      	ldrh	r3, [r5, #2]
2000177a:	6929      	ldr	r1, [r5, #16]
2000177c:	f829 303a 	strh.w	r3, [r9, sl, lsl #3]
20001780:	2300      	movs	r3, #0
20001782:	806e      	strh	r6, [r5, #2]
20001784:	e8c1 3f8f 	stlb	r3, [r1]
20001788:	f382 8810 	msr	PRIMASK, r2
2000178c:	e6d6      	b.n	2000153c <alarm_pool_irq_handler+0x44>
2000178e:	bf40      	sev
20001790:	b005      	add	sp, #20
20001792:	ecbd 8b02 	vpop	{d8}
20001796:	e8bd 8ff0 	ldmia.w	sp!, {r4, r5, r6, r7, r8, r9, sl, fp, pc}
2000179a:	4620      	mov	r0, r4
2000179c:	9303      	str	r3, [sp, #12]
2000179e:	9201      	str	r2, [sp, #4]
200017a0:	f000 fb2a 	bl	20001df8 <timer_time_us_64>
200017a4:	9a01      	ldr	r2, [sp, #4]
200017a6:	9b03      	ldr	r3, [sp, #12]
200017a8:	eb10 0e02 	adds.w	lr, r0, r2
200017ac:	eb43 0801 	adc.w	r8, r3, r1
200017b0:	e72b      	b.n	2000160a <alarm_pool_irq_handler+0x112>
200017b2:	bf00      	nop
200017b4:	f3af 8000 	nop.w
200017b8:	ffffffff 	.word	0xffffffff
200017bc:	ffffffff 	.word	0xffffffff
200017c0:	400b8000 	.word	0x400b8000
200017c4:	20009af4 	.word	0x20009af4
200017c8:	400b0000 	.word	0x400b0000
200017cc:	200014f9 	.word	0x200014f9
200017d0:	4608      	mov	r0, r1
200017d2:	690b      	ldr	r3, [r1, #16]
200017d4:	9103      	str	r1, [sp, #12]
200017d6:	4798      	blx	r3
200017d8:	2800      	cmp	r0, #0
200017da:	d0bb      	beq.n	20001754 <alarm_pool_irq_handler+0x25c>
200017dc:	9903      	ldr	r1, [sp, #12]
200017de:	e9d1 2300 	ldrd	r2, r3, [r1]
200017e2:	e706      	b.n	200015f2 <alarm_pool_irq_handler+0xfa>

200017e4 <runtime_init_default_alarm_pool>:
200017e4:	b538      	push	{r3, r4, r5, lr}
200017e6:	4b38      	ldr	r3, [pc, #224]	@ (200018c8 <runtime_init_default_alarm_pool+0xe4>)
200017e8:	691c      	ldr	r4, [r3, #16]
200017ea:	b12c      	cbz	r4, 200017f8 <runtime_init_default_alarm_pool+0x14>
200017ec:	e8bd 4038 	ldmia.w	sp!, {r3, r4, r5, lr}
200017f0:	210a      	movs	r1, #10
200017f2:	4836      	ldr	r0, [pc, #216]	@ (200018cc <runtime_init_default_alarm_pool+0xe8>)
200017f4:	f7ff be12 	b.w	2000141c <lock_init>
200017f8:	2103      	movs	r1, #3
200017fa:	4835      	ldr	r0, [pc, #212]	@ (200018d0 <runtime_init_default_alarm_pool+0xec>)
200017fc:	f000 faea 	bl	20001dd4 <timer_hardware_alarm_claim>
20001800:	4d33      	ldr	r5, [pc, #204]	@ (200018d0 <runtime_init_default_alarm_pool+0xec>)
20001802:	4b31      	ldr	r3, [pc, #196]	@ (200018c8 <runtime_init_default_alarm_pool+0xe4>)
20001804:	60dd      	str	r5, [r3, #12]
20001806:	f7ff fba3 	bl	20000f50 <next_striped_spin_lock_num>
2000180a:	4a32      	ldr	r2, [pc, #200]	@ (200018d4 <runtime_init_default_alarm_pool+0xf0>)
2000180c:	f04f 4e50 	mov.w	lr, #3489660928	@ 0xd0000000
20001810:	4402      	add	r2, r0
20001812:	2003      	movs	r0, #3
20001814:	4b2c      	ldr	r3, [pc, #176]	@ (200018c8 <runtime_init_default_alarm_pool+0xe4>)
20001816:	f04f 0c0f 	mov.w	ip, #15
2000181a:	7018      	strb	r0, [r3, #0]
2000181c:	611a      	str	r2, [r3, #16]
2000181e:	f8de 2000 	ldr.w	r2, [lr]
20001822:	f64f 71ff 	movw	r1, #65535	@ 0xffff
20001826:	705a      	strb	r2, [r3, #1]
20001828:	695a      	ldr	r2, [r3, #20]
2000182a:	f8a3 c002 	strh.w	ip, [r3, #2]
2000182e:	8314      	strh	r4, [r2, #24]
20001830:	f04f 0402 	mov.w	r4, #2
20001834:	f8a2 4048 	strh.w	r4, [r2, #72]	@ 0x48
20001838:	f04f 0404 	mov.w	r4, #4
2000183c:	f8a2 4078 	strh.w	r4, [r2, #120]	@ 0x78
20001840:	f04f 0405 	mov.w	r4, #5
20001844:	f8a2 4090 	strh.w	r4, [r2, #144]	@ 0x90
20001848:	f04f 0406 	mov.w	r4, #6
2000184c:	f8a2 40a8 	strh.w	r4, [r2, #168]	@ 0xa8
20001850:	f04f 0407 	mov.w	r4, #7
20001854:	f8a2 40c0 	strh.w	r4, [r2, #192]	@ 0xc0
20001858:	f04f 0409 	mov.w	r4, #9
2000185c:	f8a2 40f0 	strh.w	r4, [r2, #240]	@ 0xf0
20001860:	f04f 040a 	mov.w	r4, #10
20001864:	f8a2 4108 	strh.w	r4, [r2, #264]	@ 0x108
20001868:	f04f 040b 	mov.w	r4, #11
2000186c:	f8a2 4120 	strh.w	r4, [r2, #288]	@ 0x120
20001870:	f04f 040c 	mov.w	r4, #12
20001874:	f8a2 4138 	strh.w	r4, [r2, #312]	@ 0x138
20001878:	f04f 0401 	mov.w	r4, #1
2000187c:	8614      	strh	r4, [r2, #48]	@ 0x30
2000187e:	f04f 0408 	mov.w	r4, #8
20001882:	f8a2 40d8 	strh.w	r4, [r2, #216]	@ 0xd8
20001886:	4c14      	ldr	r4, [pc, #80]	@ (200018d8 <runtime_init_default_alarm_pool+0xf4>)
20001888:	f04f 0e0d 	mov.w	lr, #13
2000188c:	f04f 0c0e 	mov.w	ip, #14
20001890:	609c      	str	r4, [r3, #8]
20001892:	2408      	movs	r4, #8
20001894:	8099      	strh	r1, [r3, #4]
20001896:	f8a2 e150 	strh.w	lr, [r2, #336]	@ 0x150
2000189a:	f8a2 c168 	strh.w	ip, [r2, #360]	@ 0x168
2000189e:	f8a2 0060 	strh.w	r0, [r2, #96]	@ 0x60
200018a2:	8011      	strh	r1, [r2, #0]
200018a4:	4a0d      	ldr	r2, [pc, #52]	@ (200018dc <runtime_init_default_alarm_pool+0xf8>)
200018a6:	622c      	str	r4, [r5, #32]
200018a8:	490d      	ldr	r1, [pc, #52]	@ (200018e0 <runtime_init_default_alarm_pool+0xfc>)
200018aa:	60d3      	str	r3, [r2, #12]
200018ac:	f7ff fbf0 	bl	20001090 <irq_set_exclusive_handler>
200018b0:	2101      	movs	r1, #1
200018b2:	2003      	movs	r0, #3
200018b4:	f7ff fb9e 	bl	20000ff4 <irq_set_enabled>
200018b8:	4b0a      	ldr	r3, [pc, #40]	@ (200018e4 <runtime_init_default_alarm_pool+0x100>)
200018ba:	210a      	movs	r1, #10
200018bc:	641c      	str	r4, [r3, #64]	@ 0x40
200018be:	4803      	ldr	r0, [pc, #12]	@ (200018cc <runtime_init_default_alarm_pool+0xe8>)
200018c0:	e8bd 4038 	ldmia.w	sp!, {r3, r4, r5, lr}
200018c4:	f7ff bdaa 	b.w	2000141c <lock_init>
200018c8:	20008ca4 	.word	0x20008ca4
200018cc:	20019b1c 	.word	0x20019b1c
200018d0:	400b0000 	.word	0x400b0000
200018d4:	20009214 	.word	0x20009214
200018d8:	0010ffff 	.word	0x0010ffff
200018dc:	20009af4 	.word	0x20009af4
200018e0:	200014f9 	.word	0x200014f9
200018e4:	400b2000 	.word	0x400b2000

200018e8 <alarm_pool_get_default>:
200018e8:	4800      	ldr	r0, [pc, #0]	@ (200018ec <alarm_pool_get_default+0x4>)
200018ea:	4770      	bx	lr
200018ec:	20008ca4 	.word	0x20008ca4

200018f0 <alarm_pool_add_alarm_at>:
200018f0:	b5f0      	push	{r4, r5, r6, r7, lr}
200018f2:	b083      	sub	sp, #12
200018f4:	f89d 4028 	ldrb.w	r4, [sp, #40]	@ 0x28
200018f8:	461d      	mov	r5, r3
200018fa:	4603      	mov	r3, r0
200018fc:	b954      	cbnz	r4, 20001914 <alarm_pool_add_alarm_at+0x24>
200018fe:	e9cd 0200 	strd	r0, r2, [sp]
20001902:	f000 fa81 	bl	20001e08 <time_us_64>
20001906:	9a01      	ldr	r2, [sp, #4]
20001908:	9b00      	ldr	r3, [sp, #0]
2000190a:	4282      	cmp	r2, r0
2000190c:	eb65 0101 	sbc.w	r1, r5, r1
20001910:	42a1      	cmp	r1, r4
20001912:	db5b      	blt.n	200019cc <alarm_pool_add_alarm_at+0xdc>
20001914:	6919      	ldr	r1, [r3, #16]
20001916:	f3ef 8010 	mrs	r0, PRIMASK
2000191a:	b672      	cpsid	i
2000191c:	e8d1 6fcf 	ldaexb	r6, [r1]
20001920:	2401      	movs	r4, #1
20001922:	2e00      	cmp	r6, #0
20001924:	d1fa      	bne.n	2000191c <alarm_pool_add_alarm_at+0x2c>
20001926:	e8c1 4f46 	strexb	r6, r4, [r1]
2000192a:	2e00      	cmp	r6, #0
2000192c:	d1f6      	bne.n	2000191c <alarm_pool_add_alarm_at+0x2c>
2000192e:	f3bf 8f5f 	dmb	sy
20001932:	f9b3 4002 	ldrsh.w	r4, [r3, #2]
20001936:	691f      	ldr	r7, [r3, #16]
20001938:	2c00      	cmp	r4, #0
2000193a:	db3e      	blt.n	200019ba <alarm_pool_add_alarm_at+0xca>
2000193c:	f8d3 c014 	ldr.w	ip, [r3, #20]
20001940:	eb04 0e44 	add.w	lr, r4, r4, lsl #1
20001944:	f83c 103e 	ldrh.w	r1, [ip, lr, lsl #3]
20001948:	2600      	movs	r6, #0
2000194a:	8059      	strh	r1, [r3, #2]
2000194c:	eb0c 01ce 	add.w	r1, ip, lr, lsl #3
20001950:	e8c7 6f8f 	stlb	r6, [r7]
20001954:	f380 8810 	msr	PRIMASK, r0
20001958:	8848      	ldrh	r0, [r1, #2]
2000195a:	e9c1 2502 	strd	r2, r5, [r1, #8]
2000195e:	3001      	adds	r0, #1
20001960:	f3c0 000e 	ubfx	r0, r0, #0, #15
20001964:	2801      	cmp	r0, #1
20001966:	bf38      	it	cc
20001968:	2001      	movcc	r0, #1
2000196a:	9a08      	ldr	r2, [sp, #32]
2000196c:	8048      	strh	r0, [r1, #2]
2000196e:	610a      	str	r2, [r1, #16]
20001970:	9a09      	ldr	r2, [sp, #36]	@ 0x24
20001972:	ea40 4004 	orr.w	r0, r0, r4, lsl #16
20001976:	614a      	str	r2, [r1, #20]
20001978:	691a      	ldr	r2, [r3, #16]
2000197a:	f3ef 8110 	mrs	r1, PRIMASK
2000197e:	b672      	cpsid	i
20001980:	e8d2 7fcf 	ldaexb	r7, [r2]
20001984:	2501      	movs	r5, #1
20001986:	2f00      	cmp	r7, #0
20001988:	d1fa      	bne.n	20001980 <alarm_pool_add_alarm_at+0x90>
2000198a:	e8c2 5f47 	strexb	r7, r5, [r2]
2000198e:	2f00      	cmp	r7, #0
20001990:	d1f6      	bne.n	20001980 <alarm_pool_add_alarm_at+0x90>
20001992:	f3bf 8f5f 	dmb	sy
20001996:	889a      	ldrh	r2, [r3, #4]
20001998:	f82c 203e 	strh.w	r2, [ip, lr, lsl #3]
2000199c:	691a      	ldr	r2, [r3, #16]
2000199e:	809c      	strh	r4, [r3, #4]
200019a0:	e8c2 6f8f 	stlb	r6, [r2]
200019a4:	f381 8810 	msr	PRIMASK, r1
200019a8:	2101      	movs	r1, #1
200019aa:	781c      	ldrb	r4, [r3, #0]
200019ac:	68da      	ldr	r2, [r3, #12]
200019ae:	40a1      	lsls	r1, r4
200019b0:	f502 5301 	add.w	r3, r2, #8256	@ 0x2040
200019b4:	6059      	str	r1, [r3, #4]
200019b6:	b003      	add	sp, #12
200019b8:	bdf0      	pop	{r4, r5, r6, r7, pc}
200019ba:	2300      	movs	r3, #0
200019bc:	e8c7 3f8f 	stlb	r3, [r7]
200019c0:	f380 8810 	msr	PRIMASK, r0
200019c4:	f04f 30ff 	mov.w	r0, #4294967295	@ 0xffffffff
200019c8:	b003      	add	sp, #12
200019ca:	bdf0      	pop	{r4, r5, r6, r7, pc}
200019cc:	4620      	mov	r0, r4
200019ce:	b003      	add	sp, #12
200019d0:	bdf0      	pop	{r4, r5, r6, r7, pc}
200019d2:	bf00      	nop

200019d4 <alarm_pool_add_alarm_at_force_in_context>:
200019d4:	b5f0      	push	{r4, r5, r6, r7, lr}
200019d6:	4616      	mov	r6, r2
200019d8:	461f      	mov	r7, r3
200019da:	6902      	ldr	r2, [r0, #16]
200019dc:	4603      	mov	r3, r0
200019de:	f3ef 8010 	mrs	r0, PRIMASK
200019e2:	b672      	cpsid	i
200019e4:	e8d2 4fcf 	ldaexb	r4, [r2]
200019e8:	2101      	movs	r1, #1
200019ea:	2c00      	cmp	r4, #0
200019ec:	d1fa      	bne.n	200019e4 <alarm_pool_add_alarm_at_force_in_context+0x10>
200019ee:	e8c2 1f44 	strexb	r4, r1, [r2]
200019f2:	2c00      	cmp	r4, #0
200019f4:	d1f6      	bne.n	200019e4 <alarm_pool_add_alarm_at_force_in_context+0x10>
200019f6:	f3bf 8f5f 	dmb	sy
200019fa:	f9b3 1002 	ldrsh.w	r1, [r3, #2]
200019fe:	691d      	ldr	r5, [r3, #16]
20001a00:	2900      	cmp	r1, #0
20001a02:	db45      	blt.n	20001a90 <alarm_pool_add_alarm_at_force_in_context+0xbc>
20001a04:	f8d3 e014 	ldr.w	lr, [r3, #20]
20001a08:	eb01 0241 	add.w	r2, r1, r1, lsl #1
20001a0c:	f83e 4032 	ldrh.w	r4, [lr, r2, lsl #3]
20001a10:	eb0e 0cc2 	add.w	ip, lr, r2, lsl #3
20001a14:	805c      	strh	r4, [r3, #2]
20001a16:	2400      	movs	r4, #0
20001a18:	e8c5 4f8f 	stlb	r4, [r5]
20001a1c:	f380 8810 	msr	PRIMASK, r0
20001a20:	9805      	ldr	r0, [sp, #20]
20001a22:	4635      	mov	r5, r6
20001a24:	f8cc 0010 	str.w	r0, [ip, #16]
20001a28:	9806      	ldr	r0, [sp, #24]
20001a2a:	463e      	mov	r6, r7
20001a2c:	f8cc 0014 	str.w	r0, [ip, #20]
20001a30:	f8bc 0002 	ldrh.w	r0, [ip, #2]
20001a34:	e9cc 5602 	strd	r5, r6, [ip, #8]
20001a38:	3001      	adds	r0, #1
20001a3a:	f3c0 000e 	ubfx	r0, r0, #0, #15
20001a3e:	2801      	cmp	r0, #1
20001a40:	bf38      	it	cc
20001a42:	2001      	movcc	r0, #1
20001a44:	f8ac 0002 	strh.w	r0, [ip, #2]
20001a48:	ea40 4001 	orr.w	r0, r0, r1, lsl #16
20001a4c:	f8d3 c010 	ldr.w	ip, [r3, #16]
20001a50:	f3ef 8510 	mrs	r5, PRIMASK
20001a54:	b672      	cpsid	i
20001a56:	e8dc 7fcf 	ldaexb	r7, [ip]
20001a5a:	2601      	movs	r6, #1
20001a5c:	2f00      	cmp	r7, #0
20001a5e:	d1fa      	bne.n	20001a56 <alarm_pool_add_alarm_at_force_in_context+0x82>
20001a60:	e8cc 6f47 	strexb	r7, r6, [ip]
20001a64:	2f00      	cmp	r7, #0
20001a66:	d1f6      	bne.n	20001a56 <alarm_pool_add_alarm_at_force_in_context+0x82>
20001a68:	f3bf 8f5f 	dmb	sy
20001a6c:	f8b3 c004 	ldrh.w	ip, [r3, #4]
20001a70:	f82e c032 	strh.w	ip, [lr, r2, lsl #3]
20001a74:	8099      	strh	r1, [r3, #4]
20001a76:	691a      	ldr	r2, [r3, #16]
20001a78:	e8c2 4f8f 	stlb	r4, [r2]
20001a7c:	f385 8810 	msr	PRIMASK, r5
20001a80:	2101      	movs	r1, #1
20001a82:	781c      	ldrb	r4, [r3, #0]
20001a84:	68da      	ldr	r2, [r3, #12]
20001a86:	40a1      	lsls	r1, r4
20001a88:	f502 5301 	add.w	r3, r2, #8256	@ 0x2040
20001a8c:	6059      	str	r1, [r3, #4]
20001a8e:	bdf0      	pop	{r4, r5, r6, r7, pc}
20001a90:	2300      	movs	r3, #0
20001a92:	e8c5 3f8f 	stlb	r3, [r5]
20001a96:	f380 8810 	msr	PRIMASK, r0
20001a9a:	f04f 30ff 	mov.w	r0, #4294967295	@ 0xffffffff
20001a9e:	bdf0      	pop	{r4, r5, r6, r7, pc}

20001aa0 <alarm_pool_cancel_alarm>:
20001aa0:	4603      	mov	r3, r0
20001aa2:	8940      	ldrh	r0, [r0, #10]
20001aa4:	ebb0 4f21 	cmp.w	r0, r1, asr #16
20001aa8:	dd3a      	ble.n	20001b20 <alarm_pool_cancel_alarm+0x80>
20001aaa:	6958      	ldr	r0, [r3, #20]
20001aac:	140a      	asrs	r2, r1, #16
20001aae:	eb02 0242 	add.w	r2, r2, r2, lsl #1
20001ab2:	b510      	push	{r4, lr}
20001ab4:	f8d3 c010 	ldr.w	ip, [r3, #16]
20001ab8:	eb00 00c2 	add.w	r0, r0, r2, lsl #3
20001abc:	f3ef 8e10 	mrs	lr, PRIMASK
20001ac0:	b672      	cpsid	i
20001ac2:	e8dc 4fcf 	ldaexb	r4, [ip]
20001ac6:	2201      	movs	r2, #1
20001ac8:	2c00      	cmp	r4, #0
20001aca:	d1fa      	bne.n	20001ac2 <alarm_pool_cancel_alarm+0x22>
20001acc:	e8cc 2f44 	strexb	r4, r2, [ip]
20001ad0:	2c00      	cmp	r4, #0
20001ad2:	d1f6      	bne.n	20001ac2 <alarm_pool_cancel_alarm+0x22>
20001ad4:	f3bf 8f5f 	dmb	sy
20001ad8:	8842      	ldrh	r2, [r0, #2]
20001ada:	b289      	uxth	r1, r1
20001adc:	b292      	uxth	r2, r2
20001ade:	428a      	cmp	r2, r1
20001ae0:	d007      	beq.n	20001af2 <alarm_pool_cancel_alarm+0x52>
20001ae2:	2200      	movs	r2, #0
20001ae4:	691b      	ldr	r3, [r3, #16]
20001ae6:	e8c3 2f8f 	stlb	r2, [r3]
20001aea:	f38e 8810 	msr	PRIMASK, lr
20001aee:	2000      	movs	r0, #0
20001af0:	bd10      	pop	{r4, pc}
20001af2:	ea6f 4242 	mvn.w	r2, r2, lsl #17
20001af6:	ea6f 4252 	mvn.w	r2, r2, lsr #17
20001afa:	8042      	strh	r2, [r0, #2]
20001afc:	2101      	movs	r1, #1
20001afe:	2200      	movs	r2, #0
20001b00:	6918      	ldr	r0, [r3, #16]
20001b02:	7199      	strb	r1, [r3, #6]
20001b04:	e8c0 2f8f 	stlb	r2, [r0]
20001b08:	f38e 8810 	msr	PRIMASK, lr
20001b0c:	f893 c000 	ldrb.w	ip, [r3]
20001b10:	68da      	ldr	r2, [r3, #12]
20001b12:	4608      	mov	r0, r1
20001b14:	f502 5301 	add.w	r3, r2, #8256	@ 0x2040
20001b18:	fa01 f10c 	lsl.w	r1, r1, ip
20001b1c:	6059      	str	r1, [r3, #4]
20001b1e:	bd10      	pop	{r4, pc}
20001b20:	2000      	movs	r0, #0
20001b22:	4770      	bx	lr

20001b24 <alarm_pool_core_num>:
20001b24:	7840      	ldrb	r0, [r0, #1]
20001b26:	4770      	bx	lr

20001b28 <sleep_us>:
20001b28:	e92d 41f0 	stmdb	sp!, {r4, r5, r6, r7, r8, lr}
20001b2c:	b082      	sub	sp, #8
20001b2e:	4604      	mov	r4, r0
20001b30:	460d      	mov	r5, r1
20001b32:	f000 f969 	bl	20001e08 <time_us_64>
20001b36:	f04f 32ff 	mov.w	r2, #4294967295	@ 0xffffffff
20001b3a:	f06f 4300 	mvn.w	r3, #2147483648	@ 0x80000000
20001b3e:	1824      	adds	r4, r4, r0
20001b40:	eb45 0501 	adc.w	r5, r5, r1
20001b44:	42a2      	cmp	r2, r4
20001b46:	eb73 0105 	sbcs.w	r1, r3, r5
20001b4a:	bf3c      	itt	cc
20001b4c:	4614      	movcc	r4, r2
20001b4e:	461d      	movcc	r5, r3
20001b50:	1fa6      	subs	r6, r4, #6
20001b52:	f145 37ff 	adc.w	r7, r5, #4294967295	@ 0xffffffff
20001b56:	42b4      	cmp	r4, r6
20001b58:	eb75 0307 	sbcs.w	r3, r5, r7
20001b5c:	bf3c      	itt	cc
20001b5e:	2600      	movcc	r6, #0
20001b60:	4637      	movcc	r7, r6
20001b62:	f000 f951 	bl	20001e08 <time_us_64>
20001b66:	1a30      	subs	r0, r6, r0
20001b68:	eb67 0101 	sbc.w	r1, r7, r1
20001b6c:	2801      	cmp	r0, #1
20001b6e:	f171 0100 	sbcs.w	r1, r1, #0
20001b72:	da06      	bge.n	20001b82 <sleep_us+0x5a>
20001b74:	4620      	mov	r0, r4
20001b76:	4629      	mov	r1, r5
20001b78:	b002      	add	sp, #8
20001b7a:	e8bd 41f0 	ldmia.w	sp!, {r4, r5, r6, r7, r8, lr}
20001b7e:	f000 b97d 	b.w	20001e7c <busy_wait_until>
20001b82:	f000 f941 	bl	20001e08 <time_us_64>
20001b86:	4286      	cmp	r6, r0
20001b88:	eb67 0101 	sbc.w	r1, r7, r1
20001b8c:	2900      	cmp	r1, #0
20001b8e:	db0a      	blt.n	20001ba6 <sleep_us+0x7e>
20001b90:	2100      	movs	r1, #0
20001b92:	4b17      	ldr	r3, [pc, #92]	@ (20001bf0 <sleep_us+0xc8>)
20001b94:	4632      	mov	r2, r6
20001b96:	9300      	str	r3, [sp, #0]
20001b98:	4816      	ldr	r0, [pc, #88]	@ (20001bf4 <sleep_us+0xcc>)
20001b9a:	463b      	mov	r3, r7
20001b9c:	9101      	str	r1, [sp, #4]
20001b9e:	f7ff ff19 	bl	200019d4 <alarm_pool_add_alarm_at_force_in_context>
20001ba2:	3001      	adds	r0, #1
20001ba4:	d0e6      	beq.n	20001b74 <sleep_us+0x4c>
20001ba6:	f04f 0c00 	mov.w	ip, #0
20001baa:	4a13      	ldr	r2, [pc, #76]	@ (20001bf8 <sleep_us+0xd0>)
20001bac:	4913      	ldr	r1, [pc, #76]	@ (20001bfc <sleep_us+0xd4>)
20001bae:	6a53      	ldr	r3, [r2, #36]	@ 0x24
20001bb0:	429f      	cmp	r7, r3
20001bb2:	d804      	bhi.n	20001bbe <sleep_us+0x96>
20001bb4:	6a90      	ldr	r0, [r2, #40]	@ 0x28
20001bb6:	42b0      	cmp	r0, r6
20001bb8:	d2dc      	bcs.n	20001b74 <sleep_us+0x4c>
20001bba:	429f      	cmp	r7, r3
20001bbc:	d1da      	bne.n	20001b74 <sleep_us+0x4c>
20001bbe:	680b      	ldr	r3, [r1, #0]
20001bc0:	f3ef 8010 	mrs	r0, PRIMASK
20001bc4:	b672      	cpsid	i
20001bc6:	e8d3 8fcf 	ldaexb	r8, [r3]
20001bca:	f05f 0e01 	movs.w	lr, #1
20001bce:	f1b8 0f00 	cmp.w	r8, #0
20001bd2:	d1f8      	bne.n	20001bc6 <sleep_us+0x9e>
20001bd4:	e8c3 ef48 	strexb	r8, lr, [r3]
20001bd8:	f1b8 0f00 	cmp.w	r8, #0
20001bdc:	d1f3      	bne.n	20001bc6 <sleep_us+0x9e>
20001bde:	f3bf 8f5f 	dmb	sy
20001be2:	680b      	ldr	r3, [r1, #0]
20001be4:	e8c3 cf8f 	stlb	ip, [r3]
20001be8:	f380 8810 	msr	PRIMASK, r0
20001bec:	bf20      	wfe
20001bee:	e7de      	b.n	20001bae <sleep_us+0x86>
20001bf0:	200014bd 	.word	0x200014bd
20001bf4:	20008ca4 	.word	0x20008ca4
20001bf8:	400b0000 	.word	0x400b0000
20001bfc:	20019b1c 	.word	0x20019b1c

20001c00 <sleep_ms>:
20001c00:	e92d 41f0 	stmdb	sp!, {r4, r5, r6, r7, r8, lr}
20001c04:	b082      	sub	sp, #8
20001c06:	4606      	mov	r6, r0
20001c08:	f000 f8fe 	bl	20001e08 <time_us_64>
20001c0c:	f44f 737a 	mov.w	r3, #1000	@ 0x3e8
20001c10:	4604      	mov	r4, r0
20001c12:	f04f 30ff 	mov.w	r0, #4294967295	@ 0xffffffff
20001c16:	f06f 4200 	mvn.w	r2, #2147483648	@ 0x80000000
20001c1a:	fbe6 4103 	umlal	r4, r1, r6, r3
20001c1e:	42a0      	cmp	r0, r4
20001c20:	eb72 0301 	sbcs.w	r3, r2, r1
20001c24:	bf3a      	itte	cc
20001c26:	4604      	movcc	r4, r0
20001c28:	4615      	movcc	r5, r2
20001c2a:	460d      	movcs	r5, r1
20001c2c:	1fa6      	subs	r6, r4, #6
20001c2e:	f145 37ff 	adc.w	r7, r5, #4294967295	@ 0xffffffff
20001c32:	42b4      	cmp	r4, r6
20001c34:	eb75 0307 	sbcs.w	r3, r5, r7
20001c38:	bf3c      	itt	cc
20001c3a:	2600      	movcc	r6, #0
20001c3c:	4637      	movcc	r7, r6
20001c3e:	f000 f8e3 	bl	20001e08 <time_us_64>
20001c42:	1a30      	subs	r0, r6, r0
20001c44:	eb67 0101 	sbc.w	r1, r7, r1
20001c48:	2801      	cmp	r0, #1
20001c4a:	f171 0100 	sbcs.w	r1, r1, #0
20001c4e:	da06      	bge.n	20001c5e <sleep_ms+0x5e>
20001c50:	4620      	mov	r0, r4
20001c52:	4629      	mov	r1, r5
20001c54:	b002      	add	sp, #8
20001c56:	e8bd 41f0 	ldmia.w	sp!, {r4, r5, r6, r7, r8, lr}
20001c5a:	f000 b90f 	b.w	20001e7c <busy_wait_until>
20001c5e:	f000 f8d3 	bl	20001e08 <time_us_64>
20001c62:	4286      	cmp	r6, r0
20001c64:	eb67 0101 	sbc.w	r1, r7, r1
20001c68:	2900      	cmp	r1, #0
20001c6a:	db0a      	blt.n	20001c82 <sleep_ms+0x82>
20001c6c:	2100      	movs	r1, #0
20001c6e:	4b17      	ldr	r3, [pc, #92]	@ (20001ccc <sleep_ms+0xcc>)
20001c70:	4632      	mov	r2, r6
20001c72:	9300      	str	r3, [sp, #0]
20001c74:	4816      	ldr	r0, [pc, #88]	@ (20001cd0 <sleep_ms+0xd0>)
20001c76:	463b      	mov	r3, r7
20001c78:	9101      	str	r1, [sp, #4]
20001c7a:	f7ff feab 	bl	200019d4 <alarm_pool_add_alarm_at_force_in_context>
20001c7e:	3001      	adds	r0, #1
20001c80:	d0e6      	beq.n	20001c50 <sleep_ms+0x50>
20001c82:	f04f 0c00 	mov.w	ip, #0
20001c86:	4a13      	ldr	r2, [pc, #76]	@ (20001cd4 <sleep_ms+0xd4>)
20001c88:	4913      	ldr	r1, [pc, #76]	@ (20001cd8 <sleep_ms+0xd8>)
20001c8a:	6a53      	ldr	r3, [r2, #36]	@ 0x24
20001c8c:	429f      	cmp	r7, r3
20001c8e:	d804      	bhi.n	20001c9a <sleep_ms+0x9a>
20001c90:	6a90      	ldr	r0, [r2, #40]	@ 0x28
20001c92:	42b0      	cmp	r0, r6
20001c94:	d2dc      	bcs.n	20001c50 <sleep_ms+0x50>
20001c96:	429f      	cmp	r7, r3
20001c98:	d1da      	bne.n	20001c50 <sleep_ms+0x50>
20001c9a:	680b      	ldr	r3, [r1, #0]
20001c9c:	f3ef 8010 	mrs	r0, PRIMASK
20001ca0:	b672      	cpsid	i
20001ca2:	e8d3 8fcf 	ldaexb	r8, [r3]
20001ca6:	f05f 0e01 	movs.w	lr, #1
20001caa:	f1b8 0f00 	cmp.w	r8, #0
20001cae:	d1f8      	bne.n	20001ca2 <sleep_ms+0xa2>
20001cb0:	e8c3 ef48 	strexb	r8, lr, [r3]
20001cb4:	f1b8 0f00 	cmp.w	r8, #0
20001cb8:	d1f3      	bne.n	20001ca2 <sleep_ms+0xa2>
20001cba:	f3bf 8f5f 	dmb	sy
20001cbe:	680b      	ldr	r3, [r1, #0]
20001cc0:	e8c3 cf8f 	stlb	ip, [r3]
20001cc4:	f380 8810 	msr	PRIMASK, r0
20001cc8:	bf20      	wfe
20001cca:	e7de      	b.n	20001c8a <sleep_ms+0x8a>
20001ccc:	200014bd 	.word	0x200014bd
20001cd0:	20008ca4 	.word	0x20008ca4
20001cd4:	400b0000 	.word	0x400b0000
20001cd8:	20019b1c 	.word	0x20019b1c

20001cdc <best_effort_wfe_or_timeout>:
20001cdc:	f3ef 8205 	mrs	r2, IPSR
20001ce0:	b2d2      	uxtb	r2, r2
20001ce2:	b182      	cbz	r2, 20001d06 <best_effort_wfe_or_timeout+0x2a>
20001ce4:	4b38      	ldr	r3, [pc, #224]	@ (20001dc8 <best_effort_wfe_or_timeout+0xec>)
20001ce6:	6a5a      	ldr	r2, [r3, #36]	@ 0x24
20001ce8:	428a      	cmp	r2, r1
20001cea:	d202      	bcs.n	20001cf2 <best_effort_wfe_or_timeout+0x16>
20001cec:	2200      	movs	r2, #0
20001cee:	4610      	mov	r0, r2
20001cf0:	4770      	bx	lr
20001cf2:	bf14      	ite	ne
20001cf4:	2201      	movne	r2, #1
20001cf6:	2200      	moveq	r2, #0
20001cf8:	6a9b      	ldr	r3, [r3, #40]	@ 0x28
20001cfa:	4283      	cmp	r3, r0
20001cfc:	bf28      	it	cs
20001cfe:	f042 0201 	orrcs.w	r2, r2, #1
20001d02:	4610      	mov	r0, r2
20001d04:	4770      	bx	lr
20001d06:	b570      	push	{r4, r5, r6, lr}
20001d08:	b084      	sub	sp, #16
20001d0a:	9203      	str	r2, [sp, #12]
20001d0c:	4a2f      	ldr	r2, [pc, #188]	@ (20001dcc <best_effort_wfe_or_timeout+0xf0>)
20001d0e:	4606      	mov	r6, r0
20001d10:	68d3      	ldr	r3, [r2, #12]
20001d12:	7815      	ldrb	r5, [r2, #0]
20001d14:	4618      	mov	r0, r3
20001d16:	460c      	mov	r4, r1
20001d18:	9302      	str	r3, [sp, #8]
20001d1a:	f000 f86d 	bl	20001df8 <timer_time_us_64>
20001d1e:	9b02      	ldr	r3, [sp, #8]
20001d20:	f105 0c04 	add.w	ip, r5, #4
20001d24:	f853 c02c 	ldr.w	ip, [r3, ip, lsl #2]
20001d28:	9a03      	ldr	r2, [sp, #12]
20001d2a:	ebac 0c00 	sub.w	ip, ip, r0
20001d2e:	1a30      	subs	r0, r6, r0
20001d30:	eb64 0101 	sbc.w	r1, r4, r1
20001d34:	4560      	cmp	r0, ip
20001d36:	f171 0100 	sbcs.w	r1, r1, #0
20001d3a:	db0f      	blt.n	20001d5c <best_effort_wfe_or_timeout+0x80>
20001d3c:	bf20      	wfe
20001d3e:	4b22      	ldr	r3, [pc, #136]	@ (20001dc8 <best_effort_wfe_or_timeout+0xec>)
20001d40:	6a59      	ldr	r1, [r3, #36]	@ 0x24
20001d42:	42a1      	cmp	r1, r4
20001d44:	d307      	bcc.n	20001d56 <best_effort_wfe_or_timeout+0x7a>
20001d46:	bf14      	ite	ne
20001d48:	2201      	movne	r2, #1
20001d4a:	2200      	moveq	r2, #0
20001d4c:	6a9b      	ldr	r3, [r3, #40]	@ 0x28
20001d4e:	42b3      	cmp	r3, r6
20001d50:	bf28      	it	cs
20001d52:	f042 0201 	orrcs.w	r2, r2, #1
20001d56:	4610      	mov	r0, r2
20001d58:	b004      	add	sp, #16
20001d5a:	bd70      	pop	{r4, r5, r6, pc}
20001d5c:	9202      	str	r2, [sp, #8]
20001d5e:	f000 f853 	bl	20001e08 <time_us_64>
20001d62:	4286      	cmp	r6, r0
20001d64:	eb64 0101 	sbc.w	r1, r4, r1
20001d68:	2900      	cmp	r1, #0
20001d6a:	9a02      	ldr	r2, [sp, #8]
20001d6c:	db1b      	blt.n	20001da6 <best_effort_wfe_or_timeout+0xca>
20001d6e:	4918      	ldr	r1, [pc, #96]	@ (20001dd0 <best_effort_wfe_or_timeout+0xf4>)
20001d70:	4623      	mov	r3, r4
20001d72:	e9cd 1200 	strd	r1, r2, [sp]
20001d76:	4815      	ldr	r0, [pc, #84]	@ (20001dcc <best_effort_wfe_or_timeout+0xf0>)
20001d78:	4632      	mov	r2, r6
20001d7a:	f7ff fe2b 	bl	200019d4 <alarm_pool_add_alarm_at_force_in_context>
20001d7e:	1e01      	subs	r1, r0, #0
20001d80:	dd11      	ble.n	20001da6 <best_effort_wfe_or_timeout+0xca>
20001d82:	4b11      	ldr	r3, [pc, #68]	@ (20001dc8 <best_effort_wfe_or_timeout+0xec>)
20001d84:	6a5a      	ldr	r2, [r3, #36]	@ 0x24
20001d86:	42a2      	cmp	r2, r4
20001d88:	d31c      	bcc.n	20001dc4 <best_effort_wfe_or_timeout+0xe8>
20001d8a:	6a9b      	ldr	r3, [r3, #40]	@ 0x28
20001d8c:	42b3      	cmp	r3, r6
20001d8e:	d317      	bcc.n	20001dc0 <best_effort_wfe_or_timeout+0xe4>
20001d90:	480e      	ldr	r0, [pc, #56]	@ (20001dcc <best_effort_wfe_or_timeout+0xf0>)
20001d92:	f7ff fe85 	bl	20001aa0 <alarm_pool_cancel_alarm>
20001d96:	4b0c      	ldr	r3, [pc, #48]	@ (20001dc8 <best_effort_wfe_or_timeout+0xec>)
20001d98:	6a5a      	ldr	r2, [r3, #36]	@ 0x24
20001d9a:	42a2      	cmp	r2, r4
20001d9c:	d2d3      	bcs.n	20001d46 <best_effort_wfe_or_timeout+0x6a>
20001d9e:	2200      	movs	r2, #0
20001da0:	4610      	mov	r0, r2
20001da2:	b004      	add	sp, #16
20001da4:	bd70      	pop	{r4, r5, r6, pc}
20001da6:	4b08      	ldr	r3, [pc, #32]	@ (20001dc8 <best_effort_wfe_or_timeout+0xec>)
20001da8:	6a5a      	ldr	r2, [r3, #36]	@ 0x24
20001daa:	42a2      	cmp	r2, r4
20001dac:	d3f7      	bcc.n	20001d9e <best_effort_wfe_or_timeout+0xc2>
20001dae:	1b12      	subs	r2, r2, r4
20001db0:	bf18      	it	ne
20001db2:	2201      	movne	r2, #1
20001db4:	6a9b      	ldr	r3, [r3, #40]	@ 0x28
20001db6:	42b3      	cmp	r3, r6
20001db8:	bf28      	it	cs
20001dba:	f042 0201 	orrcs.w	r2, r2, #1
20001dbe:	e7ca      	b.n	20001d56 <best_effort_wfe_or_timeout+0x7a>
20001dc0:	42a2      	cmp	r2, r4
20001dc2:	d1e5      	bne.n	20001d90 <best_effort_wfe_or_timeout+0xb4>
20001dc4:	bf20      	wfe
20001dc6:	e7e3      	b.n	20001d90 <best_effort_wfe_or_timeout+0xb4>
20001dc8:	400b0000 	.word	0x400b0000
20001dcc:	20008ca4 	.word	0x20008ca4
20001dd0:	200014bd 	.word	0x200014bd

20001dd4 <timer_hardware_alarm_claim>:
20001dd4:	b410      	push	{r4}
20001dd6:	4b05      	ldr	r3, [pc, #20]	@ (20001dec <timer_hardware_alarm_claim+0x18>)
20001dd8:	4c05      	ldr	r4, [pc, #20]	@ (20001df0 <timer_hardware_alarm_claim+0x1c>)
20001dda:	4a06      	ldr	r2, [pc, #24]	@ (20001df4 <timer_hardware_alarm_claim+0x20>)
20001ddc:	42a0      	cmp	r0, r4
20001dde:	bf14      	ite	ne
20001de0:	4618      	movne	r0, r3
20001de2:	1c58      	addeq	r0, r3, #1
20001de4:	bc10      	pop	{r4}
20001de6:	f7ff b845 	b.w	20000e74 <hw_claim_or_assert>
20001dea:	bf00      	nop
20001dec:	20009670 	.word	0x20009670
20001df0:	400b8000 	.word	0x400b8000
20001df4:	20008460 	.word	0x20008460

20001df8 <timer_time_us_64>:
20001df8:	4603      	mov	r3, r0
20001dfa:	6a41      	ldr	r1, [r0, #36]	@ 0x24
20001dfc:	460a      	mov	r2, r1
20001dfe:	6a98      	ldr	r0, [r3, #40]	@ 0x28
20001e00:	6a59      	ldr	r1, [r3, #36]	@ 0x24
20001e02:	428a      	cmp	r2, r1
20001e04:	d1fa      	bne.n	20001dfc <timer_time_us_64+0x4>
20001e06:	4770      	bx	lr

20001e08 <time_us_64>:
20001e08:	4b03      	ldr	r3, [pc, #12]	@ (20001e18 <time_us_64+0x10>)
20001e0a:	6a59      	ldr	r1, [r3, #36]	@ 0x24
20001e0c:	460a      	mov	r2, r1
20001e0e:	6a98      	ldr	r0, [r3, #40]	@ 0x28
20001e10:	6a59      	ldr	r1, [r3, #36]	@ 0x24
20001e12:	4291      	cmp	r1, r2
20001e14:	d1fa      	bne.n	20001e0c <time_us_64+0x4>
20001e16:	4770      	bx	lr
20001e18:	400b0000 	.word	0x400b0000

20001e1c <busy_wait_us>:
20001e1c:	b500      	push	{lr}
20001e1e:	468e      	mov	lr, r1
20001e20:	4a15      	ldr	r2, [pc, #84]	@ (20001e78 <busy_wait_us+0x5c>)
20001e22:	6a53      	ldr	r3, [r2, #36]	@ 0x24
20001e24:	469c      	mov	ip, r3
20001e26:	6a91      	ldr	r1, [r2, #40]	@ 0x28
20001e28:	6a53      	ldr	r3, [r2, #36]	@ 0x24
20001e2a:	4563      	cmp	r3, ip
20001e2c:	d1fa      	bne.n	20001e24 <busy_wait_us+0x8>
20001e2e:	1840      	adds	r0, r0, r1
20001e30:	eb53 030e 	adcs.w	r3, r3, lr
20001e34:	f04f 0200 	mov.w	r2, #0
20001e38:	bf28      	it	cs
20001e3a:	2201      	movcs	r2, #1
20001e3c:	b1ba      	cbz	r2, 20001e6e <busy_wait_us+0x52>
20001e3e:	4b0e      	ldr	r3, [pc, #56]	@ (20001e78 <busy_wait_us+0x5c>)
20001e40:	6a5a      	ldr	r2, [r3, #36]	@ 0x24
20001e42:	1c53      	adds	r3, r2, #1
20001e44:	bf08      	it	eq
20001e46:	4610      	moveq	r0, r2
20001e48:	d008      	beq.n	20001e5c <busy_wait_us+0x40>
20001e4a:	f04f 33ff 	mov.w	r3, #4294967295	@ 0xffffffff
20001e4e:	4618      	mov	r0, r3
20001e50:	4909      	ldr	r1, [pc, #36]	@ (20001e78 <busy_wait_us+0x5c>)
20001e52:	6a4a      	ldr	r2, [r1, #36]	@ 0x24
20001e54:	429a      	cmp	r2, r3
20001e56:	d3fc      	bcc.n	20001e52 <busy_wait_us+0x36>
20001e58:	429a      	cmp	r2, r3
20001e5a:	d107      	bne.n	20001e6c <busy_wait_us+0x50>
20001e5c:	4b06      	ldr	r3, [pc, #24]	@ (20001e78 <busy_wait_us+0x5c>)
20001e5e:	e002      	b.n	20001e66 <busy_wait_us+0x4a>
20001e60:	6a59      	ldr	r1, [r3, #36]	@ 0x24
20001e62:	4291      	cmp	r1, r2
20001e64:	d102      	bne.n	20001e6c <busy_wait_us+0x50>
20001e66:	6a99      	ldr	r1, [r3, #40]	@ 0x28
20001e68:	4281      	cmp	r1, r0
20001e6a:	d3f9      	bcc.n	20001e60 <busy_wait_us+0x44>
20001e6c:	bd00      	pop	{pc}
20001e6e:	4a02      	ldr	r2, [pc, #8]	@ (20001e78 <busy_wait_us+0x5c>)
20001e70:	6a52      	ldr	r2, [r2, #36]	@ 0x24
20001e72:	4293      	cmp	r3, r2
20001e74:	d8ec      	bhi.n	20001e50 <busy_wait_us+0x34>
20001e76:	e7ef      	b.n	20001e58 <busy_wait_us+0x3c>
20001e78:	400b0000 	.word	0x400b0000

20001e7c <busy_wait_until>:
20001e7c:	4a07      	ldr	r2, [pc, #28]	@ (20001e9c <busy_wait_until+0x20>)
20001e7e:	6a53      	ldr	r3, [r2, #36]	@ 0x24
20001e80:	4299      	cmp	r1, r3
20001e82:	d8fc      	bhi.n	20001e7e <busy_wait_until+0x2>
20001e84:	4299      	cmp	r1, r3
20001e86:	d107      	bne.n	20001e98 <busy_wait_until+0x1c>
20001e88:	4b04      	ldr	r3, [pc, #16]	@ (20001e9c <busy_wait_until+0x20>)
20001e8a:	e002      	b.n	20001e92 <busy_wait_until+0x16>
20001e8c:	6a5a      	ldr	r2, [r3, #36]	@ 0x24
20001e8e:	4291      	cmp	r1, r2
20001e90:	d102      	bne.n	20001e98 <busy_wait_until+0x1c>
20001e92:	6a9a      	ldr	r2, [r3, #40]	@ 0x28
20001e94:	4290      	cmp	r0, r2
20001e96:	d8f9      	bhi.n	20001e8c <busy_wait_until+0x10>
20001e98:	4770      	bx	lr
20001e9a:	bf00      	nop
20001e9c:	400b0000 	.word	0x400b0000

20001ea0 <clock_configure_undivided>:
20001ea0:	eb00 0c40 	add.w	ip, r0, r0, lsl #1
20001ea4:	ea4f 0c8c 	mov.w	ip, ip, lsl #2
20001ea8:	f10c 4c80 	add.w	ip, ip, #1073741824	@ 0x40000000
20001eac:	f50c 3c80 	add.w	ip, ip, #65536	@ 0x10000
20001eb0:	b570      	push	{r4, r5, r6, lr}
20001eb2:	461e      	mov	r6, r3
20001eb4:	f8dc 3004 	ldr.w	r3, [ip, #4]
20001eb8:	1f04      	subs	r4, r0, #4
20001eba:	f5b3 3f80 	cmp.w	r3, #65536	@ 0x10000
20001ebe:	bf38      	it	cc
20001ec0:	f44f 3380 	movcc.w	r3, #65536	@ 0x10000
20001ec4:	b2e4      	uxtb	r4, r4
20001ec6:	bf38      	it	cc
20001ec8:	f8cc 3004 	strcc.w	r3, [ip, #4]
20001ecc:	2c01      	cmp	r4, #1
20001ece:	d92e      	bls.n	20001f2e <clock_configure_undivided+0x8e>
20001ed0:	f44f 6500 	mov.w	r5, #2048	@ 0x800
20001ed4:	4b28      	ldr	r3, [pc, #160]	@ (20001f78 <clock_configure_undivided+0xd8>)
20001ed6:	f50c 5e40 	add.w	lr, ip, #12288	@ 0x3000
20001eda:	f8ce 5000 	str.w	r5, [lr]
20001ede:	f853 e020 	ldr.w	lr, [r3, r0, lsl #2]
20001ee2:	f1be 0f00 	cmp.w	lr, #0
20001ee6:	d117      	bne.n	20001f18 <clock_configure_undivided+0x78>
20001ee8:	f8dc e000 	ldr.w	lr, [ip]
20001eec:	2c01      	cmp	r4, #1
20001eee:	ea8e 1242 	eor.w	r2, lr, r2, lsl #5
20001ef2:	f002 02e0 	and.w	r2, r2, #224	@ 0xe0
20001ef6:	f50c 5e80 	add.w	lr, ip, #4096	@ 0x1000
20001efa:	f8ce 2000 	str.w	r2, [lr]
20001efe:	d92b      	bls.n	20001f58 <clock_configure_undivided+0xb8>
20001f00:	f44f 6100 	mov.w	r1, #2048	@ 0x800
20001f04:	f843 6020 	str.w	r6, [r3, r0, lsl #2]
20001f08:	f44f 3380 	mov.w	r3, #65536	@ 0x10000
20001f0c:	f50c 5200 	add.w	r2, ip, #8192	@ 0x2000
20001f10:	6011      	str	r1, [r2, #0]
20001f12:	f8cc 3004 	str.w	r3, [ip, #4]
20001f16:	bd70      	pop	{r4, r5, r6, pc}
20001f18:	695d      	ldr	r5, [r3, #20]
20001f1a:	fbb5 fefe 	udiv	lr, r5, lr
20001f1e:	f10e 0e01 	add.w	lr, lr, #1
20001f22:	eb0e 0e4e 	add.w	lr, lr, lr, lsl #1
20001f26:	f1be 0e03 	subs.w	lr, lr, #3
20001f2a:	d2fc      	bcs.n	20001f26 <clock_configure_undivided+0x86>
20001f2c:	e7dc      	b.n	20001ee8 <clock_configure_undivided+0x48>
20001f2e:	2901      	cmp	r1, #1
20001f30:	d1ce      	bne.n	20001ed0 <clock_configure_undivided+0x30>
20001f32:	2403      	movs	r4, #3
20001f34:	f50c 5340 	add.w	r3, ip, #12288	@ 0x3000
20001f38:	601c      	str	r4, [r3, #0]
20001f3a:	f8dc 3008 	ldr.w	r3, [ip, #8]
20001f3e:	07db      	lsls	r3, r3, #31
20001f40:	d5fb      	bpl.n	20001f3a <clock_configure_undivided+0x9a>
20001f42:	f8dc 3000 	ldr.w	r3, [ip]
20001f46:	f50c 5e80 	add.w	lr, ip, #4096	@ 0x1000
20001f4a:	ea83 1342 	eor.w	r3, r3, r2, lsl #5
20001f4e:	f003 03e0 	and.w	r3, r3, #224	@ 0xe0
20001f52:	f8ce 3000 	str.w	r3, [lr]
20001f56:	4b08      	ldr	r3, [pc, #32]	@ (20001f78 <clock_configure_undivided+0xd8>)
20001f58:	2201      	movs	r2, #1
20001f5a:	f8dc 4000 	ldr.w	r4, [ip]
20001f5e:	404c      	eors	r4, r1
20001f60:	f004 0403 	and.w	r4, r4, #3
20001f64:	f8ce 4000 	str.w	r4, [lr]
20001f68:	fa02 f101 	lsl.w	r1, r2, r1
20001f6c:	f8dc 2008 	ldr.w	r2, [ip, #8]
20001f70:	420a      	tst	r2, r1
20001f72:	d0fb      	beq.n	20001f6c <clock_configure_undivided+0xcc>
20001f74:	e7c4      	b.n	20001f00 <clock_configure_undivided+0x60>
20001f76:	bf00      	nop
20001f78:	20009674 	.word	0x20009674

20001f7c <clock_get_hz>:
20001f7c:	4b01      	ldr	r3, [pc, #4]	@ (20001f84 <clock_get_hz+0x8>)
20001f7e:	f853 0020 	ldr.w	r0, [r3, r0, lsl #2]
20001f82:	4770      	bx	lr
20001f84:	20009674 	.word	0x20009674

20001f88 <set_sys_clock_pll>:
20001f88:	e92d 41f0 	stmdb	sp!, {r4, r5, r6, r7, r8, lr}
20001f8c:	4c58      	ldr	r4, [pc, #352]	@ (200020f0 <set_sys_clock_pll+0x168>)
20001f8e:	4606      	mov	r6, r0
20001f90:	6c20      	ldr	r0, [r4, #64]	@ 0x40
20001f92:	4617      	mov	r7, r2
20001f94:	f5b0 3f80 	cmp.w	r0, #65536	@ 0x10000
20001f98:	bf38      	it	cc
20001f9a:	f44f 3280 	movcc.w	r2, #65536	@ 0x10000
20001f9e:	460b      	mov	r3, r1
20001fa0:	f04f 0103 	mov.w	r1, #3
20001fa4:	b084      	sub	sp, #16
20001fa6:	bf38      	it	cc
20001fa8:	6422      	strcc	r2, [r4, #64]	@ 0x40
20001faa:	4a52      	ldr	r2, [pc, #328]	@ (200020f4 <set_sys_clock_pll+0x16c>)
20001fac:	4c50      	ldr	r4, [pc, #320]	@ (200020f0 <set_sys_clock_pll+0x168>)
20001fae:	63d1      	str	r1, [r2, #60]	@ 0x3c
20001fb0:	6c62      	ldr	r2, [r4, #68]	@ 0x44
20001fb2:	07d2      	lsls	r2, r2, #31
20001fb4:	d5fc      	bpl.n	20001fb0 <set_sys_clock_pll+0x28>
20001fb6:	6be2      	ldr	r2, [r4, #60]	@ 0x3c
20001fb8:	494f      	ldr	r1, [pc, #316]	@ (200020f8 <set_sys_clock_pll+0x170>)
20001fba:	f082 0220 	eor.w	r2, r2, #32
20001fbe:	f002 02e0 	and.w	r2, r2, #224	@ 0xe0
20001fc2:	63ca      	str	r2, [r1, #60]	@ 0x3c
20001fc4:	6be2      	ldr	r2, [r4, #60]	@ 0x3c
20001fc6:	4c4a      	ldr	r4, [pc, #296]	@ (200020f0 <set_sys_clock_pll+0x168>)
20001fc8:	f082 0201 	eor.w	r2, r2, #1
20001fcc:	f002 0203 	and.w	r2, r2, #3
20001fd0:	63ca      	str	r2, [r1, #60]	@ 0x3c
20001fd2:	6c62      	ldr	r2, [r4, #68]	@ 0x44
20001fd4:	0795      	lsls	r5, r2, #30
20001fd6:	d5fc      	bpl.n	20001fd2 <set_sys_clock_pll+0x4a>
20001fd8:	f44f 6100 	mov.w	r1, #2048	@ 0x800
20001fdc:	f44f 3880 	mov.w	r8, #65536	@ 0x10000
20001fe0:	4a46      	ldr	r2, [pc, #280]	@ (200020fc <set_sys_clock_pll+0x174>)
20001fe2:	4d47      	ldr	r5, [pc, #284]	@ (20002100 <set_sys_clock_pll+0x178>)
20001fe4:	63d1      	str	r1, [r2, #60]	@ 0x3c
20001fe6:	4a47      	ldr	r2, [pc, #284]	@ (20002104 <set_sys_clock_pll+0x17c>)
20001fe8:	9303      	str	r3, [sp, #12]
20001fea:	616a      	str	r2, [r5, #20]
20001fec:	2101      	movs	r1, #1
20001fee:	4632      	mov	r2, r6
20001ff0:	f8c4 8040 	str.w	r8, [r4, #64]	@ 0x40
20001ff4:	4844      	ldr	r0, [pc, #272]	@ (20002108 <set_sys_clock_pll+0x180>)
20001ff6:	9700      	str	r7, [sp, #0]
20001ff8:	f000 f946 	bl	20002288 <pll_init>
20001ffc:	f44f 6100 	mov.w	r1, #2048	@ 0x800
20002000:	9b03      	ldr	r3, [sp, #12]
20002002:	fb07 f303 	mul.w	r3, r7, r3
20002006:	fbb6 f6f3 	udiv	r6, r6, r3
2000200a:	6b63      	ldr	r3, [r4, #52]	@ 0x34
2000200c:	4543      	cmp	r3, r8
2000200e:	bf38      	it	cc
20002010:	f8c4 8034 	strcc.w	r8, [r4, #52]	@ 0x34
20002014:	4b37      	ldr	r3, [pc, #220]	@ (200020f4 <set_sys_clock_pll+0x16c>)
20002016:	692a      	ldr	r2, [r5, #16]
20002018:	6319      	str	r1, [r3, #48]	@ 0x30
2000201a:	b13a      	cbz	r2, 2000202c <set_sys_clock_pll+0xa4>
2000201c:	696b      	ldr	r3, [r5, #20]
2000201e:	fbb3 f3f2 	udiv	r3, r3, r2
20002022:	3301      	adds	r3, #1
20002024:	eb03 0343 	add.w	r3, r3, r3, lsl #1
20002028:	3b03      	subs	r3, #3
2000202a:	d2fd      	bcs.n	20002028 <set_sys_clock_pll+0xa0>
2000202c:	4930      	ldr	r1, [pc, #192]	@ (200020f0 <set_sys_clock_pll+0x168>)
2000202e:	4a32      	ldr	r2, [pc, #200]	@ (200020f8 <set_sys_clock_pll+0x170>)
20002030:	6b0b      	ldr	r3, [r1, #48]	@ 0x30
20002032:	f003 03e0 	and.w	r3, r3, #224	@ 0xe0
20002036:	6313      	str	r3, [r2, #48]	@ 0x30
20002038:	6b0b      	ldr	r3, [r1, #48]	@ 0x30
2000203a:	f083 0302 	eor.w	r3, r3, #2
2000203e:	f003 0303 	and.w	r3, r3, #3
20002042:	6313      	str	r3, [r2, #48]	@ 0x30
20002044:	6b8b      	ldr	r3, [r1, #56]	@ 0x38
20002046:	0758      	lsls	r0, r3, #29
20002048:	d5fc      	bpl.n	20002044 <set_sys_clock_pll+0xbc>
2000204a:	f44f 6400 	mov.w	r4, #2048	@ 0x800
2000204e:	f44f 3380 	mov.w	r3, #65536	@ 0x10000
20002052:	4a2a      	ldr	r2, [pc, #168]	@ (200020fc <set_sys_clock_pll+0x174>)
20002054:	6314      	str	r4, [r2, #48]	@ 0x30
20002056:	4a2d      	ldr	r2, [pc, #180]	@ (2000210c <set_sys_clock_pll+0x184>)
20002058:	634b      	str	r3, [r1, #52]	@ 0x34
2000205a:	612a      	str	r2, [r5, #16]
2000205c:	6c0a      	ldr	r2, [r1, #64]	@ 0x40
2000205e:	4c24      	ldr	r4, [pc, #144]	@ (200020f0 <set_sys_clock_pll+0x168>)
20002060:	429a      	cmp	r2, r3
20002062:	f04f 0203 	mov.w	r2, #3
20002066:	bf38      	it	cc
20002068:	640b      	strcc	r3, [r1, #64]	@ 0x40
2000206a:	4b22      	ldr	r3, [pc, #136]	@ (200020f4 <set_sys_clock_pll+0x16c>)
2000206c:	63da      	str	r2, [r3, #60]	@ 0x3c
2000206e:	6c63      	ldr	r3, [r4, #68]	@ 0x44
20002070:	07da      	lsls	r2, r3, #31
20002072:	d5fc      	bpl.n	2000206e <set_sys_clock_pll+0xe6>
20002074:	6be3      	ldr	r3, [r4, #60]	@ 0x3c
20002076:	4a20      	ldr	r2, [pc, #128]	@ (200020f8 <set_sys_clock_pll+0x170>)
20002078:	f003 03e0 	and.w	r3, r3, #224	@ 0xe0
2000207c:	63d3      	str	r3, [r2, #60]	@ 0x3c
2000207e:	6be3      	ldr	r3, [r4, #60]	@ 0x3c
20002080:	491b      	ldr	r1, [pc, #108]	@ (200020f0 <set_sys_clock_pll+0x168>)
20002082:	f083 0301 	eor.w	r3, r3, #1
20002086:	f003 0303 	and.w	r3, r3, #3
2000208a:	63d3      	str	r3, [r2, #60]	@ 0x3c
2000208c:	6c4b      	ldr	r3, [r1, #68]	@ 0x44
2000208e:	079b      	lsls	r3, r3, #30
20002090:	d5fc      	bpl.n	2000208c <set_sys_clock_pll+0x104>
20002092:	f44f 3380 	mov.w	r3, #65536	@ 0x10000
20002096:	f44f 6400 	mov.w	r4, #2048	@ 0x800
2000209a:	4a18      	ldr	r2, [pc, #96]	@ (200020fc <set_sys_clock_pll+0x174>)
2000209c:	616e      	str	r6, [r5, #20]
2000209e:	63d4      	str	r4, [r2, #60]	@ 0x3c
200020a0:	640b      	str	r3, [r1, #64]	@ 0x40
200020a2:	6cca      	ldr	r2, [r1, #76]	@ 0x4c
200020a4:	429a      	cmp	r2, r3
200020a6:	bf38      	it	cc
200020a8:	64cb      	strcc	r3, [r1, #76]	@ 0x4c
200020aa:	f44f 6100 	mov.w	r1, #2048	@ 0x800
200020ae:	4b11      	ldr	r3, [pc, #68]	@ (200020f4 <set_sys_clock_pll+0x16c>)
200020b0:	69aa      	ldr	r2, [r5, #24]
200020b2:	6499      	str	r1, [r3, #72]	@ 0x48
200020b4:	b13a      	cbz	r2, 200020c6 <set_sys_clock_pll+0x13e>
200020b6:	696b      	ldr	r3, [r5, #20]
200020b8:	fbb3 f3f2 	udiv	r3, r3, r2
200020bc:	3301      	adds	r3, #1
200020be:	eb03 0343 	add.w	r3, r3, r3, lsl #1
200020c2:	3b03      	subs	r3, #3
200020c4:	d2fd      	bcs.n	200020c2 <set_sys_clock_pll+0x13a>
200020c6:	f44f 6000 	mov.w	r0, #2048	@ 0x800
200020ca:	f44f 3180 	mov.w	r1, #65536	@ 0x10000
200020ce:	4a08      	ldr	r2, [pc, #32]	@ (200020f0 <set_sys_clock_pll+0x168>)
200020d0:	4c09      	ldr	r4, [pc, #36]	@ (200020f8 <set_sys_clock_pll+0x170>)
200020d2:	6c93      	ldr	r3, [r2, #72]	@ 0x48
200020d4:	f083 0340 	eor.w	r3, r3, #64	@ 0x40
200020d8:	f003 03e0 	and.w	r3, r3, #224	@ 0xe0
200020dc:	64a3      	str	r3, [r4, #72]	@ 0x48
200020de:	4b07      	ldr	r3, [pc, #28]	@ (200020fc <set_sys_clock_pll+0x174>)
200020e0:	4c08      	ldr	r4, [pc, #32]	@ (20002104 <set_sys_clock_pll+0x17c>)
200020e2:	61ac      	str	r4, [r5, #24]
200020e4:	6498      	str	r0, [r3, #72]	@ 0x48
200020e6:	64d1      	str	r1, [r2, #76]	@ 0x4c
200020e8:	b004      	add	sp, #16
200020ea:	e8bd 81f0 	ldmia.w	sp!, {r4, r5, r6, r7, r8, pc}
200020ee:	bf00      	nop
200020f0:	40010000 	.word	0x40010000
200020f4:	40013000 	.word	0x40013000
200020f8:	40011000 	.word	0x40011000
200020fc:	40012000 	.word	0x40012000
20002100:	20009674 	.word	0x20009674
20002104:	02dc6c00 	.word	0x02dc6c00
20002108:	40050000 	.word	0x40050000
2000210c:	00b71b00 	.word	0x00b71b00

20002110 <check_sys_clock_khz>:
20002110:	e92d 4ff0 	stmdb	sp!, {r4, r5, r6, r7, r8, r9, sl, fp, lr}
20002114:	f44f 78a0 	mov.w	r8, #320	@ 0x140
20002118:	4696      	mov	lr, r2
2000211a:	b085      	sub	sp, #20
2000211c:	9103      	str	r1, [sp, #12]
2000211e:	f8df 9164 	ldr.w	r9, [pc, #356]	@ 20002284 <check_sys_clock_khz+0x174>
20002122:	4956      	ldr	r1, [pc, #344]	@ (2000227c <check_sys_clock_khz+0x16c>)
20002124:	9301      	str	r3, [sp, #4]
20002126:	4549      	cmp	r1, r9
20002128:	d90a      	bls.n	20002140 <check_sys_clock_khz+0x30>
2000212a:	f108 38ff 	add.w	r8, r8, #4294967295	@ 0xffffffff
2000212e:	f5a1 513b 	sub.w	r1, r1, #11968	@ 0x2ec0
20002132:	f1b8 0f0f 	cmp.w	r8, #15
20002136:	f1a1 0120 	sub.w	r1, r1, #32
2000213a:	d1f4      	bne.n	20002126 <check_sys_clock_khz+0x16>
2000213c:	2000      	movs	r0, #0
2000213e:	e066      	b.n	2000220e <check_sys_clock_khz+0xfe>
20002140:	2307      	movs	r3, #7
20002142:	f501 2237 	add.w	r2, r1, #749568	@ 0xb7000
20002146:	9102      	str	r1, [sp, #8]
20002148:	fb03 f103 	mul.w	r1, r3, r3
2000214c:	f502 72d8 	add.w	r2, r2, #432	@ 0x1b0
20002150:	fbb2 faf1 	udiv	sl, r2, r1
20002154:	4582      	cmp	sl, r0
20002156:	f04f 0c01 	mov.w	ip, #1
2000215a:	f04f 0702 	mov.w	r7, #2
2000215e:	f04f 0603 	mov.w	r6, #3
20002162:	f04f 0504 	mov.w	r5, #4
20002166:	f04f 0405 	mov.w	r4, #5
2000216a:	d03f      	beq.n	200021ec <check_sys_clock_khz+0xdc>
2000216c:	f1b3 0a01 	subs.w	sl, r3, #1
20002170:	f000 8082 	beq.w	20002278 <check_sys_clock_khz+0x168>
20002174:	fb0a f103 	mul.w	r1, sl, r3
20002178:	fbb2 fbf1 	udiv	fp, r2, r1
2000217c:	4558      	cmp	r0, fp
2000217e:	d049      	beq.n	20002214 <check_sys_clock_khz+0x104>
20002180:	b31c      	cbz	r4, 200021ca <check_sys_clock_khz+0xba>
20002182:	fb03 f104 	mul.w	r1, r3, r4
20002186:	fbb2 fbf1 	udiv	fp, r2, r1
2000218a:	4558      	cmp	r0, fp
2000218c:	d04b      	beq.n	20002226 <check_sys_clock_khz+0x116>
2000218e:	b1e5      	cbz	r5, 200021ca <check_sys_clock_khz+0xba>
20002190:	fb05 f103 	mul.w	r1, r5, r3
20002194:	fbb2 fbf1 	udiv	fp, r2, r1
20002198:	4558      	cmp	r0, fp
2000219a:	d04d      	beq.n	20002238 <check_sys_clock_khz+0x128>
2000219c:	b1ae      	cbz	r6, 200021ca <check_sys_clock_khz+0xba>
2000219e:	fb06 f103 	mul.w	r1, r6, r3
200021a2:	fbb2 fbf1 	udiv	fp, r2, r1
200021a6:	4558      	cmp	r0, fp
200021a8:	d04f      	beq.n	2000224a <check_sys_clock_khz+0x13a>
200021aa:	b177      	cbz	r7, 200021ca <check_sys_clock_khz+0xba>
200021ac:	fb07 f103 	mul.w	r1, r7, r3
200021b0:	fbb2 fbf1 	udiv	fp, r2, r1
200021b4:	4558      	cmp	r0, fp
200021b6:	d051      	beq.n	2000225c <check_sys_clock_khz+0x14c>
200021b8:	f1bc 0f00 	cmp.w	ip, #0
200021bc:	d005      	beq.n	200021ca <check_sys_clock_khz+0xba>
200021be:	fb0c f103 	mul.w	r1, ip, r3
200021c2:	fbb2 fbf1 	udiv	fp, r2, r1
200021c6:	4583      	cmp	fp, r0
200021c8:	d04d      	beq.n	20002266 <check_sys_clock_khz+0x156>
200021ca:	4653      	mov	r3, sl
200021cc:	fb03 f103 	mul.w	r1, r3, r3
200021d0:	fbb2 faf1 	udiv	sl, r2, r1
200021d4:	4582      	cmp	sl, r0
200021d6:	f104 34ff 	add.w	r4, r4, #4294967295	@ 0xffffffff
200021da:	f105 35ff 	add.w	r5, r5, #4294967295	@ 0xffffffff
200021de:	f106 36ff 	add.w	r6, r6, #4294967295	@ 0xffffffff
200021e2:	f107 37ff 	add.w	r7, r7, #4294967295	@ 0xffffffff
200021e6:	f10c 3cff 	add.w	ip, ip, #4294967295	@ 0xffffffff
200021ea:	d1bf      	bne.n	2000216c <check_sys_clock_khz+0x5c>
200021ec:	fb01 2110 	mls	r1, r1, r0, r2
200021f0:	2900      	cmp	r1, #0
200021f2:	d1bb      	bne.n	2000216c <check_sys_clock_khz+0x5c>
200021f4:	4672      	mov	r2, lr
200021f6:	461f      	mov	r7, r3
200021f8:	f8dd a00c 	ldr.w	sl, [sp, #12]
200021fc:	2001      	movs	r0, #1
200021fe:	4920      	ldr	r1, [pc, #128]	@ (20002280 <check_sys_clock_khz+0x170>)
20002200:	fb01 f108 	mul.w	r1, r1, r8
20002204:	f8ca 1000 	str.w	r1, [sl]
20002208:	6013      	str	r3, [r2, #0]
2000220a:	9b01      	ldr	r3, [sp, #4]
2000220c:	601f      	str	r7, [r3, #0]
2000220e:	b005      	add	sp, #20
20002210:	e8bd 8ff0 	ldmia.w	sp!, {r4, r5, r6, r7, r8, r9, sl, fp, pc}
20002214:	fb01 2110 	mls	r1, r1, r0, r2
20002218:	2900      	cmp	r1, #0
2000221a:	d1b1      	bne.n	20002180 <check_sys_clock_khz+0x70>
2000221c:	4657      	mov	r7, sl
2000221e:	4672      	mov	r2, lr
20002220:	f8dd a00c 	ldr.w	sl, [sp, #12]
20002224:	e7ea      	b.n	200021fc <check_sys_clock_khz+0xec>
20002226:	fb01 2110 	mls	r1, r1, r0, r2
2000222a:	2900      	cmp	r1, #0
2000222c:	d1af      	bne.n	2000218e <check_sys_clock_khz+0x7e>
2000222e:	4672      	mov	r2, lr
20002230:	4627      	mov	r7, r4
20002232:	f8dd a00c 	ldr.w	sl, [sp, #12]
20002236:	e7e1      	b.n	200021fc <check_sys_clock_khz+0xec>
20002238:	fb01 2110 	mls	r1, r1, r0, r2
2000223c:	2900      	cmp	r1, #0
2000223e:	d1ad      	bne.n	2000219c <check_sys_clock_khz+0x8c>
20002240:	4672      	mov	r2, lr
20002242:	462f      	mov	r7, r5
20002244:	f8dd a00c 	ldr.w	sl, [sp, #12]
20002248:	e7d8      	b.n	200021fc <check_sys_clock_khz+0xec>
2000224a:	fb01 2110 	mls	r1, r1, r0, r2
2000224e:	2900      	cmp	r1, #0
20002250:	d1ab      	bne.n	200021aa <check_sys_clock_khz+0x9a>
20002252:	4672      	mov	r2, lr
20002254:	4637      	mov	r7, r6
20002256:	f8dd a00c 	ldr.w	sl, [sp, #12]
2000225a:	e7cf      	b.n	200021fc <check_sys_clock_khz+0xec>
2000225c:	fb01 2110 	mls	r1, r1, r0, r2
20002260:	2900      	cmp	r1, #0
20002262:	d1a9      	bne.n	200021b8 <check_sys_clock_khz+0xa8>
20002264:	e7db      	b.n	2000221e <check_sys_clock_khz+0x10e>
20002266:	fb01 2110 	mls	r1, r1, r0, r2
2000226a:	2900      	cmp	r1, #0
2000226c:	d1ad      	bne.n	200021ca <check_sys_clock_khz+0xba>
2000226e:	4672      	mov	r2, lr
20002270:	4667      	mov	r7, ip
20002272:	f8dd a00c 	ldr.w	sl, [sp, #12]
20002276:	e7c1      	b.n	200021fc <check_sys_clock_khz+0xec>
20002278:	9902      	ldr	r1, [sp, #8]
2000227a:	e756      	b.n	2000212a <check_sys_clock_khz+0x1a>
2000227c:	002f2650 	.word	0x002f2650
20002280:	00b71b00 	.word	0x00b71b00
20002284:	000cf850 	.word	0x000cf850

20002288 <pll_init>:
20002288:	b510      	push	{r4, lr}
2000228a:	9c02      	ldr	r4, [sp, #8]
2000228c:	468e      	mov	lr, r1
2000228e:	ea4f 3c04 	mov.w	ip, r4, lsl #12
20002292:	ea4c 4c03 	orr.w	ip, ip, r3, lsl #16
20002296:	4b1c      	ldr	r3, [pc, #112]	@ (20002308 <pll_init+0x80>)
20002298:	fbb3 f3f1 	udiv	r3, r3, r1
2000229c:	6801      	ldr	r1, [r0, #0]
2000229e:	fbb2 f4f3 	udiv	r4, r2, r3
200022a2:	2900      	cmp	r1, #0
200022a4:	db20      	blt.n	200022e8 <pll_init+0x60>
200022a6:	4a19      	ldr	r2, [pc, #100]	@ (2000230c <pll_init+0x84>)
200022a8:	4b19      	ldr	r3, [pc, #100]	@ (20002310 <pll_init+0x88>)
200022aa:	4290      	cmp	r0, r2
200022ac:	bf14      	ite	ne
200022ae:	f44f 4280 	movne.w	r2, #16384	@ 0x4000
200022b2:	f44f 4200 	moveq.w	r2, #32768	@ 0x8000
200022b6:	4917      	ldr	r1, [pc, #92]	@ (20002314 <pll_init+0x8c>)
200022b8:	601a      	str	r2, [r3, #0]
200022ba:	f503 5380 	add.w	r3, r3, #4096	@ 0x1000
200022be:	601a      	str	r2, [r3, #0]
200022c0:	688b      	ldr	r3, [r1, #8]
200022c2:	ea32 0303 	bics.w	r3, r2, r3
200022c6:	d1fb      	bne.n	200022c0 <pll_init+0x38>
200022c8:	2221      	movs	r2, #33	@ 0x21
200022ca:	f500 5340 	add.w	r3, r0, #12288	@ 0x3000
200022ce:	3304      	adds	r3, #4
200022d0:	f8c0 e000 	str.w	lr, [r0]
200022d4:	6084      	str	r4, [r0, #8]
200022d6:	601a      	str	r2, [r3, #0]
200022d8:	6802      	ldr	r2, [r0, #0]
200022da:	2a00      	cmp	r2, #0
200022dc:	dafc      	bge.n	200022d8 <pll_init+0x50>
200022de:	2208      	movs	r2, #8
200022e0:	f8c0 c00c 	str.w	ip, [r0, #12]
200022e4:	601a      	str	r2, [r3, #0]
200022e6:	bd10      	pop	{r4, pc}
200022e8:	6803      	ldr	r3, [r0, #0]
200022ea:	f003 033f 	and.w	r3, r3, #63	@ 0x3f
200022ee:	4573      	cmp	r3, lr
200022f0:	d1d9      	bne.n	200022a6 <pll_init+0x1e>
200022f2:	6883      	ldr	r3, [r0, #8]
200022f4:	f3c3 030b 	ubfx	r3, r3, #0, #12
200022f8:	42a3      	cmp	r3, r4
200022fa:	d1d4      	bne.n	200022a6 <pll_init+0x1e>
200022fc:	68c3      	ldr	r3, [r0, #12]
200022fe:	f403 23ee 	and.w	r3, r3, #487424	@ 0x77000
20002302:	4563      	cmp	r3, ip
20002304:	d1cf      	bne.n	200022a6 <pll_init+0x1e>
20002306:	bd10      	pop	{r4, pc}
20002308:	00b71b00 	.word	0x00b71b00
2000230c:	40058000 	.word	0x40058000
20002310:	40022000 	.word	0x40022000
20002314:	40020000 	.word	0x40020000

20002318 <watchdog_reboot>:
20002318:	f04f 4c80 	mov.w	ip, #1073741824	@ 0x40000000
2000231c:	4b21      	ldr	r3, [pc, #132]	@ (200023a4 <watchdog_reboot+0x8c>)
2000231e:	b500      	push	{lr}
20002320:	f8c3 c000 	str.w	ip, [r3]
20002324:	2800      	cmp	r0, #0
20002326:	d039      	beq.n	2000239c <watchdog_reboot+0x84>
20002328:	f8df c088 	ldr.w	ip, [pc, #136]	@ 200023b4 <watchdog_reboot+0x9c>
2000232c:	f5a3 5340 	sub.w	r3, r3, #12288	@ 0x3000
20002330:	f8c3 c01c 	str.w	ip, [r3, #28]
20002334:	f8df c080 	ldr.w	ip, [pc, #128]	@ 200023b8 <watchdog_reboot+0xa0>
20002338:	f040 0001 	orr.w	r0, r0, #1
2000233c:	ea80 0c0c 	eor.w	ip, r0, ip
20002340:	f8c3 c020 	str.w	ip, [r3, #32]
20002344:	6259      	str	r1, [r3, #36]	@ 0x24
20002346:	6298      	str	r0, [r3, #40]	@ 0x28
20002348:	f04f 4e80 	mov.w	lr, #1073741824	@ 0x40000000
2000234c:	f04f 61e0 	mov.w	r1, #117440512	@ 0x7000000
20002350:	4b14      	ldr	r3, [pc, #80]	@ (200023a4 <watchdog_reboot+0x8c>)
20002352:	4815      	ldr	r0, [pc, #84]	@ (200023a8 <watchdog_reboot+0x90>)
20002354:	f8df c064 	ldr.w	ip, [pc, #100]	@ 200023bc <watchdog_reboot+0xa4>
20002358:	f8c3 e000 	str.w	lr, [r3]
2000235c:	f8c0 c008 	str.w	ip, [r0, #8]
20002360:	6019      	str	r1, [r3, #0]
20002362:	b92a      	cbnz	r2, 20002370 <watchdog_reboot+0x58>
20002364:	f04f 4200 	mov.w	r2, #2147483648	@ 0x80000000
20002368:	f5a3 5380 	sub.w	r3, r3, #4096	@ 0x1000
2000236c:	601a      	str	r2, [r3, #0]
2000236e:	bd00      	pop	{pc}
20002370:	f44f 737a 	mov.w	r3, #1000	@ 0x3e8
20002374:	fb03 f202 	mul.w	r2, r3, r2
20002378:	f1b2 7f80 	cmp.w	r2, #16777216	@ 0x1000000
2000237c:	bf2a      	itet	cs
2000237e:	f06f 437f 	mvncs.w	r3, #4278190080	@ 0xff000000
20002382:	4613      	movcc	r3, r2
20002384:	461a      	movcs	r2, r3
20002386:	f04f 4180 	mov.w	r1, #1073741824	@ 0x40000000
2000238a:	f8df c034 	ldr.w	ip, [pc, #52]	@ 200023c0 <watchdog_reboot+0xa8>
2000238e:	4807      	ldr	r0, [pc, #28]	@ (200023ac <watchdog_reboot+0x94>)
20002390:	f8cc 3000 	str.w	r3, [ip]
20002394:	4b06      	ldr	r3, [pc, #24]	@ (200023b0 <watchdog_reboot+0x98>)
20002396:	6042      	str	r2, [r0, #4]
20002398:	6019      	str	r1, [r3, #0]
2000239a:	bd00      	pop	{pc}
2000239c:	4b03      	ldr	r3, [pc, #12]	@ (200023ac <watchdog_reboot+0x94>)
2000239e:	61d8      	str	r0, [r3, #28]
200023a0:	e7d2      	b.n	20002348 <watchdog_reboot+0x30>
200023a2:	bf00      	nop
200023a4:	400db000 	.word	0x400db000
200023a8:	4001a000 	.word	0x4001a000
200023ac:	400d8000 	.word	0x400d8000
200023b0:	400da000 	.word	0x400da000
200023b4:	b007c0d3 	.word	0xb007c0d3
200023b8:	4ff83f2d 	.word	0x4ff83f2d
200023bc:	01fffff3 	.word	0x01fffff3
200023c0:	20009ae0 	.word	0x20009ae0

200023c4 <tick_start>:
200023c4:	2301      	movs	r3, #1
200023c6:	eb00 0040 	add.w	r0, r0, r0, lsl #1
200023ca:	0080      	lsls	r0, r0, #2
200023cc:	f100 4080 	add.w	r0, r0, #1073741824	@ 0x40000000
200023d0:	f500 1084 	add.w	r0, r0, #1081344	@ 0x108000
200023d4:	6041      	str	r1, [r0, #4]
200023d6:	6003      	str	r3, [r0, #0]
200023d8:	4770      	bx	lr
200023da:	bf00      	nop

200023dc <rom_reboot.constprop.0.isra.0>:
200023dc:	b510      	push	{r4, lr}
200023de:	2400      	movs	r4, #0
200023e0:	b082      	sub	sp, #8
200023e2:	460b      	mov	r3, r1
200023e4:	8ae4      	ldrh	r4, [r4, #22]
200023e6:	2100      	movs	r1, #0
200023e8:	e841 f100 	tt	r1, r1
200023ec:	e9cd 0300 	strd	r0, r3, [sp]
200023f0:	024b      	lsls	r3, r1, #9
200023f2:	bf54      	ite	pl
200023f4:	2110      	movpl	r1, #16
200023f6:	2104      	movmi	r1, #4
200023f8:	f244 2052 	movw	r0, #16978	@ 0x4252
200023fc:	47a0      	blx	r4
200023fe:	e9dd 2300 	ldrd	r2, r3, [sp]
20002402:	4686      	mov	lr, r0
20002404:	210a      	movs	r1, #10
20002406:	f44f 7081 	mov.w	r0, #258	@ 0x102
2000240a:	46f4      	mov	ip, lr
2000240c:	b002      	add	sp, #8
2000240e:	e8bd 4010 	ldmia.w	sp!, {r4, lr}
20002412:	4760      	bx	ip

20002414 <rom_func_lookup>:
20002414:	2300      	movs	r3, #0
20002416:	8adb      	ldrh	r3, [r3, #22]
20002418:	2200      	movs	r2, #0
2000241a:	e842 f200 	tt	r2, r2
2000241e:	0252      	lsls	r2, r2, #9
20002420:	d401      	bmi.n	20002426 <rom_func_lookup+0x12>
20002422:	2110      	movs	r1, #16
20002424:	4718      	bx	r3
20002426:	2104      	movs	r1, #4
20002428:	4718      	bx	r3
2000242a:	bf00      	nop

2000242c <rom_reset_usb_boot>:
2000242c:	b508      	push	{r3, lr}
2000242e:	4603      	mov	r3, r0
20002430:	4608      	mov	r0, r1
20002432:	b12b      	cbz	r3, 20002440 <rom_reset_usb_boot+0x14>
20002434:	fa93 f3a3 	rbit	r3, r3
20002438:	fab3 f383 	clz	r3, r3
2000243c:	f041 0020 	orr.w	r0, r1, #32
20002440:	4619      	mov	r1, r3
20002442:	f7ff ffcb 	bl	200023dc <rom_reboot.constprop.0.isra.0>
20002446:	bf00      	nop

20002448 <rom_reset_usb_boot_extra>:
20002448:	b508      	push	{r3, lr}
2000244a:	4603      	mov	r3, r0
2000244c:	4608      	mov	r0, r1
2000244e:	1e19      	subs	r1, r3, #0
20002450:	db02      	blt.n	20002458 <rom_reset_usb_boot_extra+0x10>
20002452:	b11a      	cbz	r2, 2000245c <rom_reset_usb_boot_extra+0x14>
20002454:	f040 0030 	orr.w	r0, r0, #48	@ 0x30
20002458:	f7ff ffc0 	bl	200023dc <rom_reboot.constprop.0.isra.0>
2000245c:	f040 0020 	orr.w	r0, r0, #32
20002460:	e7fa      	b.n	20002458 <rom_reset_usb_boot_extra+0x10>
20002462:	bf00      	nop

20002464 <runtime_init_bootrom_locking_enable>:
20002464:	4a03      	ldr	r2, [pc, #12]	@ (20002474 <runtime_init_bootrom_locking_enable+0x10>)
20002466:	f8d2 3828 	ldr.w	r3, [r2, #2088]	@ 0x828
2000246a:	2b00      	cmp	r3, #0
2000246c:	d0fb      	beq.n	20002466 <runtime_init_bootrom_locking_enable+0x2>
2000246e:	f3bf 8f5f 	dmb	sy
20002472:	4770      	bx	lr
20002474:	400e0000 	.word	0x400e0000

20002478 <runtime_init_boot_locks_reset>:
20002478:	2100      	movs	r1, #0
2000247a:	4b04      	ldr	r3, [pc, #16]	@ (2000248c <runtime_init_boot_locks_reset+0x14>)
2000247c:	4a04      	ldr	r2, [pc, #16]	@ (20002490 <runtime_init_boot_locks_reset+0x18>)
2000247e:	f3bf 8f5f 	dmb	sy
20002482:	f843 1b04 	str.w	r1, [r3], #4
20002486:	4293      	cmp	r3, r2
20002488:	d1f9      	bne.n	2000247e <runtime_init_boot_locks_reset+0x6>
2000248a:	4770      	bx	lr
2000248c:	400e080c 	.word	0x400e080c
20002490:	400e082c 	.word	0x400e082c

20002494 <xosc_init>:
20002494:	f44f 6c2a 	mov.w	ip, #2720	@ 0xaa0
20002498:	f44f 708d 	mov.w	r0, #282	@ 0x11a
2000249c:	4a05      	ldr	r2, [pc, #20]	@ (200024b4 <xosc_init+0x20>)
2000249e:	4b06      	ldr	r3, [pc, #24]	@ (200024b8 <xosc_init+0x24>)
200024a0:	4906      	ldr	r1, [pc, #24]	@ (200024bc <xosc_init+0x28>)
200024a2:	f8c2 c000 	str.w	ip, [r2]
200024a6:	60d0      	str	r0, [r2, #12]
200024a8:	6019      	str	r1, [r3, #0]
200024aa:	6853      	ldr	r3, [r2, #4]
200024ac:	2b00      	cmp	r3, #0
200024ae:	dafc      	bge.n	200024aa <xosc_init+0x16>
200024b0:	4770      	bx	lr
200024b2:	bf00      	nop
200024b4:	40048000 	.word	0x40048000
200024b8:	4004a000 	.word	0x4004a000
200024bc:	00fab000 	.word	0x00fab000

200024c0 <first_per_core_initializer>:
200024c0:	4770      	bx	lr
200024c2:	bf00      	nop

200024c4 <hard_assertion_failure>:
200024c4:	b508      	push	{r3, lr}
200024c6:	4801      	ldr	r0, [pc, #4]	@ (200024cc <hard_assertion_failure+0x8>)
200024c8:	f7fe fcbc 	bl	20000e44 <panic>
200024cc:	20008484 	.word	0x20008484

200024d0 <runtime_run_initializers>:
200024d0:	b538      	push	{r3, r4, r5, lr}
200024d2:	4c05      	ldr	r4, [pc, #20]	@ (200024e8 <runtime_run_initializers+0x18>)
200024d4:	4d05      	ldr	r5, [pc, #20]	@ (200024ec <runtime_run_initializers+0x1c>)
200024d6:	42ac      	cmp	r4, r5
200024d8:	d204      	bcs.n	200024e4 <runtime_run_initializers+0x14>
200024da:	f854 3b04 	ldr.w	r3, [r4], #4
200024de:	4798      	blx	r3
200024e0:	42ac      	cmp	r4, r5
200024e2:	d3fa      	bcc.n	200024da <runtime_run_initializers+0xa>
200024e4:	bd38      	pop	{r3, r4, r5, pc}
200024e6:	bf00      	nop
200024e8:	20008d18 	.word	0x20008d18
200024ec:	20008d58 	.word	0x20008d58

200024f0 <runtime_run_per_core_initializers>:
200024f0:	b538      	push	{r3, r4, r5, lr}
200024f2:	4c05      	ldr	r4, [pc, #20]	@ (20002508 <runtime_run_per_core_initializers+0x18>)
200024f4:	4d05      	ldr	r5, [pc, #20]	@ (2000250c <runtime_run_per_core_initializers+0x1c>)
200024f6:	42ac      	cmp	r4, r5
200024f8:	d204      	bcs.n	20002504 <runtime_run_per_core_initializers+0x14>
200024fa:	f854 3b04 	ldr.w	r3, [r4], #4
200024fe:	4798      	blx	r3
20002500:	42ac      	cmp	r4, r5
20002502:	d3fa      	bcc.n	200024fa <runtime_run_per_core_initializers+0xa>
20002504:	bd38      	pop	{r3, r4, r5, pc}
20002506:	bf00      	nop
20002508:	20008d44 	.word	0x20008d44
2000250c:	20008d58 	.word	0x20008d58

20002510 <runtime_init_early_resets>:
20002510:	4806      	ldr	r0, [pc, #24]	@ (2000252c <runtime_init_early_resets+0x1c>)
20002512:	f8df c028 	ldr.w	ip, [pc, #40]	@ 2000253c <runtime_init_early_resets+0x2c>
20002516:	4b06      	ldr	r3, [pc, #24]	@ (20002530 <runtime_init_early_resets+0x20>)
20002518:	4a06      	ldr	r2, [pc, #24]	@ (20002534 <runtime_init_early_resets+0x24>)
2000251a:	4907      	ldr	r1, [pc, #28]	@ (20002538 <runtime_init_early_resets+0x28>)
2000251c:	f8c0 c000 	str.w	ip, [r0]
20002520:	601a      	str	r2, [r3, #0]
20002522:	688b      	ldr	r3, [r1, #8]
20002524:	ea32 0303 	bics.w	r3, r2, r3
20002528:	d1fb      	bne.n	20002522 <runtime_init_early_resets+0x12>
2000252a:	4770      	bx	lr
2000252c:	40022000 	.word	0x40022000
20002530:	40023000 	.word	0x40023000
20002534:	03f3fff6 	.word	0x03f3fff6
20002538:	40020000 	.word	0x40020000
2000253c:	efef3b7f 	.word	0xefef3b7f

20002540 <runtime_init_usb_power_down>:
20002540:	4b04      	ldr	r3, [pc, #16]	@ (20002554 <runtime_init_usb_power_down+0x14>)
20002542:	6cdb      	ldr	r3, [r3, #76]	@ 0x4c
20002544:	f5b3 4f00 	cmp.w	r3, #32768	@ 0x8000
20002548:	d103      	bne.n	20002552 <runtime_init_usb_power_down+0x12>
2000254a:	f44f 2280 	mov.w	r2, #262144	@ 0x40000
2000254e:	4b02      	ldr	r3, [pc, #8]	@ (20002558 <runtime_init_usb_power_down+0x18>)
20002550:	64da      	str	r2, [r3, #76]	@ 0x4c
20002552:	4770      	bx	lr
20002554:	50110000 	.word	0x50110000
20002558:	50112000 	.word	0x50112000

2000255c <runtime_init_per_core_enable_coprocessors>:
2000255c:	f04f 22e0 	mov.w	r2, #3758153728	@ 0xe000e000
20002560:	4b04      	ldr	r3, [pc, #16]	@ (20002574 <runtime_init_per_core_enable_coprocessors+0x18>)
20002562:	f8d2 1d88 	ldr.w	r1, [r2, #3464]	@ 0xd88
20002566:	430b      	orrs	r3, r1
20002568:	f8c2 3d88 	str.w	r3, [r2, #3464]	@ 0xd88
2000256c:	ee10 0430 			dcp_rcmp r0
20002570:	4770      	bx	lr
20002572:	bf00      	nop
20002574:	00300303 	.word	0x00300303

20002578 <runtime_init_post_clock_resets>:
20002578:	f06f 4160 	mvn.w	r1, #3758096384	@ 0xe0000000
2000257c:	4b04      	ldr	r3, [pc, #16]	@ (20002590 <runtime_init_post_clock_resets+0x18>)
2000257e:	4a05      	ldr	r2, [pc, #20]	@ (20002594 <runtime_init_post_clock_resets+0x1c>)
20002580:	6019      	str	r1, [r3, #0]
20002582:	6893      	ldr	r3, [r2, #8]
20002584:	43db      	mvns	r3, r3
20002586:	f033 4360 	bics.w	r3, r3, #3758096384	@ 0xe0000000
2000258a:	d1fa      	bne.n	20002582 <runtime_init_post_clock_resets+0xa>
2000258c:	4770      	bx	lr
2000258e:	bf00      	nop
20002590:	40023000 	.word	0x40023000
20002594:	40020000 	.word	0x40020000

20002598 <runtime_init_bootrom_reset>:
20002598:	b510      	push	{r4, lr}
2000259a:	f245 2053 	movw	r0, #21075	@ 0x5253
2000259e:	f7ff ff39 	bl	20002414 <rom_func_lookup>
200025a2:	e8bd 4010 	ldmia.w	sp!, {r4, lr}
200025a6:	4603      	mov	r3, r0
200025a8:	2004      	movs	r0, #4
200025aa:	4718      	bx	r3

200025ac <runtime_init_per_core_bootrom_reset>:
200025ac:	b510      	push	{r4, lr}
200025ae:	f245 2053 	movw	r0, #21075	@ 0x5253
200025b2:	f7ff ff2f 	bl	20002414 <rom_func_lookup>
200025b6:	e8bd 4010 	ldmia.w	sp!, {r4, lr}
200025ba:	4603      	mov	r3, r0
200025bc:	2001      	movs	r0, #1
200025be:	4718      	bx	r3

200025c0 <runtime_init_spin_locks_reset>:
200025c0:	f7fe bcec 	b.w	20000f9c <spin_locks_reset>

200025c4 <runtime_init_install_ram_vector_table>:
200025c4:	b510      	push	{r4, lr}
200025c6:	4c04      	ldr	r4, [pc, #16]	@ (200025d8 <runtime_init_install_ram_vector_table+0x14>)
200025c8:	f44f 7288 	mov.w	r2, #272	@ 0x110
200025cc:	68a1      	ldr	r1, [r4, #8]
200025ce:	4803      	ldr	r0, [pc, #12]	@ (200025dc <runtime_init_install_ram_vector_table+0x18>)
200025d0:	f004 fe5e 	bl	20007290 <memcpy>
200025d4:	60a0      	str	r0, [r4, #8]
200025d6:	bd10      	pop	{r4, pc}
200025d8:	e000ed00 	.word	0xe000ed00
200025dc:	20000000 	.word	0x20000000

200025e0 <runtime_init_clocks>:
200025e0:	2300      	movs	r3, #0
200025e2:	b570      	push	{r4, r5, r6, lr}
200025e4:	4c2b      	ldr	r4, [pc, #172]	@ (20002694 <runtime_init_clocks+0xb4>)
200025e6:	b082      	sub	sp, #8
200025e8:	f8c4 3084 	str.w	r3, [r4, #132]	@ 0x84
200025ec:	f7ff ff52 	bl	20002494 <xosc_init>
200025f0:	2201      	movs	r2, #1
200025f2:	4b29      	ldr	r3, [pc, #164]	@ (20002698 <runtime_init_clocks+0xb8>)
200025f4:	63da      	str	r2, [r3, #60]	@ 0x3c
200025f6:	6c63      	ldr	r3, [r4, #68]	@ 0x44
200025f8:	2b01      	cmp	r3, #1
200025fa:	d1fc      	bne.n	200025f6 <runtime_init_clocks+0x16>
200025fc:	2103      	movs	r1, #3
200025fe:	4a26      	ldr	r2, [pc, #152]	@ (20002698 <runtime_init_clocks+0xb8>)
20002600:	4b24      	ldr	r3, [pc, #144]	@ (20002694 <runtime_init_clocks+0xb4>)
20002602:	6311      	str	r1, [r2, #48]	@ 0x30
20002604:	6b9c      	ldr	r4, [r3, #56]	@ 0x38
20002606:	2c01      	cmp	r4, #1
20002608:	d1fc      	bne.n	20002604 <runtime_init_clocks+0x24>
2000260a:	2602      	movs	r6, #2
2000260c:	2505      	movs	r5, #5
2000260e:	4621      	mov	r1, r4
20002610:	2305      	movs	r3, #5
20002612:	4a22      	ldr	r2, [pc, #136]	@ (2000269c <runtime_init_clocks+0xbc>)
20002614:	4822      	ldr	r0, [pc, #136]	@ (200026a0 <runtime_init_clocks+0xc0>)
20002616:	9600      	str	r6, [sp, #0]
20002618:	f7ff fe36 	bl	20002288 <pll_init>
2000261c:	4621      	mov	r1, r4
2000261e:	462b      	mov	r3, r5
20002620:	4a20      	ldr	r2, [pc, #128]	@ (200026a4 <runtime_init_clocks+0xc4>)
20002622:	4821      	ldr	r0, [pc, #132]	@ (200026a8 <runtime_init_clocks+0xc8>)
20002624:	9500      	str	r5, [sp, #0]
20002626:	f7ff fe2f 	bl	20002288 <pll_init>
2000262a:	2200      	movs	r2, #0
2000262c:	2004      	movs	r0, #4
2000262e:	4631      	mov	r1, r6
20002630:	4b1e      	ldr	r3, [pc, #120]	@ (200026ac <runtime_init_clocks+0xcc>)
20002632:	f7ff fc35 	bl	20001ea0 <clock_configure_undivided>
20002636:	4621      	mov	r1, r4
20002638:	4628      	mov	r0, r5
2000263a:	2200      	movs	r2, #0
2000263c:	4b1c      	ldr	r3, [pc, #112]	@ (200026b0 <runtime_init_clocks+0xd0>)
2000263e:	f7ff fc2f 	bl	20001ea0 <clock_configure_undivided>
20002642:	2200      	movs	r2, #0
20002644:	2008      	movs	r0, #8
20002646:	4611      	mov	r1, r2
20002648:	4b1a      	ldr	r3, [pc, #104]	@ (200026b4 <runtime_init_clocks+0xd4>)
2000264a:	f7ff fc29 	bl	20001ea0 <clock_configure_undivided>
2000264e:	2200      	movs	r2, #0
20002650:	2009      	movs	r0, #9
20002652:	4611      	mov	r1, r2
20002654:	4b17      	ldr	r3, [pc, #92]	@ (200026b4 <runtime_init_clocks+0xd4>)
20002656:	f7ff fc23 	bl	20001ea0 <clock_configure_undivided>
2000265a:	2200      	movs	r2, #0
2000265c:	2006      	movs	r0, #6
2000265e:	4611      	mov	r1, r2
20002660:	4b13      	ldr	r3, [pc, #76]	@ (200026b0 <runtime_init_clocks+0xd0>)
20002662:	f7ff fc1d 	bl	20001ea0 <clock_configure_undivided>
20002666:	2200      	movs	r2, #0
20002668:	4b11      	ldr	r3, [pc, #68]	@ (200026b0 <runtime_init_clocks+0xd0>)
2000266a:	2007      	movs	r0, #7
2000266c:	4611      	mov	r1, r2
2000266e:	f7ff fc17 	bl	20001ea0 <clock_configure_undivided>
20002672:	2004      	movs	r0, #4
20002674:	f7ff fc82 	bl	20001f7c <clock_get_hz>
20002678:	2400      	movs	r4, #0
2000267a:	4b0f      	ldr	r3, [pc, #60]	@ (200026b8 <runtime_init_clocks+0xd8>)
2000267c:	fba3 3500 	umull	r3, r5, r3, r0
20002680:	0cad      	lsrs	r5, r5, #18
20002682:	b2e0      	uxtb	r0, r4
20002684:	4629      	mov	r1, r5
20002686:	3401      	adds	r4, #1
20002688:	f7ff fe9c 	bl	200023c4 <tick_start>
2000268c:	2c06      	cmp	r4, #6
2000268e:	d1f8      	bne.n	20002682 <runtime_init_clocks+0xa2>
20002690:	b002      	add	sp, #8
20002692:	bd70      	pop	{r4, r5, r6, pc}
20002694:	40010000 	.word	0x40010000
20002698:	40013000 	.word	0x40013000
2000269c:	59682f00 	.word	0x59682f00
200026a0:	40050000 	.word	0x40050000
200026a4:	47868c00 	.word	0x47868c00
200026a8:	40058000 	.word	0x40058000
200026ac:	00b71b00 	.word	0x00b71b00
200026b0:	08f0d180 	.word	0x08f0d180
200026b4:	02dc6c00 	.word	0x02dc6c00
200026b8:	431bde83 	.word	0x431bde83

200026bc <runtime_init_per_core_install_stack_guard>:
200026bc:	f380 880a 	msr	MSPLIM, r0
200026c0:	4770      	bx	lr
200026c2:	bf00      	nop

200026c4 <generic_save_state>:
200026c4:	b086      	sub	sp, #24
200026c6:	b403      	push	{r0, r1}
200026c8:	fc51 0408 	dcp_pxmd r0, r1
200026cc:	e9cd 0102 	strd	r0, r1, [sp, #8]
200026d0:	fc51 0409 	dcp_pymd r0, r1
200026d4:	e9cd 0104 	strd	r0, r1, [sp, #16]
200026d8:	ec51 040a 	dcp_refd r0, r1
200026dc:	e9cd 0106 	strd	r0, r1, [sp, #24]
200026e0:	bc03      	pop	{r0, r1}
200026e2:	47f0      	blx	lr

200026e4 <generic_restore_state>:
200026e4:	e8bd 5000 	ldmia.w	sp!, {ip, lr}
200026e8:	ec4e c400 	dcp_wxmd ip, lr
200026ec:	e8bd 5000 	ldmia.w	sp!, {ip, lr}
200026f0:	ec4e c401 	dcp_wymd ip, lr
200026f4:	e8bd 5000 	ldmia.w	sp!, {ip, lr}
200026f8:	ec4e c402 	dcp_wefd ip, lr
200026fc:	bd00      	pop	{pc}
200026fe:	0000      	movs	r0, r0
20002700:	b500      	push	{lr}
20002702:	f7ff ffdf 	bl	200026c4 <generic_save_state>
20002706:	e002      	b.n	2000270e <__wrap___aeabi_dadd+0x6>

20002708 <__wrap___aeabi_dadd>:
20002708:	fe10 f430 	dcp_pcmp APSR_nzcv
2000270c:	d4f8      	bmi.n	20002700 <generic_restore_state+0x1c>
2000270e:	ec41 0410 	dcp_wxup r0, r1
20002712:	ec43 2411 	dcp_wyup r2, r3
20002716:	ee00 0401 			dcp_add0
2000271a:	ee10 0401 			dcp_add1
2000271e:	ee80 0420 			dcp_nrdd
20002722:	ec51 0410 	dcp_rdda r0, r1
20002726:	4770      	bx	lr
20002728:	b500      	push	{lr}
2000272a:	f7ff ffcb 	bl	200026c4 <generic_save_state>
2000272e:	e002      	b.n	20002736 <__wrap___aeabi_dsub+0x6>

20002730 <__wrap___aeabi_dsub>:
20002730:	fe10 f430 	dcp_pcmp APSR_nzcv
20002734:	d4f8      	bmi.n	20002728 <__wrap___aeabi_dadd+0x20>
20002736:	ec41 0410 	dcp_wxup r0, r1
2000273a:	ec43 2411 	dcp_wyup r2, r3
2000273e:	ee00 0401 			dcp_add0
20002742:	ee10 0421 			dcp_sub1
20002746:	ee80 0420 			dcp_nrdd
2000274a:	ec51 0430 	dcp_rdds r0, r1
2000274e:	4770      	bx	lr
20002750:	b500      	push	{lr}
20002752:	f7ff ffb7 	bl	200026c4 <generic_save_state>
20002756:	e002      	b.n	2000275e <__wrap___aeabi_dmul+0x6>

20002758 <__wrap___aeabi_dmul>:
20002758:	fe10 f430 	dcp_pcmp APSR_nzcv
2000275c:	d4f8      	bmi.n	20002750 <__wrap___aeabi_dsub+0x20>
2000275e:	b510      	push	{r4, lr}
20002760:	ec41 0410 	dcp_wxup r0, r1
20002764:	ec43 2411 	dcp_wyup r2, r3
20002768:	ec51 0404 	dcp_rxms r0, r1, #0x0
2000276c:	ec53 2405 	dcp_ryms r2, r3, #0x0
20002770:	fba0 4c02 	umull	r4, ip, r0, r2
20002774:	f05f 0e00 	movs.w	lr, #0
20002778:	fbe0 ce03 	umlal	ip, lr, r0, r3
2000277c:	fbe1 ce02 	umlal	ip, lr, r1, r2
20002780:	ec4c 4420 	dcp_wxms r4, ip
20002784:	2400      	movs	r4, #0
20002786:	fbe1 e403 	umlal	lr, r4, r1, r3
2000278a:	ec44 e430 	dcp_wxmo lr, r4
2000278e:	ee80 0420 			dcp_nrdd
20002792:	ec51 0450 	dcp_rddm r0, r1
20002796:	e8bd 4010 	ldmia.w	sp!, {r4, lr}
2000279a:	4770      	bx	lr
2000279c:	b500      	push	{lr}
2000279e:	f7ff ff91 	bl	200026c4 <generic_save_state>
200027a2:	e002      	b.n	200027aa <__wrap___aeabi_ddiv+0x6>

200027a4 <__wrap___aeabi_ddiv>:
200027a4:	fe10 f430 	dcp_pcmp APSR_nzcv
200027a8:	d4f8      	bmi.n	2000279c <__wrap___aeabi_dmul+0x44>
200027aa:	ec41 0410 	dcp_wxup r0, r1
200027ae:	ec43 2411 	dcp_wyup r2, r3
200027b2:	ec51 0421 	dcp_rymr r0, r1
200027b6:	fba0 1201 	umull	r1, r2, r0, r1
200027ba:	ea6f 0282 	mvn.w	r2, r2, lsl #2
200027be:	fb52 0010 	smmlar	r0, r2, r0, r0
200027c2:	fb52 f212 	smmulr	r2, r2, r2
200027c6:	fb52 0010 	smmlar	r0, r2, r0, r0
200027ca:	eba0 7cd0 	sub.w	ip, r0, r0, lsr #31
200027ce:	ec53 2404 	dcp_rxms r2, r3, #0x0
200027d2:	fb5c f113 	smmulr	r1, ip, r3
200027d6:	ec53 2415 	dcp_ryms r2, r3, #0x1
200027da:	fba1 2002 	umull	r2, r0, r1, r2
200027de:	fb01 0003 	mla	r0, r1, r3, r0
200027e2:	ec53 2444 	dcp_rxms r2, r3, #0x4
200027e6:	eba2 0000 	sub.w	r0, r2, r0
200027ea:	fb50 f21c 	smmulr	r2, r0, ip
200027ee:	ea4f 1311 	mov.w	r3, r1, lsr #4
200027f2:	eb12 7001 	adds.w	r0, r2, r1, lsl #28
200027f6:	eb43 71e2 	adc.w	r1, r3, r2, asr #31
200027fa:	ea40 5051 	orr.w	r0, r0, r1, lsr #21
200027fe:	ea20 5091 	bic.w	r0, r0, r1, lsr #22
20002802:	f020 0007 	bic.w	r0, r0, #7
20002806:	ec53 2475 	dcp_ryms r2, r3, #0x7
2000280a:	fba0 3c02 	umull	r3, ip, r0, r2
2000280e:	ec53 2475 	dcp_ryms r2, r3, #0x7
20002812:	fb00 cc03 	mla	ip, r0, r3, ip
20002816:	fb01 cc02 	mla	ip, r1, r2, ip
2000281a:	ec53 2404 	dcp_rxms r2, r3, #0x0
2000281e:	ebac 4c82 	sub.w	ip, ip, r2, lsl #18
20002822:	ea40 705c 	orr.w	r0, r0, ip, lsr #29
20002826:	f1a0 0001 	sub.w	r0, r0, #1
2000282a:	ec41 0440 	dcp_wxdd r0, r1
2000282e:	ee80 0420 			dcp_nrdd
20002832:	ec51 0470 	dcp_rddd r0, r1
20002836:	4770      	bx	lr
20002838:	b500      	push	{lr}
2000283a:	f7ff ff43 	bl	200026c4 <generic_save_state>
2000283e:	e002      	b.n	20002846 <__wrap___aeabi_i2d+0x6>

20002840 <__wrap___aeabi_i2d>:
20002840:	fe10 f430 	dcp_pcmp APSR_nzcv
20002844:	d4f8      	bmi.n	20002838 <__wrap___aeabi_ddiv+0x94>
20002846:	ec40 0470 	dcp_wxic r0, r0
2000284a:	ee00 0401 			dcp_add0
2000284e:	ee10 0421 			dcp_sub1
20002852:	ee80 0420 			dcp_nrdd
20002856:	ec51 0430 	dcp_rdds r0, r1
2000285a:	4770      	bx	lr
2000285c:	b500      	push	{lr}
2000285e:	f7ff ff31 	bl	200026c4 <generic_save_state>
20002862:	e002      	b.n	2000286a <__wrap___aeabi_ui2d+0x6>

20002864 <__wrap___aeabi_ui2d>:
20002864:	fe10 f430 	dcp_pcmp APSR_nzcv
20002868:	d4f8      	bmi.n	2000285c <__wrap___aeabi_i2d+0x1c>
2000286a:	ec40 0460 	dcp_wxuc r0, r0
2000286e:	ee00 0401 			dcp_add0
20002872:	ee10 0421 			dcp_sub1
20002876:	ee80 0420 			dcp_nrdd
2000287a:	ec51 0430 	dcp_rdds r0, r1
2000287e:	4770      	bx	lr
20002880:	b500      	push	{lr}
20002882:	f7ff ff1f 	bl	200026c4 <generic_save_state>
20002886:	e002      	b.n	2000288e <double2int_z_entry>

20002888 <__wrap___aeabi_d2iz>:
20002888:	fe10 f430 	dcp_pcmp APSR_nzcv
2000288c:	d4f8      	bmi.n	20002880 <__wrap___aeabi_ui2d+0x1c>

2000288e <double2int_z_entry>:
2000288e:	ec41 0480 	dcp_wxdc r0, r1
20002892:	ee00 0401 			dcp_add0
20002896:	ee10 0401 			dcp_add1
2000289a:	ee80 0440 			dcp_ntdc
2000289e:	ee10 0413 			dcp_rdic r0
200028a2:	4770      	bx	lr
200028a4:	b500      	push	{lr}
200028a6:	f7ff ff0d 	bl	200026c4 <generic_save_state>
200028aa:	e002      	b.n	200028b2 <double2uint_z_entry>

200028ac <__wrap___aeabi_d2uiz>:
200028ac:	fe10 f430 	dcp_pcmp APSR_nzcv
200028b0:	d4f8      	bmi.n	200028a4 <double2int_z_entry+0x16>

200028b2 <double2uint_z_entry>:
200028b2:	ec41 0480 	dcp_wxdc r0, r1
200028b6:	ee00 0401 			dcp_add0
200028ba:	ee10 0401 			dcp_add1
200028be:	ee80 0440 			dcp_ntdc
200028c2:	ee10 0433 			dcp_rduc r0
200028c6:	4770      	bx	lr
200028c8:	b500      	push	{lr}
200028ca:	f7ff fefb 	bl	200026c4 <generic_save_state>
200028ce:	e002      	b.n	200028d6 <__wrap___aeabi_dcmpun+0x6>

200028d0 <__wrap___aeabi_dcmpun>:
200028d0:	fe10 f430 	dcp_pcmp APSR_nzcv
200028d4:	d4f8      	bmi.n	200028c8 <double2uint_z_entry+0x16>
200028d6:	ec41 0410 	dcp_wxup r0, r1
200028da:	ec43 2411 	dcp_wyup r2, r3
200028de:	ee00 0401 			dcp_add0
200028e2:	ee10 0430 			dcp_rcmp r0
200028e6:	f3c0 7000 	ubfx	r0, r0, #28, #1
200028ea:	4770      	bx	lr
200028ec:	b500      	push	{lr}
200028ee:	f7ff fee9 	bl	200026c4 <generic_save_state>
200028f2:	e002      	b.n	200028fa <__wrap___aeabi_dcmplt+0x6>

200028f4 <__wrap___aeabi_dcmplt>:
200028f4:	fe10 f430 	dcp_pcmp APSR_nzcv
200028f8:	d4f8      	bmi.n	200028ec <__wrap___aeabi_dcmpun+0x1c>
200028fa:	ec43 2410 	dcp_wxup r2, r3
200028fe:	ec41 0411 	dcp_wyup r0, r1
20002902:	ee00 0401 			dcp_add0
20002906:	ee10 f430 			dcp_rcmp APSR_nzcv
2000290a:	bf8c      	ite	hi
2000290c:	2001      	movhi	r0, #1
2000290e:	2000      	movls	r0, #0
20002910:	4770      	bx	lr
20002912:	bf00      	nop
20002914:	b500      	push	{lr}
20002916:	f7ff fed5 	bl	200026c4 <generic_save_state>
2000291a:	e002      	b.n	20002922 <__wrap___aeabi_dcmple+0x6>

2000291c <__wrap___aeabi_dcmple>:
2000291c:	fe10 f430 	dcp_pcmp APSR_nzcv
20002920:	d4f8      	bmi.n	20002914 <__wrap___aeabi_dcmplt+0x20>
20002922:	ec43 2410 	dcp_wxup r2, r3
20002926:	ec41 0411 	dcp_wyup r0, r1
2000292a:	ee00 0401 			dcp_add0
2000292e:	ee10 f430 			dcp_rcmp APSR_nzcv
20002932:	bf2c      	ite	cs
20002934:	2001      	movcs	r0, #1
20002936:	2000      	movcc	r0, #0
20002938:	4770      	bx	lr
2000293a:	bf00      	nop
2000293c:	b500      	push	{lr}
2000293e:	f7ff fec1 	bl	200026c4 <generic_save_state>
20002942:	e002      	b.n	2000294a <__wrap___aeabi_dcmpge+0x6>

20002944 <__wrap___aeabi_dcmpge>:
20002944:	fe10 f430 	dcp_pcmp APSR_nzcv
20002948:	d4f8      	bmi.n	2000293c <__wrap___aeabi_dcmple+0x20>
2000294a:	ec41 0410 	dcp_wxup r0, r1
2000294e:	ec43 2411 	dcp_wyup r2, r3
20002952:	ee00 0401 			dcp_add0
20002956:	ee10 f430 			dcp_rcmp APSR_nzcv
2000295a:	bf2c      	ite	cs
2000295c:	2001      	movcs	r0, #1
2000295e:	2000      	movcc	r0, #0
20002960:	4770      	bx	lr
20002962:	bf00      	nop
20002964:	b500      	push	{lr}
20002966:	f7ff fead 	bl	200026c4 <generic_save_state>
2000296a:	e002      	b.n	20002972 <__wrap___aeabi_dcmpgt+0x6>

2000296c <__wrap___aeabi_dcmpgt>:
2000296c:	fe10 f430 	dcp_pcmp APSR_nzcv
20002970:	d4f8      	bmi.n	20002964 <__wrap___aeabi_dcmpge+0x20>
20002972:	ec41 0410 	dcp_wxup r0, r1
20002976:	ec43 2411 	dcp_wyup r2, r3
2000297a:	ee00 0401 			dcp_add0
2000297e:	ee10 f430 			dcp_rcmp APSR_nzcv
20002982:	bf8c      	ite	hi
20002984:	2001      	movhi	r0, #1
20002986:	2000      	movls	r0, #0
20002988:	4770      	bx	lr
2000298a:	bf00      	nop

2000298c <_out_null>:
2000298c:	4770      	bx	lr
2000298e:	bf00      	nop

20002990 <_out_rev>:
20002990:	e92d 4ff0 	stmdb	sp!, {r4, r5, r6, r7, r8, r9, sl, fp, lr}
20002994:	b083      	sub	sp, #12
20002996:	460f      	mov	r7, r1
20002998:	4611      	mov	r1, r2
2000299a:	e9dd b20e 	ldrd	fp, r2, [sp, #56]	@ 0x38
2000299e:	0792      	lsls	r2, r2, #30
200029a0:	4698      	mov	r8, r3
200029a2:	e9dd 930c 	ldrd	r9, r3, [sp, #48]	@ 0x30
200029a6:	4606      	mov	r6, r0
200029a8:	d029      	beq.n	200029fe <_out_rev+0x6e>
200029aa:	460d      	mov	r5, r1
200029ac:	b19b      	cbz	r3, 200029d6 <_out_rev+0x46>
200029ae:	eb09 0403 	add.w	r4, r9, r3
200029b2:	eb05 0a04 	add.w	sl, r5, r4
200029b6:	9501      	str	r5, [sp, #4]
200029b8:	460d      	mov	r5, r1
200029ba:	930d      	str	r3, [sp, #52]	@ 0x34
200029bc:	ebaa 0204 	sub.w	r2, sl, r4
200029c0:	f814 0d01 	ldrb.w	r0, [r4, #-1]!
200029c4:	4643      	mov	r3, r8
200029c6:	4639      	mov	r1, r7
200029c8:	47b0      	blx	r6
200029ca:	45a1      	cmp	r9, r4
200029cc:	d1f6      	bne.n	200029bc <_out_rev+0x2c>
200029ce:	4629      	mov	r1, r5
200029d0:	9b0d      	ldr	r3, [sp, #52]	@ 0x34
200029d2:	9d01      	ldr	r5, [sp, #4]
200029d4:	441d      	add	r5, r3
200029d6:	9b0f      	ldr	r3, [sp, #60]	@ 0x3c
200029d8:	079b      	lsls	r3, r3, #30
200029da:	d50c      	bpl.n	200029f6 <_out_rev+0x66>
200029dc:	1a6c      	subs	r4, r5, r1
200029de:	45a3      	cmp	fp, r4
200029e0:	d909      	bls.n	200029f6 <_out_rev+0x66>
200029e2:	462a      	mov	r2, r5
200029e4:	4643      	mov	r3, r8
200029e6:	4639      	mov	r1, r7
200029e8:	2020      	movs	r0, #32
200029ea:	3401      	adds	r4, #1
200029ec:	47b0      	blx	r6
200029ee:	455c      	cmp	r4, fp
200029f0:	f105 0501 	add.w	r5, r5, #1
200029f4:	d3f5      	bcc.n	200029e2 <_out_rev+0x52>
200029f6:	4628      	mov	r0, r5
200029f8:	b003      	add	sp, #12
200029fa:	e8bd 8ff0 	ldmia.w	sp!, {r4, r5, r6, r7, r8, r9, sl, fp, pc}
200029fe:	455b      	cmp	r3, fp
20002a00:	d215      	bcs.n	20002a2e <_out_rev+0x9e>
20002a02:	468a      	mov	sl, r1
20002a04:	461c      	mov	r4, r3
20002a06:	4689      	mov	r9, r1
20002a08:	ebab 0503 	sub.w	r5, fp, r3
20002a0c:	440d      	add	r5, r1
20002a0e:	4652      	mov	r2, sl
20002a10:	4643      	mov	r3, r8
20002a12:	4639      	mov	r1, r7
20002a14:	2020      	movs	r0, #32
20002a16:	f10a 0a01 	add.w	sl, sl, #1
20002a1a:	47b0      	blx	r6
20002a1c:	45aa      	cmp	sl, r5
20002a1e:	d1f6      	bne.n	20002a0e <_out_rev+0x7e>
20002a20:	4649      	mov	r1, r9
20002a22:	4623      	mov	r3, r4
20002a24:	f8dd 9030 	ldr.w	r9, [sp, #48]	@ 0x30
20002a28:	2c00      	cmp	r4, #0
20002a2a:	d1c0      	bne.n	200029ae <_out_rev+0x1e>
20002a2c:	e7e3      	b.n	200029f6 <_out_rev+0x66>
20002a2e:	460d      	mov	r5, r1
20002a30:	2b00      	cmp	r3, #0
20002a32:	d1bc      	bne.n	200029ae <_out_rev+0x1e>
20002a34:	e7df      	b.n	200029f6 <_out_rev+0x66>
20002a36:	bf00      	nop

20002a38 <_ntoa_format>:
20002a38:	e92d 4ff0 	stmdb	sp!, {r4, r5, r6, r7, r8, r9, sl, fp, lr}
20002a3c:	460f      	mov	r7, r1
20002a3e:	990f      	ldr	r1, [sp, #60]	@ 0x3c
20002a40:	4606      	mov	r6, r0
20002a42:	f89d 002c 	ldrb.w	r0, [sp, #44]	@ 0x2c
20002a46:	078d      	lsls	r5, r1, #30
20002a48:	4690      	mov	r8, r2
20002a4a:	e9dd a20c 	ldrd	sl, r2, [sp, #48]	@ 0x30
20002a4e:	4699      	mov	r9, r3
20002a50:	4683      	mov	fp, r0
20002a52:	9c09      	ldr	r4, [sp, #36]	@ 0x24
20002a54:	f8dd c028 	ldr.w	ip, [sp, #40]	@ 0x28
20002a58:	9b0e      	ldr	r3, [sp, #56]	@ 0x38
20002a5a:	d449      	bmi.n	20002af0 <_ntoa_format+0xb8>
20002a5c:	2b00      	cmp	r3, #0
20002a5e:	d142      	bne.n	20002ae6 <_ntoa_format+0xae>
20002a60:	4594      	cmp	ip, r2
20002a62:	d245      	bcs.n	20002af0 <_ntoa_format+0xb8>
20002a64:	f001 0501 	and.w	r5, r1, #1
20002a68:	f104 3eff 	add.w	lr, r4, #4294967295	@ 0xffffffff
20002a6c:	2030      	movs	r0, #48	@ 0x30
20002a6e:	44e6      	add	lr, ip
20002a70:	e005      	b.n	20002a7e <_ntoa_format+0x46>
20002a72:	f10c 0c01 	add.w	ip, ip, #1
20002a76:	4562      	cmp	r2, ip
20002a78:	f80e 0f01 	strb.w	r0, [lr, #1]!
20002a7c:	d902      	bls.n	20002a84 <_ntoa_format+0x4c>
20002a7e:	f1bc 0f20 	cmp.w	ip, #32
20002a82:	d1f6      	bne.n	20002a72 <_ntoa_format+0x3a>
20002a84:	2d00      	cmp	r5, #0
20002a86:	f000 8087 	beq.w	20002b98 <_ntoa_format+0x160>
20002a8a:	4563      	cmp	r3, ip
20002a8c:	d930      	bls.n	20002af0 <_ntoa_format+0xb8>
20002a8e:	1e60      	subs	r0, r4, #1
20002a90:	f04f 0e30 	mov.w	lr, #48	@ 0x30
20002a94:	4460      	add	r0, ip
20002a96:	e005      	b.n	20002aa4 <_ntoa_format+0x6c>
20002a98:	f10c 0c01 	add.w	ip, ip, #1
20002a9c:	459c      	cmp	ip, r3
20002a9e:	f800 ef01 	strb.w	lr, [r0, #1]!
20002aa2:	d025      	beq.n	20002af0 <_ntoa_format+0xb8>
20002aa4:	f1bc 0f20 	cmp.w	ip, #32
20002aa8:	d1f6      	bne.n	20002a98 <_ntoa_format+0x60>
20002aaa:	06cd      	lsls	r5, r1, #27
20002aac:	d50e      	bpl.n	20002acc <_ntoa_format+0x94>
20002aae:	0548      	lsls	r0, r1, #21
20002ab0:	d451      	bmi.n	20002b56 <_ntoa_format+0x11e>
20002ab2:	4562      	cmp	r2, ip
20002ab4:	d064      	beq.n	20002b80 <_ntoa_format+0x148>
20002ab6:	4563      	cmp	r3, ip
20002ab8:	d062      	beq.n	20002b80 <_ntoa_format+0x148>
20002aba:	f1ba 0f10 	cmp.w	sl, #16
20002abe:	d04d      	beq.n	20002b5c <_ntoa_format+0x124>
20002ac0:	f1ba 0f02 	cmp.w	sl, #2
20002ac4:	d055      	beq.n	20002b72 <_ntoa_format+0x13a>
20002ac6:	f1bc 0f20 	cmp.w	ip, #32
20002aca:	d12d      	bne.n	20002b28 <_ntoa_format+0xf0>
20002acc:	2220      	movs	r2, #32
20002ace:	e9cd 310b 	strd	r3, r1, [sp, #44]	@ 0x2c
20002ad2:	920a      	str	r2, [sp, #40]	@ 0x28
20002ad4:	464b      	mov	r3, r9
20002ad6:	4642      	mov	r2, r8
20002ad8:	4639      	mov	r1, r7
20002ada:	4630      	mov	r0, r6
20002adc:	9409      	str	r4, [sp, #36]	@ 0x24
20002ade:	e8bd 4ff0 	ldmia.w	sp!, {r4, r5, r6, r7, r8, r9, sl, fp, lr}
20002ae2:	f7ff bf55 	b.w	20002990 <_out_rev>
20002ae6:	f011 0501 	ands.w	r5, r1, #1
20002aea:	d12e      	bne.n	20002b4a <_ntoa_format+0x112>
20002aec:	4594      	cmp	ip, r2
20002aee:	d3bb      	bcc.n	20002a68 <_ntoa_format+0x30>
20002af0:	06cd      	lsls	r5, r1, #27
20002af2:	d51e      	bpl.n	20002b32 <_ntoa_format+0xfa>
20002af4:	0548      	lsls	r0, r1, #21
20002af6:	d4e0      	bmi.n	20002aba <_ntoa_format+0x82>
20002af8:	f1bc 0f00 	cmp.w	ip, #0
20002afc:	d1d9      	bne.n	20002ab2 <_ntoa_format+0x7a>
20002afe:	f1ba 0f10 	cmp.w	sl, #16
20002b02:	d05f      	beq.n	20002bc4 <_ntoa_format+0x18c>
20002b04:	f1ba 0f02 	cmp.w	sl, #2
20002b08:	d074      	beq.n	20002bf4 <_ntoa_format+0x1bc>
20002b0a:	2230      	movs	r2, #48	@ 0x30
20002b0c:	f04f 0c01 	mov.w	ip, #1
20002b10:	7022      	strb	r2, [r4, #0]
20002b12:	f1bb 0f00 	cmp.w	fp, #0
20002b16:	d112      	bne.n	20002b3e <_ntoa_format+0x106>
20002b18:	0748      	lsls	r0, r1, #29
20002b1a:	d542      	bpl.n	20002ba2 <_ntoa_format+0x16a>
20002b1c:	222b      	movs	r2, #43	@ 0x2b
20002b1e:	f804 200c 	strb.w	r2, [r4, ip]
20002b22:	f10c 0201 	add.w	r2, ip, #1
20002b26:	e7d2      	b.n	20002ace <_ntoa_format+0x96>
20002b28:	4662      	mov	r2, ip
20002b2a:	f10c 0c01 	add.w	ip, ip, #1
20002b2e:	2030      	movs	r0, #48	@ 0x30
20002b30:	54a0      	strb	r0, [r4, r2]
20002b32:	f1bc 0f20 	cmp.w	ip, #32
20002b36:	d0c9      	beq.n	20002acc <_ntoa_format+0x94>
20002b38:	f1bb 0f00 	cmp.w	fp, #0
20002b3c:	d0ec      	beq.n	20002b18 <_ntoa_format+0xe0>
20002b3e:	222d      	movs	r2, #45	@ 0x2d
20002b40:	f804 200c 	strb.w	r2, [r4, ip]
20002b44:	f10c 0201 	add.w	r2, ip, #1
20002b48:	e7c1      	b.n	20002ace <_ntoa_format+0x96>
20002b4a:	b398      	cbz	r0, 20002bb4 <_ntoa_format+0x17c>
20002b4c:	4594      	cmp	ip, r2
20002b4e:	f103 33ff 	add.w	r3, r3, #4294967295	@ 0xffffffff
20002b52:	d389      	bcc.n	20002a68 <_ntoa_format+0x30>
20002b54:	e799      	b.n	20002a8a <_ntoa_format+0x52>
20002b56:	f1ba 0f10 	cmp.w	sl, #16
20002b5a:	d1b7      	bne.n	20002acc <_ntoa_format+0x94>
20002b5c:	068d      	lsls	r5, r1, #26
20002b5e:	d53d      	bpl.n	20002bdc <_ntoa_format+0x1a4>
20002b60:	f1bc 0f20 	cmp.w	ip, #32
20002b64:	d0b2      	beq.n	20002acc <_ntoa_format+0x94>
20002b66:	2258      	movs	r2, #88	@ 0x58
20002b68:	f804 200c 	strb.w	r2, [r4, ip]
20002b6c:	f10c 0c01 	add.w	ip, ip, #1
20002b70:	e7a9      	b.n	20002ac6 <_ntoa_format+0x8e>
20002b72:	f1bc 0f20 	cmp.w	ip, #32
20002b76:	d0a9      	beq.n	20002acc <_ntoa_format+0x94>
20002b78:	4662      	mov	r2, ip
20002b7a:	f10c 0c01 	add.w	ip, ip, #1
20002b7e:	e008      	b.n	20002b92 <_ntoa_format+0x15a>
20002b80:	f1bc 0201 	subs.w	r2, ip, #1
20002b84:	d0bb      	beq.n	20002afe <_ntoa_format+0xc6>
20002b86:	f1ba 0f10 	cmp.w	sl, #16
20002b8a:	d035      	beq.n	20002bf8 <_ntoa_format+0x1c0>
20002b8c:	f1ba 0f02 	cmp.w	sl, #2
20002b90:	d1cd      	bne.n	20002b2e <_ntoa_format+0xf6>
20002b92:	2062      	movs	r0, #98	@ 0x62
20002b94:	54a0      	strb	r0, [r4, r2]
20002b96:	e796      	b.n	20002ac6 <_ntoa_format+0x8e>
20002b98:	06cd      	lsls	r5, r1, #27
20002b9a:	d5ca      	bpl.n	20002b32 <_ntoa_format+0xfa>
20002b9c:	0548      	lsls	r0, r1, #21
20002b9e:	d588      	bpl.n	20002ab2 <_ntoa_format+0x7a>
20002ba0:	e78b      	b.n	20002aba <_ntoa_format+0x82>
20002ba2:	070a      	lsls	r2, r1, #28
20002ba4:	bf49      	itett	mi
20002ba6:	2220      	movmi	r2, #32
20002ba8:	4662      	movpl	r2, ip
20002baa:	f804 200c 	strbmi.w	r2, [r4, ip]
20002bae:	f10c 0201 	addmi.w	r2, ip, #1
20002bb2:	e78c      	b.n	20002ace <_ntoa_format+0x96>
20002bb4:	f011 0f0c 	tst.w	r1, #12
20002bb8:	d000      	beq.n	20002bbc <_ntoa_format+0x184>
20002bba:	3b01      	subs	r3, #1
20002bbc:	4594      	cmp	ip, r2
20002bbe:	f4ff af53 	bcc.w	20002a68 <_ntoa_format+0x30>
20002bc2:	e762      	b.n	20002a8a <_ntoa_format+0x52>
20002bc4:	068a      	lsls	r2, r1, #26
20002bc6:	d413      	bmi.n	20002bf0 <_ntoa_format+0x1b8>
20002bc8:	2278      	movs	r2, #120	@ 0x78
20002bca:	7022      	strb	r2, [r4, #0]
20002bcc:	2230      	movs	r2, #48	@ 0x30
20002bce:	f04f 0c02 	mov.w	ip, #2
20002bd2:	7062      	strb	r2, [r4, #1]
20002bd4:	f1bb 0f00 	cmp.w	fp, #0
20002bd8:	d09e      	beq.n	20002b18 <_ntoa_format+0xe0>
20002bda:	e7b0      	b.n	20002b3e <_ntoa_format+0x106>
20002bdc:	f1bc 0f20 	cmp.w	ip, #32
20002be0:	f43f af74 	beq.w	20002acc <_ntoa_format+0x94>
20002be4:	2278      	movs	r2, #120	@ 0x78
20002be6:	f804 200c 	strb.w	r2, [r4, ip]
20002bea:	f10c 0c01 	add.w	ip, ip, #1
20002bee:	e76a      	b.n	20002ac6 <_ntoa_format+0x8e>
20002bf0:	2258      	movs	r2, #88	@ 0x58
20002bf2:	e7ea      	b.n	20002bca <_ntoa_format+0x192>
20002bf4:	2262      	movs	r2, #98	@ 0x62
20002bf6:	e7e8      	b.n	20002bca <_ntoa_format+0x192>
20002bf8:	068d      	lsls	r5, r1, #26
20002bfa:	f1ac 0002 	sub.w	r0, ip, #2
20002bfe:	d504      	bpl.n	20002c0a <_ntoa_format+0x1d2>
20002c00:	f04f 0e58 	mov.w	lr, #88	@ 0x58
20002c04:	f804 e000 	strb.w	lr, [r4, r0]
20002c08:	e791      	b.n	20002b2e <_ntoa_format+0xf6>
20002c0a:	f04f 0e78 	mov.w	lr, #120	@ 0x78
20002c0e:	f804 e000 	strb.w	lr, [r4, r0]
20002c12:	e78c      	b.n	20002b2e <_ntoa_format+0xf6>

20002c14 <_out_char>:
20002c14:	b900      	cbnz	r0, 20002c18 <_out_char+0x4>
20002c16:	4770      	bx	lr
20002c18:	f001 bbb8 	b.w	2000438c <__wrap_putchar>

20002c1c <_out_fct>:
20002c1c:	b110      	cbz	r0, 20002c24 <_out_fct+0x8>
20002c1e:	e9d1 3100 	ldrd	r3, r1, [r1]
20002c22:	4718      	bx	r3
20002c24:	4770      	bx	lr
20002c26:	bf00      	nop

20002c28 <_ftoa>:
20002c28:	e92d 4ff0 	stmdb	sp!, {r4, r5, r6, r7, r8, r9, sl, fp, lr}
20002c2c:	b097      	sub	sp, #92	@ 0x5c
20002c2e:	ed9d 7b20 	vldr	d7, [sp, #128]	@ 0x80
20002c32:	e9dd 5b22 	ldrd	r5, fp, [sp, #136]	@ 0x88
20002c36:	4680      	mov	r8, r0
20002c38:	4689      	mov	r9, r1
20002c3a:	ec51 0b17 	vmov	r0, r1, d7
20002c3e:	469a      	mov	sl, r3
20002c40:	9b24      	ldr	r3, [sp, #144]	@ 0x90
20002c42:	920c      	str	r2, [sp, #48]	@ 0x30
20002c44:	9307      	str	r3, [sp, #28]
20002c46:	4602      	mov	r2, r0
20002c48:	460b      	mov	r3, r1
20002c4a:	ed8d 7b04 	vstr	d7, [sp, #16]
20002c4e:	f7ff fe3f 	bl	200028d0 <__wrap___aeabi_dcmpun>
20002c52:	2800      	cmp	r0, #0
20002c54:	f040 81e2 	bne.w	2000301c <_ftoa+0x3f4>
20002c58:	e9dd 0104 	ldrd	r0, r1, [sp, #16]
20002c5c:	f04f 32ff 	mov.w	r2, #4294967295	@ 0xffffffff
20002c60:	f46f 1380 	mvn.w	r3, #1048576	@ 0x100000
20002c64:	f7ff fe46 	bl	200028f4 <__wrap___aeabi_dcmplt>
20002c68:	2800      	cmp	r0, #0
20002c6a:	f040 80cb 	bne.w	20002e04 <_ftoa+0x1dc>
20002c6e:	e9dd 0104 	ldrd	r0, r1, [sp, #16]
20002c72:	f04f 32ff 	mov.w	r2, #4294967295	@ 0xffffffff
20002c76:	4bba      	ldr	r3, [pc, #744]	@ (20002f60 <_ftoa+0x338>)
20002c78:	f7ff fe78 	bl	2000296c <__wrap___aeabi_dcmpgt>
20002c7c:	2800      	cmp	r0, #0
20002c7e:	f040 809f 	bne.w	20002dc0 <_ftoa+0x198>
20002c82:	e9dd 6704 	ldrd	r6, r7, [sp, #16]
20002c86:	a3b2      	add	r3, pc, #712	@ (adr r3, 20002f50 <_ftoa+0x328>)
20002c88:	e9d3 2300 	ldrd	r2, r3, [r3]
20002c8c:	4630      	mov	r0, r6
20002c8e:	4639      	mov	r1, r7
20002c90:	f7ff fe6c 	bl	2000296c <__wrap___aeabi_dcmpgt>
20002c94:	2800      	cmp	r0, #0
20002c96:	f040 8082 	bne.w	20002d9e <_ftoa+0x176>
20002c9a:	a3af      	add	r3, pc, #700	@ (adr r3, 20002f58 <_ftoa+0x330>)
20002c9c:	e9d3 2300 	ldrd	r2, r3, [r3]
20002ca0:	4630      	mov	r0, r6
20002ca2:	4639      	mov	r1, r7
20002ca4:	f7ff fe26 	bl	200028f4 <__wrap___aeabi_dcmplt>
20002ca8:	2800      	cmp	r0, #0
20002caa:	d178      	bne.n	20002d9e <_ftoa+0x176>
20002cac:	4630      	mov	r0, r6
20002cae:	4639      	mov	r1, r7
20002cb0:	2200      	movs	r2, #0
20002cb2:	2300      	movs	r3, #0
20002cb4:	f7ff fe1e 	bl	200028f4 <__wrap___aeabi_dcmplt>
20002cb8:	2800      	cmp	r0, #0
20002cba:	f040 8098 	bne.w	20002dee <_ftoa+0x1c6>
20002cbe:	900d      	str	r0, [sp, #52]	@ 0x34
20002cc0:	9b07      	ldr	r3, [sp, #28]
20002cc2:	2130      	movs	r1, #48	@ 0x30
20002cc4:	f413 6f80 	tst.w	r3, #1024	@ 0x400
20002cc8:	bf08      	it	eq
20002cca:	2506      	moveq	r5, #6
20002ccc:	aa0e      	add	r2, sp, #56	@ 0x38
20002cce:	462b      	mov	r3, r5
20002cd0:	f1a5 0620 	sub.w	r6, r5, #32
20002cd4:	e005      	b.n	20002ce2 <_ftoa+0xba>
20002cd6:	3b01      	subs	r3, #1
20002cd8:	42b3      	cmp	r3, r6
20002cda:	f802 1b01 	strb.w	r1, [r2], #1
20002cde:	f000 8164 	beq.w	20002faa <_ftoa+0x382>
20002ce2:	2b09      	cmp	r3, #9
20002ce4:	d8f7      	bhi.n	20002cd6 <_ftoa+0xae>
20002ce6:	461e      	mov	r6, r3
20002ce8:	1aed      	subs	r5, r5, r3
20002cea:	e9dd 0104 	ldrd	r0, r1, [sp, #16]
20002cee:	f7ff fdcb 	bl	20002888 <__wrap___aeabi_d2iz>
20002cf2:	4b9c      	ldr	r3, [pc, #624]	@ (20002f64 <_ftoa+0x33c>)
20002cf4:	4604      	mov	r4, r0
20002cf6:	eb03 03c6 	add.w	r3, r3, r6, lsl #3
20002cfa:	ed93 7b00 	vldr	d7, [r3]
20002cfe:	ed8d 7b08 	vstr	d7, [sp, #32]
20002d02:	f7ff fd9d 	bl	20002840 <__wrap___aeabi_i2d>
20002d06:	4602      	mov	r2, r0
20002d08:	460b      	mov	r3, r1
20002d0a:	e9dd 0104 	ldrd	r0, r1, [sp, #16]
20002d0e:	f7ff fd0f 	bl	20002730 <__wrap___aeabi_dsub>
20002d12:	e9dd 2308 	ldrd	r2, r3, [sp, #32]
20002d16:	f7ff fd1f 	bl	20002758 <__wrap___aeabi_dmul>
20002d1a:	e9cd 010a 	strd	r0, r1, [sp, #40]	@ 0x28
20002d1e:	f7ff fdc5 	bl	200028ac <__wrap___aeabi_d2uiz>
20002d22:	4607      	mov	r7, r0
20002d24:	f7ff fd9e 	bl	20002864 <__wrap___aeabi_ui2d>
20002d28:	4602      	mov	r2, r0
20002d2a:	460b      	mov	r3, r1
20002d2c:	e9dd 010a 	ldrd	r0, r1, [sp, #40]	@ 0x28
20002d30:	f7ff fcfe 	bl	20002730 <__wrap___aeabi_dsub>
20002d34:	2200      	movs	r2, #0
20002d36:	4b8c      	ldr	r3, [pc, #560]	@ (20002f68 <_ftoa+0x340>)
20002d38:	e9cd 010a 	strd	r0, r1, [sp, #40]	@ 0x28
20002d3c:	f7ff fe16 	bl	2000296c <__wrap___aeabi_dcmpgt>
20002d40:	2800      	cmp	r0, #0
20002d42:	f000 8088 	beq.w	20002e56 <_ftoa+0x22e>
20002d46:	3701      	adds	r7, #1
20002d48:	4638      	mov	r0, r7
20002d4a:	f7ff fd8b 	bl	20002864 <__wrap___aeabi_ui2d>
20002d4e:	4602      	mov	r2, r0
20002d50:	460b      	mov	r3, r1
20002d52:	e9dd 0108 	ldrd	r0, r1, [sp, #32]
20002d56:	f7ff fde1 	bl	2000291c <__wrap___aeabi_dcmple>
20002d5a:	b108      	cbz	r0, 20002d60 <_ftoa+0x138>
20002d5c:	2700      	movs	r7, #0
20002d5e:	3401      	adds	r4, #1
20002d60:	2e00      	cmp	r6, #0
20002d62:	f000 8088 	beq.w	20002e76 <_ftoa+0x24e>
20002d66:	f10d 0337 	add.w	r3, sp, #55	@ 0x37
20002d6a:	f8df c210 	ldr.w	ip, [pc, #528]	@ 20002f7c <_ftoa+0x354>
20002d6e:	1958      	adds	r0, r3, r5
20002d70:	e00d      	b.n	20002d8e <_ftoa+0x166>
20002d72:	fbac 2107 	umull	r2, r1, ip, r7
20002d76:	08c9      	lsrs	r1, r1, #3
20002d78:	eb01 0281 	add.w	r2, r1, r1, lsl #2
20002d7c:	eba7 0242 	sub.w	r2, r7, r2, lsl #1
20002d80:	3230      	adds	r2, #48	@ 0x30
20002d82:	2f09      	cmp	r7, #9
20002d84:	f800 2f01 	strb.w	r2, [r0, #1]!
20002d88:	f240 80fa 	bls.w	20002f80 <_ftoa+0x358>
20002d8c:	460f      	mov	r7, r1
20002d8e:	2d20      	cmp	r5, #32
20002d90:	f106 36ff 	add.w	r6, r6, #4294967295	@ 0xffffffff
20002d94:	f105 0501 	add.w	r5, r5, #1
20002d98:	d1eb      	bne.n	20002d72 <_ftoa+0x14a>
20002d9a:	2520      	movs	r5, #32
20002d9c:	e086      	b.n	20002eac <_ftoa+0x284>
20002d9e:	9b07      	ldr	r3, [sp, #28]
20002da0:	ed9d 7b04 	vldr	d7, [sp, #16]
20002da4:	e9cd b323 	strd	fp, r3, [sp, #140]	@ 0x8c
20002da8:	4649      	mov	r1, r9
20002daa:	4653      	mov	r3, sl
20002dac:	4640      	mov	r0, r8
20002dae:	9a0c      	ldr	r2, [sp, #48]	@ 0x30
20002db0:	ed8d 7b20 	vstr	d7, [sp, #128]	@ 0x80
20002db4:	9522      	str	r5, [sp, #136]	@ 0x88
20002db6:	b017      	add	sp, #92	@ 0x5c
20002db8:	e8bd 4ff0 	ldmia.w	sp!, {r4, r5, r6, r7, r8, r9, sl, fp, lr}
20002dbc:	f000 b980 	b.w	200030c0 <_etoa>
20002dc0:	9b07      	ldr	r3, [sp, #28]
20002dc2:	4649      	mov	r1, r9
20002dc4:	0758      	lsls	r0, r3, #29
20002dc6:	bf4c      	ite	mi
20002dc8:	2304      	movmi	r3, #4
20002dca:	2303      	movpl	r3, #3
20002dcc:	4640      	mov	r0, r8
20002dce:	9321      	str	r3, [sp, #132]	@ 0x84
20002dd0:	4653      	mov	r3, sl
20002dd2:	9a07      	ldr	r2, [sp, #28]
20002dd4:	bf48      	it	mi
20002dd6:	4c65      	ldrmi	r4, [pc, #404]	@ (20002f6c <_ftoa+0x344>)
20002dd8:	e9cd b222 	strd	fp, r2, [sp, #136]	@ 0x88
20002ddc:	bf58      	it	pl
20002dde:	4c64      	ldrpl	r4, [pc, #400]	@ (20002f70 <_ftoa+0x348>)
20002de0:	9a0c      	ldr	r2, [sp, #48]	@ 0x30
20002de2:	9420      	str	r4, [sp, #128]	@ 0x80
20002de4:	b017      	add	sp, #92	@ 0x5c
20002de6:	e8bd 4ff0 	ldmia.w	sp!, {r4, r5, r6, r7, r8, r9, sl, fp, lr}
20002dea:	f7ff bdd1 	b.w	20002990 <_out_rev>
20002dee:	463b      	mov	r3, r7
20002df0:	4632      	mov	r2, r6
20002df2:	2000      	movs	r0, #0
20002df4:	2100      	movs	r1, #0
20002df6:	f7ff fc9b 	bl	20002730 <__wrap___aeabi_dsub>
20002dfa:	2301      	movs	r3, #1
20002dfc:	e9cd 0104 	strd	r0, r1, [sp, #16]
20002e00:	930d      	str	r3, [sp, #52]	@ 0x34
20002e02:	e75d      	b.n	20002cc0 <_ftoa+0x98>
20002e04:	9b07      	ldr	r3, [sp, #28]
20002e06:	f003 0202 	and.w	r2, r3, #2
20002e0a:	079c      	lsls	r4, r3, #30
20002e0c:	9204      	str	r2, [sp, #16]
20002e0e:	f000 80f3 	beq.w	20002ff8 <_ftoa+0x3d0>
20002e12:	9f0c      	ldr	r7, [sp, #48]	@ 0x30
20002e14:	463d      	mov	r5, r7
20002e16:	4e57      	ldr	r6, [pc, #348]	@ (20002f74 <_ftoa+0x34c>)
20002e18:	1d34      	adds	r4, r6, #4
20002e1a:	f814 0d01 	ldrb.w	r0, [r4, #-1]!
20002e1e:	462a      	mov	r2, r5
20002e20:	4653      	mov	r3, sl
20002e22:	4649      	mov	r1, r9
20002e24:	47c0      	blx	r8
20002e26:	42a6      	cmp	r6, r4
20002e28:	f105 0501 	add.w	r5, r5, #1
20002e2c:	d1f5      	bne.n	20002e1a <_ftoa+0x1f2>
20002e2e:	9b04      	ldr	r3, [sp, #16]
20002e30:	1d3c      	adds	r4, r7, #4
20002e32:	b163      	cbz	r3, 20002e4e <_ftoa+0x226>
20002e34:	9d0c      	ldr	r5, [sp, #48]	@ 0x30
20002e36:	1b63      	subs	r3, r4, r5
20002e38:	459b      	cmp	fp, r3
20002e3a:	d908      	bls.n	20002e4e <_ftoa+0x226>
20002e3c:	4622      	mov	r2, r4
20002e3e:	4653      	mov	r3, sl
20002e40:	4649      	mov	r1, r9
20002e42:	2020      	movs	r0, #32
20002e44:	3401      	adds	r4, #1
20002e46:	47c0      	blx	r8
20002e48:	1b63      	subs	r3, r4, r5
20002e4a:	459b      	cmp	fp, r3
20002e4c:	d8f6      	bhi.n	20002e3c <_ftoa+0x214>
20002e4e:	4620      	mov	r0, r4
20002e50:	b017      	add	sp, #92	@ 0x5c
20002e52:	e8bd 8ff0 	ldmia.w	sp!, {r4, r5, r6, r7, r8, r9, sl, fp, pc}
20002e56:	2200      	movs	r2, #0
20002e58:	e9dd 010a 	ldrd	r0, r1, [sp, #40]	@ 0x28
20002e5c:	4b42      	ldr	r3, [pc, #264]	@ (20002f68 <_ftoa+0x340>)
20002e5e:	f7ff fd49 	bl	200028f4 <__wrap___aeabi_dcmplt>
20002e62:	2800      	cmp	r0, #0
20002e64:	f47f af7c 	bne.w	20002d60 <_ftoa+0x138>
20002e68:	2f00      	cmp	r7, #0
20002e6a:	f040 80c1 	bne.w	20002ff0 <_ftoa+0x3c8>
20002e6e:	3701      	adds	r7, #1
20002e70:	2e00      	cmp	r6, #0
20002e72:	f47f af78 	bne.w	20002d66 <_ftoa+0x13e>
20002e76:	4620      	mov	r0, r4
20002e78:	f7ff fce2 	bl	20002840 <__wrap___aeabi_i2d>
20002e7c:	4602      	mov	r2, r0
20002e7e:	460b      	mov	r3, r1
20002e80:	e9dd 0104 	ldrd	r0, r1, [sp, #16]
20002e84:	f7ff fc54 	bl	20002730 <__wrap___aeabi_dsub>
20002e88:	2200      	movs	r2, #0
20002e8a:	4b37      	ldr	r3, [pc, #220]	@ (20002f68 <_ftoa+0x340>)
20002e8c:	4606      	mov	r6, r0
20002e8e:	460f      	mov	r7, r1
20002e90:	f7ff fd30 	bl	200028f4 <__wrap___aeabi_dcmplt>
20002e94:	b940      	cbnz	r0, 20002ea8 <_ftoa+0x280>
20002e96:	4630      	mov	r0, r6
20002e98:	4639      	mov	r1, r7
20002e9a:	2200      	movs	r2, #0
20002e9c:	4b32      	ldr	r3, [pc, #200]	@ (20002f68 <_ftoa+0x340>)
20002e9e:	f7ff fd65 	bl	2000296c <__wrap___aeabi_dcmpgt>
20002ea2:	2800      	cmp	r0, #0
20002ea4:	f000 80a0 	beq.w	20002fe8 <_ftoa+0x3c0>
20002ea8:	f10d 0337 	add.w	r3, sp, #55	@ 0x37
20002eac:	4832      	ldr	r0, [pc, #200]	@ (20002f78 <_ftoa+0x350>)
20002eae:	1959      	adds	r1, r3, r5
20002eb0:	e00d      	b.n	20002ece <_ftoa+0x2a6>
20002eb2:	fb80 7604 	smull	r7, r6, r0, r4
20002eb6:	ebc2 02a6 	rsb	r2, r2, r6, asr #2
20002eba:	eb02 0682 	add.w	r6, r2, r2, lsl #2
20002ebe:	eba4 0646 	sub.w	r6, r4, r6, lsl #1
20002ec2:	3630      	adds	r6, #48	@ 0x30
20002ec4:	4614      	mov	r4, r2
20002ec6:	3501      	adds	r5, #1
20002ec8:	f801 6f01 	strb.w	r6, [r1, #1]!
20002ecc:	b372      	cbz	r2, 20002f2c <_ftoa+0x304>
20002ece:	2d20      	cmp	r5, #32
20002ed0:	ea4f 72e4 	mov.w	r2, r4, asr #31
20002ed4:	d1ed      	bne.n	20002eb2 <_ftoa+0x28a>
20002ed6:	9a07      	ldr	r2, [sp, #28]
20002ed8:	f002 0203 	and.w	r2, r2, #3
20002edc:	2a01      	cmp	r2, #1
20002ede:	d114      	bne.n	20002f0a <_ftoa+0x2e2>
20002ee0:	f1bb 0f00 	cmp.w	fp, #0
20002ee4:	d011      	beq.n	20002f0a <_ftoa+0x2e2>
20002ee6:	9a0d      	ldr	r2, [sp, #52]	@ 0x34
20002ee8:	2a00      	cmp	r2, #0
20002eea:	d060      	beq.n	20002fae <_ftoa+0x386>
20002eec:	f10b 3bff 	add.w	fp, fp, #4294967295	@ 0xffffffff
20002ef0:	f1bb 0f20 	cmp.w	fp, #32
20002ef4:	d909      	bls.n	20002f0a <_ftoa+0x2e2>
20002ef6:	2230      	movs	r2, #48	@ 0x30
20002ef8:	442b      	add	r3, r5
20002efa:	e004      	b.n	20002f06 <_ftoa+0x2de>
20002efc:	3501      	adds	r5, #1
20002efe:	455d      	cmp	r5, fp
20002f00:	f803 2f01 	strb.w	r2, [r3, #1]!
20002f04:	d218      	bcs.n	20002f38 <_ftoa+0x310>
20002f06:	2d20      	cmp	r5, #32
20002f08:	d1f8      	bne.n	20002efc <_ftoa+0x2d4>
20002f0a:	9b07      	ldr	r3, [sp, #28]
20002f0c:	ac0e      	add	r4, sp, #56	@ 0x38
20002f0e:	e9cd b302 	strd	fp, r3, [sp, #8]
20002f12:	9400      	str	r4, [sp, #0]
20002f14:	4653      	mov	r3, sl
20002f16:	4649      	mov	r1, r9
20002f18:	4640      	mov	r0, r8
20002f1a:	9a0c      	ldr	r2, [sp, #48]	@ 0x30
20002f1c:	9501      	str	r5, [sp, #4]
20002f1e:	f7ff fd37 	bl	20002990 <_out_rev>
20002f22:	4604      	mov	r4, r0
20002f24:	4620      	mov	r0, r4
20002f26:	b017      	add	sp, #92	@ 0x5c
20002f28:	e8bd 8ff0 	ldmia.w	sp!, {r4, r5, r6, r7, r8, r9, sl, fp, pc}
20002f2c:	9a07      	ldr	r2, [sp, #28]
20002f2e:	f002 0203 	and.w	r2, r2, #3
20002f32:	2a01      	cmp	r2, #1
20002f34:	f000 80af 	beq.w	20003096 <_ftoa+0x46e>
20002f38:	2d20      	cmp	r5, #32
20002f3a:	d0e6      	beq.n	20002f0a <_ftoa+0x2e2>
20002f3c:	9b0d      	ldr	r3, [sp, #52]	@ 0x34
20002f3e:	2b00      	cmp	r3, #0
20002f40:	d03f      	beq.n	20002fc2 <_ftoa+0x39a>
20002f42:	222d      	movs	r2, #45	@ 0x2d
20002f44:	eb0d 0305 	add.w	r3, sp, r5
20002f48:	f883 2038 	strb.w	r2, [r3, #56]	@ 0x38
20002f4c:	3501      	adds	r5, #1
20002f4e:	e7dc      	b.n	20002f0a <_ftoa+0x2e2>
20002f50:	00000000 	.word	0x00000000
20002f54:	41cdcd65 	.word	0x41cdcd65
20002f58:	00000000 	.word	0x00000000
20002f5c:	c1cdcd65 	.word	0xc1cdcd65
20002f60:	7fefffff 	.word	0x7fefffff
20002f64:	200087f8 	.word	0x200087f8
20002f68:	3fe00000 	.word	0x3fe00000
20002f6c:	200084e8 	.word	0x200084e8
20002f70:	200084f0 	.word	0x200084f0
20002f74:	200084f8 	.word	0x200084f8
20002f78:	66666667 	.word	0x66666667
20002f7c:	cccccccd 	.word	0xcccccccd
20002f80:	2d20      	cmp	r5, #32
20002f82:	f43f af0a 	beq.w	20002d9a <_ftoa+0x172>
20002f86:	2130      	movs	r1, #48	@ 0x30
20002f88:	442e      	add	r6, r5
20002f8a:	195a      	adds	r2, r3, r5
20002f8c:	e005      	b.n	20002f9a <_ftoa+0x372>
20002f8e:	3501      	adds	r5, #1
20002f90:	2d20      	cmp	r5, #32
20002f92:	f802 1f01 	strb.w	r1, [r2, #1]!
20002f96:	f43f af00 	beq.w	20002d9a <_ftoa+0x172>
20002f9a:	42ae      	cmp	r6, r5
20002f9c:	d1f7      	bne.n	20002f8e <_ftoa+0x366>
20002f9e:	222e      	movs	r2, #46	@ 0x2e
20002fa0:	446e      	add	r6, sp
20002fa2:	3501      	adds	r5, #1
20002fa4:	f886 2038 	strb.w	r2, [r6, #56]	@ 0x38
20002fa8:	e780      	b.n	20002eac <_ftoa+0x284>
20002faa:	2520      	movs	r5, #32
20002fac:	e69d      	b.n	20002cea <_ftoa+0xc2>
20002fae:	9a07      	ldr	r2, [sp, #28]
20002fb0:	f012 0f0c 	tst.w	r2, #12
20002fb4:	d05a      	beq.n	2000306c <_ftoa+0x444>
20002fb6:	f10b 3bff 	add.w	fp, fp, #4294967295	@ 0xffffffff
20002fba:	45ab      	cmp	fp, r5
20002fbc:	d89b      	bhi.n	20002ef6 <_ftoa+0x2ce>
20002fbe:	2d20      	cmp	r5, #32
20002fc0:	d0a3      	beq.n	20002f0a <_ftoa+0x2e2>
20002fc2:	9b07      	ldr	r3, [sp, #28]
20002fc4:	075a      	lsls	r2, r3, #29
20002fc6:	d506      	bpl.n	20002fd6 <_ftoa+0x3ae>
20002fc8:	222b      	movs	r2, #43	@ 0x2b
20002fca:	eb0d 0305 	add.w	r3, sp, r5
20002fce:	f883 2038 	strb.w	r2, [r3, #56]	@ 0x38
20002fd2:	3501      	adds	r5, #1
20002fd4:	e799      	b.n	20002f0a <_ftoa+0x2e2>
20002fd6:	071b      	lsls	r3, r3, #28
20002fd8:	d597      	bpl.n	20002f0a <_ftoa+0x2e2>
20002fda:	2220      	movs	r2, #32
20002fdc:	eb0d 0305 	add.w	r3, sp, r5
20002fe0:	f883 2038 	strb.w	r2, [r3, #56]	@ 0x38
20002fe4:	3501      	adds	r5, #1
20002fe6:	e790      	b.n	20002f0a <_ftoa+0x2e2>
20002fe8:	3401      	adds	r4, #1
20002fea:	f024 0401 	bic.w	r4, r4, #1
20002fee:	e75b      	b.n	20002ea8 <_ftoa+0x280>
20002ff0:	07f9      	lsls	r1, r7, #31
20002ff2:	f57f aeb5 	bpl.w	20002d60 <_ftoa+0x138>
20002ff6:	e73a      	b.n	20002e6e <_ftoa+0x246>
20002ff8:	f1bb 0f04 	cmp.w	fp, #4
20002ffc:	f67f af09 	bls.w	20002e12 <_ftoa+0x1ea>
20003000:	9b0c      	ldr	r3, [sp, #48]	@ 0x30
20003002:	461d      	mov	r5, r3
20003004:	3b04      	subs	r3, #4
20003006:	eb03 070b 	add.w	r7, r3, fp
2000300a:	462a      	mov	r2, r5
2000300c:	4653      	mov	r3, sl
2000300e:	4649      	mov	r1, r9
20003010:	2020      	movs	r0, #32
20003012:	3501      	adds	r5, #1
20003014:	47c0      	blx	r8
20003016:	42af      	cmp	r7, r5
20003018:	d1f7      	bne.n	2000300a <_ftoa+0x3e2>
2000301a:	e6fb      	b.n	20002e14 <_ftoa+0x1ec>
2000301c:	9b07      	ldr	r3, [sp, #28]
2000301e:	f003 0202 	and.w	r2, r3, #2
20003022:	079d      	lsls	r5, r3, #30
20003024:	9204      	str	r2, [sp, #16]
20003026:	d025      	beq.n	20003074 <_ftoa+0x44c>
20003028:	9f0c      	ldr	r7, [sp, #48]	@ 0x30
2000302a:	463d      	mov	r5, r7
2000302c:	4e22      	ldr	r6, [pc, #136]	@ (200030b8 <_ftoa+0x490>)
2000302e:	1cf4      	adds	r4, r6, #3
20003030:	f814 0d01 	ldrb.w	r0, [r4, #-1]!
20003034:	462a      	mov	r2, r5
20003036:	4653      	mov	r3, sl
20003038:	4649      	mov	r1, r9
2000303a:	47c0      	blx	r8
2000303c:	42a6      	cmp	r6, r4
2000303e:	f105 0501 	add.w	r5, r5, #1
20003042:	d1f5      	bne.n	20003030 <_ftoa+0x408>
20003044:	9b04      	ldr	r3, [sp, #16]
20003046:	1cfc      	adds	r4, r7, #3
20003048:	2b00      	cmp	r3, #0
2000304a:	f43f af00 	beq.w	20002e4e <_ftoa+0x226>
2000304e:	9d0c      	ldr	r5, [sp, #48]	@ 0x30
20003050:	1b63      	subs	r3, r4, r5
20003052:	459b      	cmp	fp, r3
20003054:	f67f aefb 	bls.w	20002e4e <_ftoa+0x226>
20003058:	4622      	mov	r2, r4
2000305a:	4653      	mov	r3, sl
2000305c:	4649      	mov	r1, r9
2000305e:	2020      	movs	r0, #32
20003060:	3401      	adds	r4, #1
20003062:	47c0      	blx	r8
20003064:	1b63      	subs	r3, r4, r5
20003066:	459b      	cmp	fp, r3
20003068:	d8f6      	bhi.n	20003058 <_ftoa+0x430>
2000306a:	e6f0      	b.n	20002e4e <_ftoa+0x226>
2000306c:	45ab      	cmp	fp, r5
2000306e:	f63f af42 	bhi.w	20002ef6 <_ftoa+0x2ce>
20003072:	e74a      	b.n	20002f0a <_ftoa+0x2e2>
20003074:	f1bb 0f03 	cmp.w	fp, #3
20003078:	d9d6      	bls.n	20003028 <_ftoa+0x400>
2000307a:	9b0c      	ldr	r3, [sp, #48]	@ 0x30
2000307c:	461d      	mov	r5, r3
2000307e:	3b03      	subs	r3, #3
20003080:	eb03 070b 	add.w	r7, r3, fp
20003084:	462a      	mov	r2, r5
20003086:	4653      	mov	r3, sl
20003088:	4649      	mov	r1, r9
2000308a:	2020      	movs	r0, #32
2000308c:	3501      	adds	r5, #1
2000308e:	47c0      	blx	r8
20003090:	42bd      	cmp	r5, r7
20003092:	d1f7      	bne.n	20003084 <_ftoa+0x45c>
20003094:	e7c9      	b.n	2000302a <_ftoa+0x402>
20003096:	f1bb 0f00 	cmp.w	fp, #0
2000309a:	f43f af4d 	beq.w	20002f38 <_ftoa+0x310>
2000309e:	9a0d      	ldr	r2, [sp, #52]	@ 0x34
200030a0:	2a00      	cmp	r2, #0
200030a2:	d084      	beq.n	20002fae <_ftoa+0x386>
200030a4:	f10b 3bff 	add.w	fp, fp, #4294967295	@ 0xffffffff
200030a8:	455d      	cmp	r5, fp
200030aa:	f4ff af24 	bcc.w	20002ef6 <_ftoa+0x2ce>
200030ae:	2d20      	cmp	r5, #32
200030b0:	f47f af47 	bne.w	20002f42 <_ftoa+0x31a>
200030b4:	e729      	b.n	20002f0a <_ftoa+0x2e2>
200030b6:	bf00      	nop
200030b8:	200084f4 	.word	0x200084f4
200030bc:	00000000 	.word	0x00000000

200030c0 <_etoa>:
200030c0:	e92d 4ff0 	stmdb	sp!, {r4, r5, r6, r7, r8, r9, sl, fp, lr}
200030c4:	b09f      	sub	sp, #124	@ 0x7c
200030c6:	461e      	mov	r6, r3
200030c8:	e9dd ab28 	ldrd	sl, fp, [sp, #160]	@ 0xa0
200030cc:	e9dd 982b 	ldrd	r9, r8, [sp, #172]	@ 0xac
200030d0:	9b2a      	ldr	r3, [sp, #168]	@ 0xa8
200030d2:	4604      	mov	r4, r0
200030d4:	460d      	mov	r5, r1
200030d6:	920b      	str	r2, [sp, #44]	@ 0x2c
200030d8:	930a      	str	r3, [sp, #40]	@ 0x28
200030da:	4652      	mov	r2, sl
200030dc:	465b      	mov	r3, fp
200030de:	4650      	mov	r0, sl
200030e0:	4659      	mov	r1, fp
200030e2:	f7ff fbf5 	bl	200028d0 <__wrap___aeabi_dcmpun>
200030e6:	2800      	cmp	r0, #0
200030e8:	f040 80c6 	bne.w	20003278 <_etoa+0x1b8>
200030ec:	4650      	mov	r0, sl
200030ee:	4659      	mov	r1, fp
200030f0:	f04f 32ff 	mov.w	r2, #4294967295	@ 0xffffffff
200030f4:	4b7b      	ldr	r3, [pc, #492]	@ (200032e4 <_etoa+0x224>)
200030f6:	f7ff fc39 	bl	2000296c <__wrap___aeabi_dcmpgt>
200030fa:	2800      	cmp	r0, #0
200030fc:	f040 80bc 	bne.w	20003278 <_etoa+0x1b8>
20003100:	4650      	mov	r0, sl
20003102:	4659      	mov	r1, fp
20003104:	f04f 32ff 	mov.w	r2, #4294967295	@ 0xffffffff
20003108:	f46f 1380 	mvn.w	r3, #1048576	@ 0x100000
2000310c:	f7ff fbf2 	bl	200028f4 <__wrap___aeabi_dcmplt>
20003110:	2800      	cmp	r0, #0
20003112:	f040 80b1 	bne.w	20003278 <_etoa+0x1b8>
20003116:	4650      	mov	r0, sl
20003118:	4659      	mov	r1, fp
2000311a:	2200      	movs	r2, #0
2000311c:	2300      	movs	r3, #0
2000311e:	f7ff fbe9 	bl	200028f4 <__wrap___aeabi_dcmplt>
20003122:	2800      	cmp	r0, #0
20003124:	f040 81dd 	bne.w	200034e2 <_etoa+0x422>
20003128:	e9cd ab08 	strd	sl, fp, [sp, #32]
2000312c:	e9dd 1208 	ldrd	r1, r2, [sp, #32]
20003130:	f418 6080 	ands.w	r0, r8, #1024	@ 0x400
20003134:	460b      	mov	r3, r1
20003136:	460f      	mov	r7, r1
20003138:	f408 6100 	and.w	r1, r8, #2048	@ 0x800
2000313c:	920c      	str	r2, [sp, #48]	@ 0x30
2000313e:	9114      	str	r1, [sp, #80]	@ 0x50
20003140:	9015      	str	r0, [sp, #84]	@ 0x54
20003142:	f040 80a8 	bne.w	20003296 <_etoa+0x1d6>
20003146:	4313      	orrs	r3, r2
20003148:	f040 80d0 	bne.w	200032ec <_etoa+0x22c>
2000314c:	2900      	cmp	r1, #0
2000314e:	f040 81ec 	bne.w	2000352a <_etoa+0x46a>
20003152:	2306      	movs	r3, #6
20003154:	930a      	str	r3, [sp, #40]	@ 0x28
20003156:	f018 0202 	ands.w	r2, r8, #2
2000315a:	9210      	str	r2, [sp, #64]	@ 0x40
2000315c:	f040 81dd 	bne.w	2000351a <_etoa+0x45a>
20003160:	464b      	mov	r3, r9
20003162:	2b04      	cmp	r3, #4
20003164:	bf38      	it	cc
20003166:	2304      	movcc	r3, #4
20003168:	920e      	str	r2, [sp, #56]	@ 0x38
2000316a:	2204      	movs	r2, #4
2000316c:	3b04      	subs	r3, #4
2000316e:	9212      	str	r2, [sp, #72]	@ 0x48
20003170:	9314      	str	r3, [sp, #80]	@ 0x50
20003172:	4650      	mov	r0, sl
20003174:	4659      	mov	r1, fp
20003176:	2200      	movs	r2, #0
20003178:	2300      	movs	r3, #0
2000317a:	f7ff fbbb 	bl	200028f4 <__wrap___aeabi_dcmplt>
2000317e:	2800      	cmp	r0, #0
20003180:	f040 81fb 	bne.w	2000357a <_etoa+0x4ba>
20003184:	ed9d 7b08 	vldr	d7, [sp, #32]
20003188:	9b14      	ldr	r3, [sp, #80]	@ 0x50
2000318a:	9a0b      	ldr	r2, [sp, #44]	@ 0x2c
2000318c:	9303      	str	r3, [sp, #12]
2000318e:	9b0a      	ldr	r3, [sp, #40]	@ 0x28
20003190:	ed8d 7b00 	vstr	d7, [sp]
20003194:	9302      	str	r3, [sp, #8]
20003196:	f428 6300 	bic.w	r3, r8, #2048	@ 0x800
2000319a:	9304      	str	r3, [sp, #16]
2000319c:	4629      	mov	r1, r5
2000319e:	4633      	mov	r3, r6
200031a0:	4620      	mov	r0, r4
200031a2:	f7ff fd41 	bl	20002c28 <_ftoa>
200031a6:	4602      	mov	r2, r0
200031a8:	f018 0f20 	tst.w	r8, #32
200031ac:	4633      	mov	r3, r6
200031ae:	4629      	mov	r1, r5
200031b0:	bf0c      	ite	eq
200031b2:	2065      	moveq	r0, #101	@ 0x65
200031b4:	2045      	movne	r0, #69	@ 0x45
200031b6:	f102 0801 	add.w	r8, r2, #1
200031ba:	47a0      	blx	r4
200031bc:	9b12      	ldr	r3, [sp, #72]	@ 0x48
200031be:	f10d 0a58 	add.w	sl, sp, #88	@ 0x58
200031c2:	f103 3bff 	add.w	fp, r3, #4294967295	@ 0xffffffff
200031c6:	9b0e      	ldr	r3, [sp, #56]	@ 0x38
200031c8:	2200      	movs	r2, #0
200031ca:	ea83 7ce3 	eor.w	ip, r3, r3, asr #31
200031ce:	4650      	mov	r0, sl
200031d0:	f8df e114 	ldr.w	lr, [pc, #276]	@ 200032e8 <_etoa+0x228>
200031d4:	9f0b      	ldr	r7, [sp, #44]	@ 0x2c
200031d6:	ebac 7ce3 	sub.w	ip, ip, r3, asr #31
200031da:	0fd9      	lsrs	r1, r3, #31
200031dc:	f8cd 8020 	str.w	r8, [sp, #32]
200031e0:	e002      	b.n	200031e8 <_etoa+0x128>
200031e2:	2a20      	cmp	r2, #32
200031e4:	46c4      	mov	ip, r8
200031e6:	d010      	beq.n	2000320a <_etoa+0x14a>
200031e8:	fbae 380c 	umull	r3, r8, lr, ip
200031ec:	ea4f 08d8 	mov.w	r8, r8, lsr #3
200031f0:	eb08 0388 	add.w	r3, r8, r8, lsl #2
200031f4:	ebac 0343 	sub.w	r3, ip, r3, lsl #1
200031f8:	3001      	adds	r0, #1
200031fa:	3330      	adds	r3, #48	@ 0x30
200031fc:	f1bc 0f09 	cmp.w	ip, #9
20003200:	f102 0201 	add.w	r2, r2, #1
20003204:	f800 3c01 	strb.w	r3, [r0, #-1]
20003208:	d8eb      	bhi.n	200031e2 <_etoa+0x122>
2000320a:	2305      	movs	r3, #5
2000320c:	f04f 0c00 	mov.w	ip, #0
20003210:	9306      	str	r3, [sp, #24]
20003212:	230a      	movs	r3, #10
20003214:	f8dd 8020 	ldr.w	r8, [sp, #32]
20003218:	e9cd 2101 	strd	r2, r1, [sp, #4]
2000321c:	e9cd 3c03 	strd	r3, ip, [sp, #12]
20003220:	f8cd a000 	str.w	sl, [sp]
20003224:	4633      	mov	r3, r6
20003226:	4642      	mov	r2, r8
20003228:	4629      	mov	r1, r5
2000322a:	4620      	mov	r0, r4
2000322c:	f8cd b014 	str.w	fp, [sp, #20]
20003230:	f7ff fc02 	bl	20002a38 <_ntoa_format>
20003234:	9b10      	ldr	r3, [sp, #64]	@ 0x40
20003236:	4682      	mov	sl, r0
20003238:	b1d3      	cbz	r3, 20003270 <_etoa+0x1b0>
2000323a:	eba0 0807 	sub.w	r8, r0, r7
2000323e:	45c1      	cmp	r9, r8
20003240:	d916      	bls.n	20003270 <_etoa+0x1b0>
20003242:	eb07 0208 	add.w	r2, r7, r8
20003246:	4633      	mov	r3, r6
20003248:	4629      	mov	r1, r5
2000324a:	2020      	movs	r0, #32
2000324c:	f108 0801 	add.w	r8, r8, #1
20003250:	47a0      	blx	r4
20003252:	45c1      	cmp	r9, r8
20003254:	d8f5      	bhi.n	20003242 <_etoa+0x182>
20003256:	1e7b      	subs	r3, r7, #1
20003258:	444b      	add	r3, r9
2000325a:	f1c7 0201 	rsb	r2, r7, #1
2000325e:	eba3 030a 	sub.w	r3, r3, sl
20003262:	4452      	add	r2, sl
20003264:	4591      	cmp	r9, r2
20003266:	bf38      	it	cc
20003268:	2300      	movcc	r3, #0
2000326a:	f10a 0a01 	add.w	sl, sl, #1
2000326e:	449a      	add	sl, r3
20003270:	4650      	mov	r0, sl
20003272:	b01f      	add	sp, #124	@ 0x7c
20003274:	e8bd 8ff0 	ldmia.w	sp!, {r4, r5, r6, r7, r8, r9, sl, fp, pc}
20003278:	4633      	mov	r3, r6
2000327a:	4629      	mov	r1, r5
2000327c:	4620      	mov	r0, r4
2000327e:	e9cd ab28 	strd	sl, fp, [sp, #160]	@ 0xa0
20003282:	9c0a      	ldr	r4, [sp, #40]	@ 0x28
20003284:	e9cd 982b 	strd	r9, r8, [sp, #172]	@ 0xac
20003288:	9a0b      	ldr	r2, [sp, #44]	@ 0x2c
2000328a:	942a      	str	r4, [sp, #168]	@ 0xa8
2000328c:	b01f      	add	sp, #124	@ 0x7c
2000328e:	e8bd 4ff0 	ldmia.w	sp!, {r4, r5, r6, r7, r8, r9, sl, fp, lr}
20003292:	f7ff bcc9 	b.w	20002c28 <_ftoa>
20003296:	ea57 0302 	orrs.w	r3, r7, r2
2000329a:	d129      	bne.n	200032f0 <_etoa+0x230>
2000329c:	2900      	cmp	r1, #0
2000329e:	f43f af5a 	beq.w	20003156 <_etoa+0x96>
200032a2:	2300      	movs	r3, #0
200032a4:	930e      	str	r3, [sp, #56]	@ 0x38
200032a6:	9b0a      	ldr	r3, [sp, #40]	@ 0x28
200032a8:	9a0e      	ldr	r2, [sp, #56]	@ 0x38
200032aa:	4293      	cmp	r3, r2
200032ac:	f300 81b9 	bgt.w	20003622 <_etoa+0x562>
200032b0:	2700      	movs	r7, #0
200032b2:	4650      	mov	r0, sl
200032b4:	4659      	mov	r1, fp
200032b6:	2200      	movs	r2, #0
200032b8:	2300      	movs	r3, #0
200032ba:	f7ff fb1b 	bl	200028f4 <__wrap___aeabi_dcmplt>
200032be:	2800      	cmp	r0, #0
200032c0:	f040 8115 	bne.w	200034ee <_etoa+0x42e>
200032c4:	ed9d 7b08 	vldr	d7, [sp, #32]
200032c8:	f428 6300 	bic.w	r3, r8, #2048	@ 0x800
200032cc:	f443 6380 	orr.w	r3, r3, #1024	@ 0x400
200032d0:	932c      	str	r3, [sp, #176]	@ 0xb0
200032d2:	ed8d 7b28 	vstr	d7, [sp, #160]	@ 0xa0
200032d6:	4633      	mov	r3, r6
200032d8:	4629      	mov	r1, r5
200032da:	4620      	mov	r0, r4
200032dc:	e9cd 792a 	strd	r7, r9, [sp, #168]	@ 0xa8
200032e0:	9a0b      	ldr	r2, [sp, #44]	@ 0x2c
200032e2:	e7d3      	b.n	2000328c <_etoa+0x1cc>
200032e4:	7fefffff 	.word	0x7fefffff
200032e8:	cccccccd 	.word	0xcccccccd
200032ec:	2306      	movs	r3, #6
200032ee:	930a      	str	r3, [sp, #40]	@ 0x28
200032f0:	9b0c      	ldr	r3, [sp, #48]	@ 0x30
200032f2:	f3c3 500a 	ubfx	r0, r3, #20, #11
200032f6:	f2a0 30ff 	subw	r0, r0, #1023	@ 0x3ff
200032fa:	f7ff faa1 	bl	20002840 <__wrap___aeabi_i2d>
200032fe:	a3bc      	add	r3, pc, #752	@ (adr r3, 200035f0 <_etoa+0x530>)
20003300:	e9d3 2300 	ldrd	r2, r3, [r3]
20003304:	f7ff fa28 	bl	20002758 <__wrap___aeabi_dmul>
20003308:	a3bb      	add	r3, pc, #748	@ (adr r3, 200035f8 <_etoa+0x538>)
2000330a:	e9d3 2300 	ldrd	r2, r3, [r3]
2000330e:	f7ff f9fb 	bl	20002708 <__wrap___aeabi_dadd>
20003312:	9b0c      	ldr	r3, [sp, #48]	@ 0x30
20003314:	e9cd 010e 	strd	r0, r1, [sp, #56]	@ 0x38
20003318:	f3c3 0313 	ubfx	r3, r3, #0, #20
2000331c:	f043 517f 	orr.w	r1, r3, #1069547520	@ 0x3fc00000
20003320:	4638      	mov	r0, r7
20003322:	2200      	movs	r2, #0
20003324:	4bac      	ldr	r3, [pc, #688]	@ (200035d8 <_etoa+0x518>)
20003326:	f441 1140 	orr.w	r1, r1, #3145728	@ 0x300000
2000332a:	f7ff fa01 	bl	20002730 <__wrap___aeabi_dsub>
2000332e:	a39e      	add	r3, pc, #632	@ (adr r3, 200035a8 <_etoa+0x4e8>)
20003330:	e9d3 2300 	ldrd	r2, r3, [r3]
20003334:	f7ff fa10 	bl	20002758 <__wrap___aeabi_dmul>
20003338:	4602      	mov	r2, r0
2000333a:	460b      	mov	r3, r1
2000333c:	e9dd 010e 	ldrd	r0, r1, [sp, #56]	@ 0x38
20003340:	f7ff f9e2 	bl	20002708 <__wrap___aeabi_dadd>
20003344:	f7ff faa0 	bl	20002888 <__wrap___aeabi_d2iz>
20003348:	900e      	str	r0, [sp, #56]	@ 0x38
2000334a:	f7ff fa79 	bl	20002840 <__wrap___aeabi_i2d>
2000334e:	a398      	add	r3, pc, #608	@ (adr r3, 200035b0 <_etoa+0x4f0>)
20003350:	e9d3 2300 	ldrd	r2, r3, [r3]
20003354:	e9cd 010c 	strd	r0, r1, [sp, #48]	@ 0x30
20003358:	f7ff f9fe 	bl	20002758 <__wrap___aeabi_dmul>
2000335c:	2200      	movs	r2, #0
2000335e:	4b9f      	ldr	r3, [pc, #636]	@ (200035dc <_etoa+0x51c>)
20003360:	f7ff f9d2 	bl	20002708 <__wrap___aeabi_dadd>
20003364:	f7ff fa90 	bl	20002888 <__wrap___aeabi_d2iz>
20003368:	a393      	add	r3, pc, #588	@ (adr r3, 200035b8 <_etoa+0x4f8>)
2000336a:	e9d3 2300 	ldrd	r2, r3, [r3]
2000336e:	4607      	mov	r7, r0
20003370:	e9dd 010c 	ldrd	r0, r1, [sp, #48]	@ 0x30
20003374:	f7ff f9f0 	bl	20002758 <__wrap___aeabi_dmul>
20003378:	e9cd 010c 	strd	r0, r1, [sp, #48]	@ 0x30
2000337c:	4638      	mov	r0, r7
2000337e:	f7ff fa5f 	bl	20002840 <__wrap___aeabi_i2d>
20003382:	a38f      	add	r3, pc, #572	@ (adr r3, 200035c0 <_etoa+0x500>)
20003384:	e9d3 2300 	ldrd	r2, r3, [r3]
20003388:	f7ff f9e6 	bl	20002758 <__wrap___aeabi_dmul>
2000338c:	4602      	mov	r2, r0
2000338e:	460b      	mov	r3, r1
20003390:	e9dd 010c 	ldrd	r0, r1, [sp, #48]	@ 0x30
20003394:	f7ff f9cc 	bl	20002730 <__wrap___aeabi_dsub>
20003398:	4602      	mov	r2, r0
2000339a:	460b      	mov	r3, r1
2000339c:	e9cd 230c 	strd	r2, r3, [sp, #48]	@ 0x30
200033a0:	f7ff f9da 	bl	20002758 <__wrap___aeabi_dmul>
200033a4:	e9cd 0110 	strd	r0, r1, [sp, #64]	@ 0x40
200033a8:	e9dd 010c 	ldrd	r0, r1, [sp, #48]	@ 0x30
200033ac:	4602      	mov	r2, r0
200033ae:	460b      	mov	r3, r1
200033b0:	f7ff f9aa 	bl	20002708 <__wrap___aeabi_dadd>
200033b4:	2200      	movs	r2, #0
200033b6:	e9cd 0112 	strd	r0, r1, [sp, #72]	@ 0x48
200033ba:	e9dd 0110 	ldrd	r0, r1, [sp, #64]	@ 0x40
200033be:	4b88      	ldr	r3, [pc, #544]	@ (200035e0 <_etoa+0x520>)
200033c0:	f7ff f9f0 	bl	200027a4 <__wrap___aeabi_ddiv>
200033c4:	2200      	movs	r2, #0
200033c6:	4b87      	ldr	r3, [pc, #540]	@ (200035e4 <_etoa+0x524>)
200033c8:	f7ff f99e 	bl	20002708 <__wrap___aeabi_dadd>
200033cc:	4602      	mov	r2, r0
200033ce:	460b      	mov	r3, r1
200033d0:	e9dd 0110 	ldrd	r0, r1, [sp, #64]	@ 0x40
200033d4:	f7ff f9e6 	bl	200027a4 <__wrap___aeabi_ddiv>
200033d8:	2200      	movs	r2, #0
200033da:	4b83      	ldr	r3, [pc, #524]	@ (200035e8 <_etoa+0x528>)
200033dc:	f7ff f994 	bl	20002708 <__wrap___aeabi_dadd>
200033e0:	4602      	mov	r2, r0
200033e2:	460b      	mov	r3, r1
200033e4:	e9dd 0110 	ldrd	r0, r1, [sp, #64]	@ 0x40
200033e8:	f7ff f9dc 	bl	200027a4 <__wrap___aeabi_ddiv>
200033ec:	e9cd 0110 	strd	r0, r1, [sp, #64]	@ 0x40
200033f0:	e9dd 230c 	ldrd	r2, r3, [sp, #48]	@ 0x30
200033f4:	2000      	movs	r0, #0
200033f6:	f04f 4180 	mov.w	r1, #1073741824	@ 0x40000000
200033fa:	f7ff f999 	bl	20002730 <__wrap___aeabi_dsub>
200033fe:	4602      	mov	r2, r0
20003400:	460b      	mov	r3, r1
20003402:	e9dd 0110 	ldrd	r0, r1, [sp, #64]	@ 0x40
20003406:	f7ff f97f 	bl	20002708 <__wrap___aeabi_dadd>
2000340a:	4602      	mov	r2, r0
2000340c:	460b      	mov	r3, r1
2000340e:	e9dd 0112 	ldrd	r0, r1, [sp, #72]	@ 0x48
20003412:	f7ff f9c7 	bl	200027a4 <__wrap___aeabi_ddiv>
20003416:	2200      	movs	r2, #0
20003418:	4b74      	ldr	r3, [pc, #464]	@ (200035ec <_etoa+0x52c>)
2000341a:	f7ff f975 	bl	20002708 <__wrap___aeabi_dadd>
2000341e:	f207 3cff 	addw	ip, r7, #1023	@ 0x3ff
20003422:	2200      	movs	r2, #0
20003424:	ea4f 530c 	mov.w	r3, ip, lsl #20
20003428:	f7ff f996 	bl	20002758 <__wrap___aeabi_dmul>
2000342c:	4602      	mov	r2, r0
2000342e:	460b      	mov	r3, r1
20003430:	e9dd 0108 	ldrd	r0, r1, [sp, #32]
20003434:	e9cd 230c 	strd	r2, r3, [sp, #48]	@ 0x30
20003438:	f7ff fa5c 	bl	200028f4 <__wrap___aeabi_dcmplt>
2000343c:	b150      	cbz	r0, 20003454 <_etoa+0x394>
2000343e:	e9dd 010c 	ldrd	r0, r1, [sp, #48]	@ 0x30
20003442:	9b0e      	ldr	r3, [sp, #56]	@ 0x38
20003444:	2200      	movs	r2, #0
20003446:	3b01      	subs	r3, #1
20003448:	930e      	str	r3, [sp, #56]	@ 0x38
2000344a:	4b66      	ldr	r3, [pc, #408]	@ (200035e4 <_etoa+0x524>)
2000344c:	f7ff f9aa 	bl	200027a4 <__wrap___aeabi_ddiv>
20003450:	e9cd 010c 	strd	r0, r1, [sp, #48]	@ 0x30
20003454:	e9dd 010c 	ldrd	r0, r1, [sp, #48]	@ 0x30
20003458:	9b0e      	ldr	r3, [sp, #56]	@ 0x38
2000345a:	4602      	mov	r2, r0
2000345c:	3363      	adds	r3, #99	@ 0x63
2000345e:	2bc6      	cmp	r3, #198	@ 0xc6
20003460:	f008 0302 	and.w	r3, r8, #2
20003464:	9310      	str	r3, [sp, #64]	@ 0x40
20003466:	9b14      	ldr	r3, [sp, #80]	@ 0x50
20003468:	d82d      	bhi.n	200034c6 <_etoa+0x406>
2000346a:	2b00      	cmp	r3, #0
2000346c:	d05f      	beq.n	2000352e <_etoa+0x46e>
2000346e:	2304      	movs	r3, #4
20003470:	9312      	str	r3, [sp, #72]	@ 0x48
20003472:	430a      	orrs	r2, r1
20003474:	f43f af17 	beq.w	200032a6 <_etoa+0x1e6>
20003478:	e9dd 0108 	ldrd	r0, r1, [sp, #32]
2000347c:	a352      	add	r3, pc, #328	@ (adr r3, 200035c8 <_etoa+0x508>)
2000347e:	e9d3 2300 	ldrd	r2, r3, [r3]
20003482:	f7ff fa5f 	bl	20002944 <__wrap___aeabi_dcmpge>
20003486:	b148      	cbz	r0, 2000349c <_etoa+0x3dc>
20003488:	e9dd 0108 	ldrd	r0, r1, [sp, #32]
2000348c:	a350      	add	r3, pc, #320	@ (adr r3, 200035d0 <_etoa+0x510>)
2000348e:	e9d3 2300 	ldrd	r2, r3, [r3]
20003492:	f7ff fa2f 	bl	200028f4 <__wrap___aeabi_dcmplt>
20003496:	2800      	cmp	r0, #0
20003498:	f47f af05 	bne.w	200032a6 <_etoa+0x1e6>
2000349c:	9b0a      	ldr	r3, [sp, #40]	@ 0x28
2000349e:	2b00      	cmp	r3, #0
200034a0:	d051      	beq.n	20003546 <_etoa+0x486>
200034a2:	9a15      	ldr	r2, [sp, #84]	@ 0x54
200034a4:	2a00      	cmp	r2, #0
200034a6:	f000 80ab 	beq.w	20003600 <_etoa+0x540>
200034aa:	3b01      	subs	r3, #1
200034ac:	930a      	str	r3, [sp, #40]	@ 0x28
200034ae:	9b12      	ldr	r3, [sp, #72]	@ 0x48
200034b0:	4599      	cmp	r9, r3
200034b2:	d905      	bls.n	200034c0 <_etoa+0x400>
200034b4:	9b10      	ldr	r3, [sp, #64]	@ 0x40
200034b6:	2b00      	cmp	r3, #0
200034b8:	f000 80ae 	beq.w	20003618 <_etoa+0x558>
200034bc:	2302      	movs	r3, #2
200034be:	9310      	str	r3, [sp, #64]	@ 0x40
200034c0:	2300      	movs	r3, #0
200034c2:	9314      	str	r3, [sp, #80]	@ 0x50
200034c4:	e044      	b.n	20003550 <_etoa+0x490>
200034c6:	bb2b      	cbnz	r3, 20003514 <_etoa+0x454>
200034c8:	f1b9 0f05 	cmp.w	r9, #5
200034cc:	d94f      	bls.n	2000356e <_etoa+0x4ae>
200034ce:	f008 0302 	and.w	r3, r8, #2
200034d2:	2b00      	cmp	r3, #0
200034d4:	d149      	bne.n	2000356a <_etoa+0x4aa>
200034d6:	2305      	movs	r3, #5
200034d8:	9312      	str	r3, [sp, #72]	@ 0x48
200034da:	f1a9 0305 	sub.w	r3, r9, #5
200034de:	9314      	str	r3, [sp, #80]	@ 0x50
200034e0:	e03a      	b.n	20003558 <_etoa+0x498>
200034e2:	f10b 4300 	add.w	r3, fp, #2147483648	@ 0x80000000
200034e6:	f8cd a020 	str.w	sl, [sp, #32]
200034ea:	9309      	str	r3, [sp, #36]	@ 0x24
200034ec:	e61e      	b.n	2000312c <_etoa+0x6c>
200034ee:	f428 6300 	bic.w	r3, r8, #2048	@ 0x800
200034f2:	f443 6380 	orr.w	r3, r3, #1024	@ 0x400
200034f6:	4620      	mov	r0, r4
200034f8:	e9cd 792a 	strd	r7, r9, [sp, #168]	@ 0xa8
200034fc:	932c      	str	r3, [sp, #176]	@ 0xb0
200034fe:	4633      	mov	r3, r6
20003500:	e9dd 6708 	ldrd	r6, r7, [sp, #32]
20003504:	4634      	mov	r4, r6
20003506:	4629      	mov	r1, r5
20003508:	f107 4500 	add.w	r5, r7, #2147483648	@ 0x80000000
2000350c:	e9cd 4528 	strd	r4, r5, [sp, #160]	@ 0xa0
20003510:	9a0b      	ldr	r2, [sp, #44]	@ 0x2c
20003512:	e6bb      	b.n	2000328c <_etoa+0x1cc>
20003514:	2305      	movs	r3, #5
20003516:	9312      	str	r3, [sp, #72]	@ 0x48
20003518:	e7ab      	b.n	20003472 <_etoa+0x3b2>
2000351a:	2202      	movs	r2, #2
2000351c:	2300      	movs	r3, #0
2000351e:	9210      	str	r2, [sp, #64]	@ 0x40
20003520:	2204      	movs	r2, #4
20003522:	9314      	str	r3, [sp, #80]	@ 0x50
20003524:	9212      	str	r2, [sp, #72]	@ 0x48
20003526:	930e      	str	r3, [sp, #56]	@ 0x38
20003528:	e623      	b.n	20003172 <_etoa+0xb2>
2000352a:	2705      	movs	r7, #5
2000352c:	e6c1      	b.n	200032b2 <_etoa+0x1f2>
2000352e:	f1b9 0f04 	cmp.w	r9, #4
20003532:	d91f      	bls.n	20003574 <_etoa+0x4b4>
20003534:	9b10      	ldr	r3, [sp, #64]	@ 0x40
20003536:	2b00      	cmp	r3, #0
20003538:	d176      	bne.n	20003628 <_etoa+0x568>
2000353a:	2304      	movs	r3, #4
2000353c:	9312      	str	r3, [sp, #72]	@ 0x48
2000353e:	f1a9 0304 	sub.w	r3, r9, #4
20003542:	9314      	str	r3, [sp, #80]	@ 0x50
20003544:	e004      	b.n	20003550 <_etoa+0x490>
20003546:	9b12      	ldr	r3, [sp, #72]	@ 0x48
20003548:	4599      	cmp	r9, r3
2000354a:	d85e      	bhi.n	2000360a <_etoa+0x54a>
2000354c:	9b0a      	ldr	r3, [sp, #40]	@ 0x28
2000354e:	9314      	str	r3, [sp, #80]	@ 0x50
20003550:	9b0e      	ldr	r3, [sp, #56]	@ 0x38
20003552:	2b00      	cmp	r3, #0
20003554:	f43f ae0d 	beq.w	20003172 <_etoa+0xb2>
20003558:	e9dd 0108 	ldrd	r0, r1, [sp, #32]
2000355c:	e9dd 230c 	ldrd	r2, r3, [sp, #48]	@ 0x30
20003560:	f7ff f920 	bl	200027a4 <__wrap___aeabi_ddiv>
20003564:	e9cd 0108 	strd	r0, r1, [sp, #32]
20003568:	e603      	b.n	20003172 <_etoa+0xb2>
2000356a:	2302      	movs	r3, #2
2000356c:	9310      	str	r3, [sp, #64]	@ 0x40
2000356e:	2305      	movs	r3, #5
20003570:	9312      	str	r3, [sp, #72]	@ 0x48
20003572:	e7f1      	b.n	20003558 <_etoa+0x498>
20003574:	2304      	movs	r3, #4
20003576:	9312      	str	r3, [sp, #72]	@ 0x48
20003578:	e7ea      	b.n	20003550 <_etoa+0x490>
2000357a:	9b14      	ldr	r3, [sp, #80]	@ 0x50
2000357c:	e9dd a708 	ldrd	sl, r7, [sp, #32]
20003580:	9303      	str	r3, [sp, #12]
20003582:	9b0a      	ldr	r3, [sp, #40]	@ 0x28
20003584:	f107 4b00 	add.w	fp, r7, #2147483648	@ 0x80000000
20003588:	9302      	str	r3, [sp, #8]
2000358a:	f428 6300 	bic.w	r3, r8, #2048	@ 0x800
2000358e:	9a0b      	ldr	r2, [sp, #44]	@ 0x2c
20003590:	9304      	str	r3, [sp, #16]
20003592:	4629      	mov	r1, r5
20003594:	4633      	mov	r3, r6
20003596:	4620      	mov	r0, r4
20003598:	e9cd ab00 	strd	sl, fp, [sp]
2000359c:	f7ff fb44 	bl	20002c28 <_ftoa>
200035a0:	4602      	mov	r2, r0
200035a2:	e601      	b.n	200031a8 <_etoa+0xe8>
200035a4:	f3af 8000 	nop.w
200035a8:	636f4361 	.word	0x636f4361
200035ac:	3fd287a7 	.word	0x3fd287a7
200035b0:	0979a371 	.word	0x0979a371
200035b4:	400a934f 	.word	0x400a934f
200035b8:	bbb55516 	.word	0xbbb55516
200035bc:	40026bb1 	.word	0x40026bb1
200035c0:	fefa39ef 	.word	0xfefa39ef
200035c4:	3fe62e42 	.word	0x3fe62e42
200035c8:	eb1c432d 	.word	0xeb1c432d
200035cc:	3f1a36e2 	.word	0x3f1a36e2
200035d0:	00000000 	.word	0x00000000
200035d4:	412e8480 	.word	0x412e8480
200035d8:	3ff80000 	.word	0x3ff80000
200035dc:	3fe00000 	.word	0x3fe00000
200035e0:	402c0000 	.word	0x402c0000
200035e4:	40240000 	.word	0x40240000
200035e8:	40180000 	.word	0x40180000
200035ec:	3ff00000 	.word	0x3ff00000
200035f0:	509f79fb 	.word	0x509f79fb
200035f4:	3fd34413 	.word	0x3fd34413
200035f8:	8b60c8b3 	.word	0x8b60c8b3
200035fc:	3fc68a28 	.word	0x3fc68a28
20003600:	9b12      	ldr	r3, [sp, #72]	@ 0x48
20003602:	4599      	cmp	r9, r3
20003604:	d815      	bhi.n	20003632 <_etoa+0x572>
20003606:	9214      	str	r2, [sp, #80]	@ 0x50
20003608:	e7a2      	b.n	20003550 <_etoa+0x490>
2000360a:	9b10      	ldr	r3, [sp, #64]	@ 0x40
2000360c:	b123      	cbz	r3, 20003618 <_etoa+0x558>
2000360e:	9b0a      	ldr	r3, [sp, #40]	@ 0x28
20003610:	9314      	str	r3, [sp, #80]	@ 0x50
20003612:	2302      	movs	r3, #2
20003614:	9310      	str	r3, [sp, #64]	@ 0x40
20003616:	e79b      	b.n	20003550 <_etoa+0x490>
20003618:	9b12      	ldr	r3, [sp, #72]	@ 0x48
2000361a:	eba9 0303 	sub.w	r3, r9, r3
2000361e:	9314      	str	r3, [sp, #80]	@ 0x50
20003620:	e796      	b.n	20003550 <_etoa+0x490>
20003622:	1a9b      	subs	r3, r3, r2
20003624:	1e5f      	subs	r7, r3, #1
20003626:	e644      	b.n	200032b2 <_etoa+0x1f2>
20003628:	2304      	movs	r3, #4
2000362a:	9312      	str	r3, [sp, #72]	@ 0x48
2000362c:	2302      	movs	r3, #2
2000362e:	9310      	str	r3, [sp, #64]	@ 0x40
20003630:	e78e      	b.n	20003550 <_etoa+0x490>
20003632:	9b10      	ldr	r3, [sp, #64]	@ 0x40
20003634:	2b00      	cmp	r3, #0
20003636:	d0ef      	beq.n	20003618 <_etoa+0x558>
20003638:	2302      	movs	r3, #2
2000363a:	9214      	str	r2, [sp, #80]	@ 0x50
2000363c:	9310      	str	r3, [sp, #64]	@ 0x40
2000363e:	e787      	b.n	20003550 <_etoa+0x490>

20003640 <_vsnprintf>:
20003640:	e92d 4ff0 	stmdb	sp!, {r4, r5, r6, r7, r8, r9, sl, fp, lr}
20003644:	4691      	mov	r9, r2
20003646:	4c9a      	ldr	r4, [pc, #616]	@ (200038b0 <_vsnprintf+0x270>)
20003648:	4a9a      	ldr	r2, [pc, #616]	@ (200038b4 <_vsnprintf+0x274>)
2000364a:	f1b1 0a00 	subs.w	sl, r1, #0
2000364e:	b09b      	sub	sp, #108	@ 0x6c
20003650:	bf18      	it	ne
20003652:	4683      	movne	fp, r0
20003654:	6014      	str	r4, [r2, #0]
20003656:	7818      	ldrb	r0, [r3, #0]
20003658:	4a97      	ldr	r2, [pc, #604]	@ (200038b8 <_vsnprintf+0x278>)
2000365a:	f8dd 8090 	ldr.w	r8, [sp, #144]	@ 0x90
2000365e:	bf08      	it	eq
20003660:	4693      	moveq	fp, r2
20003662:	2800      	cmp	r0, #0
20003664:	f000 828a 	beq.w	20003b7c <_vsnprintf+0x53c>
20003668:	461d      	mov	r5, r3
2000366a:	2600      	movs	r6, #0
2000366c:	f8cd 9020 	str.w	r9, [sp, #32]
20003670:	e008      	b.n	20003684 <_vsnprintf+0x44>
20003672:	4632      	mov	r2, r6
20003674:	4651      	mov	r1, sl
20003676:	9b08      	ldr	r3, [sp, #32]
20003678:	47d8      	blx	fp
2000367a:	3601      	adds	r6, #1
2000367c:	7828      	ldrb	r0, [r5, #0]
2000367e:	2800      	cmp	r0, #0
20003680:	f000 80c7 	beq.w	20003812 <_vsnprintf+0x1d2>
20003684:	2825      	cmp	r0, #37	@ 0x25
20003686:	f105 0501 	add.w	r5, r5, #1
2000368a:	d1f2      	bne.n	20003672 <_vsnprintf+0x32>
2000368c:	2200      	movs	r2, #0
2000368e:	462b      	mov	r3, r5
20003690:	f813 1b01 	ldrb.w	r1, [r3], #1
20003694:	f1a1 0020 	sub.w	r0, r1, #32
20003698:	2810      	cmp	r0, #16
2000369a:	d80a      	bhi.n	200036b2 <_vsnprintf+0x72>
2000369c:	e8df f000 	tbb	[pc, r0]
200036a0:	3b09093f 	.word	0x3b09093f
200036a4:	09090909 	.word	0x09090909
200036a8:	37090909 	.word	0x37090909
200036ac:	09093309 	.word	0x09093309
200036b0:	2f          	.byte	0x2f
200036b1:	00          	.byte	0x00
200036b2:	f1a1 0030 	sub.w	r0, r1, #48	@ 0x30
200036b6:	2809      	cmp	r0, #9
200036b8:	f240 8089 	bls.w	200037ce <_vsnprintf+0x18e>
200036bc:	292a      	cmp	r1, #42	@ 0x2a
200036be:	f000 80e9 	beq.w	20003894 <_vsnprintf+0x254>
200036c2:	2400      	movs	r4, #0
200036c4:	292e      	cmp	r1, #46	@ 0x2e
200036c6:	f000 8094 	beq.w	200037f2 <_vsnprintf+0x1b2>
200036ca:	2700      	movs	r7, #0
200036cc:	f1a1 0068 	sub.w	r0, r1, #104	@ 0x68
200036d0:	2812      	cmp	r0, #18
200036d2:	d82c      	bhi.n	2000372e <_vsnprintf+0xee>
200036d4:	e8df f010 	tbh	[pc, r0, lsl #1]
200036d8:	002b014e 	.word	0x002b014e
200036dc:	002b0149 	.word	0x002b0149
200036e0:	002b0140 	.word	0x002b0140
200036e4:	002b002b 	.word	0x002b002b
200036e8:	002b002b 	.word	0x002b002b
200036ec:	002b002b 	.word	0x002b002b
200036f0:	002b0027 	.word	0x002b0027
200036f4:	002b002b 	.word	0x002b002b
200036f8:	002b002b 	.word	0x002b002b
200036fc:	0027      	.short	0x0027
200036fe:	461d      	mov	r5, r3
20003700:	f042 0201 	orr.w	r2, r2, #1
20003704:	e7c3      	b.n	2000368e <_vsnprintf+0x4e>
20003706:	461d      	mov	r5, r3
20003708:	f042 0202 	orr.w	r2, r2, #2
2000370c:	e7bf      	b.n	2000368e <_vsnprintf+0x4e>
2000370e:	461d      	mov	r5, r3
20003710:	f042 0204 	orr.w	r2, r2, #4
20003714:	e7bb      	b.n	2000368e <_vsnprintf+0x4e>
20003716:	461d      	mov	r5, r3
20003718:	f042 0210 	orr.w	r2, r2, #16
2000371c:	e7b7      	b.n	2000368e <_vsnprintf+0x4e>
2000371e:	461d      	mov	r5, r3
20003720:	f042 0208 	orr.w	r2, r2, #8
20003724:	e7b3      	b.n	2000368e <_vsnprintf+0x4e>
20003726:	7869      	ldrb	r1, [r5, #1]
20003728:	f442 7280 	orr.w	r2, r2, #256	@ 0x100
2000372c:	3301      	adds	r3, #1
2000372e:	2967      	cmp	r1, #103	@ 0x67
20003730:	461d      	mov	r5, r3
20003732:	d87e      	bhi.n	20003832 <_vsnprintf+0x1f2>
20003734:	2924      	cmp	r1, #36	@ 0x24
20003736:	f240 80b8 	bls.w	200038aa <_vsnprintf+0x26a>
2000373a:	f1a1 0325 	sub.w	r3, r1, #37	@ 0x25
2000373e:	2b42      	cmp	r3, #66	@ 0x42
20003740:	f200 80b3 	bhi.w	200038aa <_vsnprintf+0x26a>
20003744:	e8df f013 	tbh	[pc, r3, lsl #1]
20003748:	00b10151 	.word	0x00b10151
2000374c:	00b100b1 	.word	0x00b100b1
20003750:	00b100b1 	.word	0x00b100b1
20003754:	00b100b1 	.word	0x00b100b1
20003758:	00b100b1 	.word	0x00b100b1
2000375c:	00b100b1 	.word	0x00b100b1
20003760:	00b100b1 	.word	0x00b100b1
20003764:	00b100b1 	.word	0x00b100b1
20003768:	00b100b1 	.word	0x00b100b1
2000376c:	00b100b1 	.word	0x00b100b1
20003770:	00b100b1 	.word	0x00b100b1
20003774:	00b100b1 	.word	0x00b100b1
20003778:	00b100b1 	.word	0x00b100b1
2000377c:	00b100b1 	.word	0x00b100b1
20003780:	00b100b1 	.word	0x00b100b1
20003784:	00b100b1 	.word	0x00b100b1
20003788:	013a011e 	.word	0x013a011e
2000378c:	00b1011e 	.word	0x00b1011e
20003790:	00b100b1 	.word	0x00b100b1
20003794:	00b100b1 	.word	0x00b100b1
20003798:	00b100b1 	.word	0x00b100b1
2000379c:	00b100b1 	.word	0x00b100b1
200037a0:	00b100b1 	.word	0x00b100b1
200037a4:	00b100b1 	.word	0x00b100b1
200037a8:	00b100b1 	.word	0x00b100b1
200037ac:	01b400b1 	.word	0x01b400b1
200037b0:	00b100b1 	.word	0x00b100b1
200037b4:	00b100b1 	.word	0x00b100b1
200037b8:	00b100b1 	.word	0x00b100b1
200037bc:	00b100b1 	.word	0x00b100b1
200037c0:	01b400b1 	.word	0x01b400b1
200037c4:	01b40158 	.word	0x01b40158
200037c8:	013a011e 	.word	0x013a011e
200037cc:	011e      	.short	0x011e
200037ce:	2400      	movs	r4, #0
200037d0:	eb04 0484 	add.w	r4, r4, r4, lsl #2
200037d4:	eb01 0444 	add.w	r4, r1, r4, lsl #1
200037d8:	7819      	ldrb	r1, [r3, #0]
200037da:	461d      	mov	r5, r3
200037dc:	f1a1 0030 	sub.w	r0, r1, #48	@ 0x30
200037e0:	2809      	cmp	r0, #9
200037e2:	f1a4 0430 	sub.w	r4, r4, #48	@ 0x30
200037e6:	f103 0301 	add.w	r3, r3, #1
200037ea:	d9f1      	bls.n	200037d0 <_vsnprintf+0x190>
200037ec:	292e      	cmp	r1, #46	@ 0x2e
200037ee:	f47f af6c 	bne.w	200036ca <_vsnprintf+0x8a>
200037f2:	7869      	ldrb	r1, [r5, #1]
200037f4:	4618      	mov	r0, r3
200037f6:	f1a1 0730 	sub.w	r7, r1, #48	@ 0x30
200037fa:	2f09      	cmp	r7, #9
200037fc:	f442 6280 	orr.w	r2, r2, #1024	@ 0x400
20003800:	f240 8125 	bls.w	20003a4e <_vsnprintf+0x40e>
20003804:	292a      	cmp	r1, #42	@ 0x2a
20003806:	f000 8132 	beq.w	20003a6e <_vsnprintf+0x42e>
2000380a:	461d      	mov	r5, r3
2000380c:	2700      	movs	r7, #0
2000380e:	3301      	adds	r3, #1
20003810:	e75c      	b.n	200036cc <_vsnprintf+0x8c>
20003812:	4634      	mov	r4, r6
20003814:	f8dd 9020 	ldr.w	r9, [sp, #32]
20003818:	45b1      	cmp	r9, r6
2000381a:	d801      	bhi.n	20003820 <_vsnprintf+0x1e0>
2000381c:	f109 36ff 	add.w	r6, r9, #4294967295	@ 0xffffffff
20003820:	464b      	mov	r3, r9
20003822:	4632      	mov	r2, r6
20003824:	4651      	mov	r1, sl
20003826:	2000      	movs	r0, #0
20003828:	47d8      	blx	fp
2000382a:	4620      	mov	r0, r4
2000382c:	b01b      	add	sp, #108	@ 0x6c
2000382e:	e8bd 8ff0 	ldmia.w	sp!, {r4, r5, r6, r7, r8, r9, sl, fp, pc}
20003832:	f1a1 0369 	sub.w	r3, r1, #105	@ 0x69
20003836:	b2db      	uxtb	r3, r3
20003838:	2b0f      	cmp	r3, #15
2000383a:	d836      	bhi.n	200038aa <_vsnprintf+0x26a>
2000383c:	2001      	movs	r0, #1
2000383e:	f249 0c41 	movw	ip, #36929	@ 0x9041
20003842:	4098      	lsls	r0, r3
20003844:	ea10 000c 	ands.w	r0, r0, ip
20003848:	f040 80f4 	bne.w	20003a34 <_vsnprintf+0x3f4>
2000384c:	2b0a      	cmp	r3, #10
2000384e:	d035      	beq.n	200038bc <_vsnprintf+0x27c>
20003850:	2b07      	cmp	r3, #7
20003852:	d12a      	bne.n	200038aa <_vsnprintf+0x26a>
20003854:	f858 1b04 	ldr.w	r1, [r8], #4
20003858:	2900      	cmp	r1, #0
2000385a:	f040 8110 	bne.w	20003a7e <_vsnprintf+0x43e>
2000385e:	f022 0410 	bic.w	r4, r2, #16
20003862:	f412 6180 	ands.w	r1, r2, #1024	@ 0x400
20003866:	f044 0421 	orr.w	r4, r4, #33	@ 0x21
2000386a:	f000 810a 	beq.w	20003a82 <_vsnprintf+0x442>
2000386e:	aa12      	add	r2, sp, #72	@ 0x48
20003870:	2308      	movs	r3, #8
20003872:	9305      	str	r3, [sp, #20]
20003874:	2310      	movs	r3, #16
20003876:	e9cd 2000 	strd	r2, r0, [sp]
2000387a:	4632      	mov	r2, r6
2000387c:	9406      	str	r4, [sp, #24]
2000387e:	9704      	str	r7, [sp, #16]
20003880:	9303      	str	r3, [sp, #12]
20003882:	2300      	movs	r3, #0
20003884:	9302      	str	r3, [sp, #8]
20003886:	4651      	mov	r1, sl
20003888:	4658      	mov	r0, fp
2000388a:	9b08      	ldr	r3, [sp, #32]
2000388c:	f7ff f8d4 	bl	20002a38 <_ntoa_format>
20003890:	4606      	mov	r6, r0
20003892:	e6f3      	b.n	2000367c <_vsnprintf+0x3c>
20003894:	f858 4b04 	ldr.w	r4, [r8], #4
20003898:	7869      	ldrb	r1, [r5, #1]
2000389a:	2c00      	cmp	r4, #0
2000389c:	461d      	mov	r5, r3
2000389e:	bfbc      	itt	lt
200038a0:	f042 0202 	orrlt.w	r2, r2, #2
200038a4:	4264      	neglt	r4, r4
200038a6:	3301      	adds	r3, #1
200038a8:	e70c      	b.n	200036c4 <_vsnprintf+0x84>
200038aa:	4608      	mov	r0, r1
200038ac:	e6e1      	b.n	20003672 <_vsnprintf+0x32>
200038ae:	bf00      	nop
200038b0:	20003641 	.word	0x20003641
200038b4:	20009adc 	.word	0x20009adc
200038b8:	2000298d 	.word	0x2000298d
200038bc:	f858 9b04 	ldr.w	r9, [r8], #4
200038c0:	2f00      	cmp	r7, #0
200038c2:	f899 0000 	ldrb.w	r0, [r9]
200038c6:	bf14      	ite	ne
200038c8:	463b      	movne	r3, r7
200038ca:	f04f 33ff 	moveq.w	r3, #4294967295	@ 0xffffffff
200038ce:	2800      	cmp	r0, #0
200038d0:	f000 8381 	beq.w	20003fd6 <_vsnprintf+0x996>
200038d4:	4649      	mov	r1, r9
200038d6:	eb03 0c09 	add.w	ip, r3, r9
200038da:	e004      	b.n	200038e6 <_vsnprintf+0x2a6>
200038dc:	f811 3f01 	ldrb.w	r3, [r1, #1]!
200038e0:	2b00      	cmp	r3, #0
200038e2:	f000 8143 	beq.w	20003b6c <_vsnprintf+0x52c>
200038e6:	458c      	cmp	ip, r1
200038e8:	d1f8      	bne.n	200038dc <_vsnprintf+0x29c>
200038ea:	ebac 0109 	sub.w	r1, ip, r9
200038ee:	0553      	lsls	r3, r2, #21
200038f0:	f140 8120 	bpl.w	20003b34 <_vsnprintf+0x4f4>
200038f4:	42b9      	cmp	r1, r7
200038f6:	bf28      	it	cs
200038f8:	4639      	movcs	r1, r7
200038fa:	f012 0302 	ands.w	r3, r2, #2
200038fe:	f000 8283 	beq.w	20003e08 <_vsnprintf+0x7c8>
20003902:	2302      	movs	r3, #2
20003904:	e9cd 4809 	strd	r4, r8, [sp, #36]	@ 0x24
20003908:	4632      	mov	r2, r6
2000390a:	4688      	mov	r8, r1
2000390c:	9c08      	ldr	r4, [sp, #32]
2000390e:	4437      	add	r7, r6
20003910:	930b      	str	r3, [sp, #44]	@ 0x2c
20003912:	e007      	b.n	20003924 <_vsnprintf+0x2e4>
20003914:	4623      	mov	r3, r4
20003916:	4651      	mov	r1, sl
20003918:	47d8      	blx	fp
2000391a:	f819 0f01 	ldrb.w	r0, [r9, #1]!
2000391e:	3601      	adds	r6, #1
20003920:	b110      	cbz	r0, 20003928 <_vsnprintf+0x2e8>
20003922:	4632      	mov	r2, r6
20003924:	42b7      	cmp	r7, r6
20003926:	d1f5      	bne.n	20003914 <_vsnprintf+0x2d4>
20003928:	9b0b      	ldr	r3, [sp, #44]	@ 0x2c
2000392a:	4641      	mov	r1, r8
2000392c:	9c09      	ldr	r4, [sp, #36]	@ 0x24
2000392e:	f8dd 8028 	ldr.w	r8, [sp, #40]	@ 0x28
20003932:	2b00      	cmp	r3, #0
20003934:	f43f aea2 	beq.w	2000367c <_vsnprintf+0x3c>
20003938:	4637      	mov	r7, r6
2000393a:	428c      	cmp	r4, r1
2000393c:	f67f ae9e 	bls.w	2000367c <_vsnprintf+0x3c>
20003940:	4426      	add	r6, r4
20003942:	9c08      	ldr	r4, [sp, #32]
20003944:	1a76      	subs	r6, r6, r1
20003946:	463a      	mov	r2, r7
20003948:	4623      	mov	r3, r4
2000394a:	4651      	mov	r1, sl
2000394c:	2020      	movs	r0, #32
2000394e:	3701      	adds	r7, #1
20003950:	47d8      	blx	fp
20003952:	42b7      	cmp	r7, r6
20003954:	d1f7      	bne.n	20003946 <_vsnprintf+0x306>
20003956:	e691      	b.n	2000367c <_vsnprintf+0x3c>
20003958:	7869      	ldrb	r1, [r5, #1]
2000395a:	296c      	cmp	r1, #108	@ 0x6c
2000395c:	f47f aee4 	bne.w	20003728 <_vsnprintf+0xe8>
20003960:	78a9      	ldrb	r1, [r5, #2]
20003962:	f442 7240 	orr.w	r2, r2, #768	@ 0x300
20003966:	1ceb      	adds	r3, r5, #3
20003968:	e6e1      	b.n	2000372e <_vsnprintf+0xee>
2000396a:	7869      	ldrb	r1, [r5, #1]
2000396c:	f442 7200 	orr.w	r2, r2, #512	@ 0x200
20003970:	3301      	adds	r3, #1
20003972:	e6dc      	b.n	2000372e <_vsnprintf+0xee>
20003974:	7869      	ldrb	r1, [r5, #1]
20003976:	2968      	cmp	r1, #104	@ 0x68
20003978:	f000 80fb 	beq.w	20003b72 <_vsnprintf+0x532>
2000397c:	f042 0280 	orr.w	r2, r2, #128	@ 0x80
20003980:	3301      	adds	r3, #1
20003982:	e6d4      	b.n	2000372e <_vsnprintf+0xee>
20003984:	2967      	cmp	r1, #103	@ 0x67
20003986:	f000 80c9 	beq.w	20003b1c <_vsnprintf+0x4dc>
2000398a:	2947      	cmp	r1, #71	@ 0x47
2000398c:	f000 80cd 	beq.w	20003b2a <_vsnprintf+0x4ea>
20003990:	2945      	cmp	r1, #69	@ 0x45
20003992:	f000 80cc 	beq.w	20003b2e <_vsnprintf+0x4ee>
20003996:	e9cd 4203 	strd	r4, r2, [sp, #12]
2000399a:	f108 0807 	add.w	r8, r8, #7
2000399e:	9702      	str	r7, [sp, #8]
200039a0:	f028 0807 	bic.w	r8, r8, #7
200039a4:	4632      	mov	r2, r6
200039a6:	e8f8 6702 	ldrd	r6, r7, [r8], #8
200039aa:	4651      	mov	r1, sl
200039ac:	e9cd 6700 	strd	r6, r7, [sp]
200039b0:	4658      	mov	r0, fp
200039b2:	9b08      	ldr	r3, [sp, #32]
200039b4:	f7ff fb84 	bl	200030c0 <_etoa>
200039b8:	4606      	mov	r6, r0
200039ba:	e65f      	b.n	2000367c <_vsnprintf+0x3c>
200039bc:	2946      	cmp	r1, #70	@ 0x46
200039be:	bf08      	it	eq
200039c0:	f042 0220 	orreq.w	r2, r2, #32
200039c4:	e9cd 4203 	strd	r4, r2, [sp, #12]
200039c8:	f108 0807 	add.w	r8, r8, #7
200039cc:	9702      	str	r7, [sp, #8]
200039ce:	f028 0807 	bic.w	r8, r8, #7
200039d2:	4632      	mov	r2, r6
200039d4:	e8f8 6702 	ldrd	r6, r7, [r8], #8
200039d8:	4651      	mov	r1, sl
200039da:	e9cd 6700 	strd	r6, r7, [sp]
200039de:	4658      	mov	r0, fp
200039e0:	9b08      	ldr	r3, [sp, #32]
200039e2:	f7ff f921 	bl	20002c28 <_ftoa>
200039e6:	4606      	mov	r6, r0
200039e8:	e648      	b.n	2000367c <_vsnprintf+0x3c>
200039ea:	4632      	mov	r2, r6
200039ec:	4651      	mov	r1, sl
200039ee:	2025      	movs	r0, #37	@ 0x25
200039f0:	9b08      	ldr	r3, [sp, #32]
200039f2:	47d8      	blx	fp
200039f4:	3601      	adds	r6, #1
200039f6:	e641      	b.n	2000367c <_vsnprintf+0x3c>
200039f8:	f108 0304 	add.w	r3, r8, #4
200039fc:	0792      	lsls	r2, r2, #30
200039fe:	9309      	str	r3, [sp, #36]	@ 0x24
20003a00:	f106 0701 	add.w	r7, r6, #1
20003a04:	f140 80c3 	bpl.w	20003b8e <_vsnprintf+0x54e>
20003a08:	4632      	mov	r2, r6
20003a0a:	4651      	mov	r1, sl
20003a0c:	f898 0000 	ldrb.w	r0, [r8]
20003a10:	9b08      	ldr	r3, [sp, #32]
20003a12:	47d8      	blx	fp
20003a14:	2c01      	cmp	r4, #1
20003a16:	f240 81b4 	bls.w	20003d82 <_vsnprintf+0x742>
20003a1a:	4426      	add	r6, r4
20003a1c:	9c08      	ldr	r4, [sp, #32]
20003a1e:	463a      	mov	r2, r7
20003a20:	4623      	mov	r3, r4
20003a22:	4651      	mov	r1, sl
20003a24:	2020      	movs	r0, #32
20003a26:	3701      	adds	r7, #1
20003a28:	47d8      	blx	fp
20003a2a:	42b7      	cmp	r7, r6
20003a2c:	d1f7      	bne.n	20003a1e <_vsnprintf+0x3de>
20003a2e:	f8dd 8024 	ldr.w	r8, [sp, #36]	@ 0x24
20003a32:	e623      	b.n	2000367c <_vsnprintf+0x3c>
20003a34:	296f      	cmp	r1, #111	@ 0x6f
20003a36:	d074      	beq.n	20003b22 <_vsnprintf+0x4e2>
20003a38:	f240 8241 	bls.w	20003ebe <_vsnprintf+0x87e>
20003a3c:	2978      	cmp	r1, #120	@ 0x78
20003a3e:	f000 8186 	beq.w	20003d4e <_vsnprintf+0x70e>
20003a42:	f04f 090a 	mov.w	r9, #10
20003a46:	f022 0210 	bic.w	r2, r2, #16
20003a4a:	464b      	mov	r3, r9
20003a4c:	e038      	b.n	20003ac0 <_vsnprintf+0x480>
20003a4e:	2700      	movs	r7, #0
20003a50:	eb07 0787 	add.w	r7, r7, r7, lsl #2
20003a54:	eb01 0147 	add.w	r1, r1, r7, lsl #1
20003a58:	f1a1 0730 	sub.w	r7, r1, #48	@ 0x30
20003a5c:	f810 1f01 	ldrb.w	r1, [r0, #1]!
20003a60:	f1a1 0330 	sub.w	r3, r1, #48	@ 0x30
20003a64:	2b09      	cmp	r3, #9
20003a66:	d9f3      	bls.n	20003a50 <_vsnprintf+0x410>
20003a68:	4605      	mov	r5, r0
20003a6a:	1c43      	adds	r3, r0, #1
20003a6c:	e62e      	b.n	200036cc <_vsnprintf+0x8c>
20003a6e:	f858 7b04 	ldr.w	r7, [r8], #4
20003a72:	78a9      	ldrb	r1, [r5, #2]
20003a74:	3502      	adds	r5, #2
20003a76:	1c6b      	adds	r3, r5, #1
20003a78:	ea27 77e7 	bic.w	r7, r7, r7, asr #31
20003a7c:	e626      	b.n	200036cc <_vsnprintf+0x8c>
20003a7e:	f042 0421 	orr.w	r4, r2, #33	@ 0x21
20003a82:	aa12      	add	r2, sp, #72	@ 0x48
20003a84:	4694      	mov	ip, r2
20003a86:	e002      	b.n	20003a8e <_vsnprintf+0x44e>
20003a88:	2820      	cmp	r0, #32
20003a8a:	f43f aef1 	beq.w	20003870 <_vsnprintf+0x230>
20003a8e:	f001 030f 	and.w	r3, r1, #15
20003a92:	2b09      	cmp	r3, #9
20003a94:	bf94      	ite	ls
20003a96:	3330      	addls	r3, #48	@ 0x30
20003a98:	3337      	addhi	r3, #55	@ 0x37
20003a9a:	290f      	cmp	r1, #15
20003a9c:	f88c 3000 	strb.w	r3, [ip]
20003aa0:	f100 0001 	add.w	r0, r0, #1
20003aa4:	f10c 0c01 	add.w	ip, ip, #1
20003aa8:	ea4f 1111 	mov.w	r1, r1, lsr #4
20003aac:	d8ec      	bhi.n	20003a88 <_vsnprintf+0x448>
20003aae:	e6df      	b.n	20003870 <_vsnprintf+0x230>
20003ab0:	2958      	cmp	r1, #88	@ 0x58
20003ab2:	d066      	beq.n	20003b82 <_vsnprintf+0x542>
20003ab4:	2962      	cmp	r1, #98	@ 0x62
20003ab6:	f040 8089 	bne.w	20003bcc <_vsnprintf+0x58c>
20003aba:	f04f 0902 	mov.w	r9, #2
20003abe:	464b      	mov	r3, r9
20003ac0:	f412 6c80 	ands.w	ip, r2, #1024	@ 0x400
20003ac4:	f000 80d4 	beq.w	20003c70 <_vsnprintf+0x630>
20003ac8:	f022 020d 	bic.w	r2, r2, #13
20003acc:	9209      	str	r2, [sp, #36]	@ 0x24
20003ace:	f412 7100 	ands.w	r1, r2, #512	@ 0x200
20003ad2:	f040 817b 	bne.w	20003dcc <_vsnprintf+0x78c>
20003ad6:	f412 7080 	ands.w	r0, r2, #256	@ 0x100
20003ada:	f108 0904 	add.w	r9, r8, #4
20003ade:	f040 8238 	bne.w	20003f52 <_vsnprintf+0x912>
20003ae2:	0651      	lsls	r1, r2, #25
20003ae4:	f140 813a 	bpl.w	20003d5c <_vsnprintf+0x71c>
20003ae8:	f898 1000 	ldrb.w	r1, [r8]
20003aec:	2900      	cmp	r1, #0
20003aee:	f040 814a 	bne.w	20003d86 <_vsnprintf+0x746>
20003af2:	9a09      	ldr	r2, [sp, #36]	@ 0x24
20003af4:	f022 0210 	bic.w	r2, r2, #16
20003af8:	9209      	str	r2, [sp, #36]	@ 0x24
20003afa:	f1bc 0f00 	cmp.w	ip, #0
20003afe:	f000 8142 	beq.w	20003d86 <_vsnprintf+0x746>
20003b02:	4608      	mov	r0, r1
20003b04:	aa12      	add	r2, sp, #72	@ 0x48
20003b06:	9909      	ldr	r1, [sp, #36]	@ 0x24
20003b08:	e9cd 3703 	strd	r3, r7, [sp, #12]
20003b0c:	e9cd 4105 	strd	r4, r1, [sp, #20]
20003b10:	9001      	str	r0, [sp, #4]
20003b12:	2300      	movs	r3, #0
20003b14:	9200      	str	r2, [sp, #0]
20003b16:	9302      	str	r3, [sp, #8]
20003b18:	4632      	mov	r2, r6
20003b1a:	e0a1      	b.n	20003c60 <_vsnprintf+0x620>
20003b1c:	f442 6200 	orr.w	r2, r2, #2048	@ 0x800
20003b20:	e739      	b.n	20003996 <_vsnprintf+0x356>
20003b22:	f04f 0908 	mov.w	r9, #8
20003b26:	464b      	mov	r3, r9
20003b28:	e7ca      	b.n	20003ac0 <_vsnprintf+0x480>
20003b2a:	f442 6200 	orr.w	r2, r2, #2048	@ 0x800
20003b2e:	f042 0220 	orr.w	r2, r2, #32
20003b32:	e730      	b.n	20003996 <_vsnprintf+0x356>
20003b34:	f012 0302 	ands.w	r3, r2, #2
20003b38:	f000 818c 	beq.w	20003e54 <_vsnprintf+0x814>
20003b3c:	2302      	movs	r3, #2
20003b3e:	e9cd 4809 	strd	r4, r8, [sp, #36]	@ 0x24
20003b42:	461f      	mov	r7, r3
20003b44:	4688      	mov	r8, r1
20003b46:	9c08      	ldr	r4, [sp, #32]
20003b48:	4632      	mov	r2, r6
20003b4a:	4623      	mov	r3, r4
20003b4c:	4651      	mov	r1, sl
20003b4e:	47d8      	blx	fp
20003b50:	f819 0f01 	ldrb.w	r0, [r9, #1]!
20003b54:	3601      	adds	r6, #1
20003b56:	2800      	cmp	r0, #0
20003b58:	d1f6      	bne.n	20003b48 <_vsnprintf+0x508>
20003b5a:	463b      	mov	r3, r7
20003b5c:	4641      	mov	r1, r8
20003b5e:	9c09      	ldr	r4, [sp, #36]	@ 0x24
20003b60:	f8dd 8028 	ldr.w	r8, [sp, #40]	@ 0x28
20003b64:	2b00      	cmp	r3, #0
20003b66:	f43f ad89 	beq.w	2000367c <_vsnprintf+0x3c>
20003b6a:	e6e5      	b.n	20003938 <_vsnprintf+0x2f8>
20003b6c:	eba1 0109 	sub.w	r1, r1, r9
20003b70:	e6bd      	b.n	200038ee <_vsnprintf+0x2ae>
20003b72:	78a9      	ldrb	r1, [r5, #2]
20003b74:	f042 02c0 	orr.w	r2, r2, #192	@ 0xc0
20003b78:	1ceb      	adds	r3, r5, #3
20003b7a:	e5d8      	b.n	2000372e <_vsnprintf+0xee>
20003b7c:	4604      	mov	r4, r0
20003b7e:	4606      	mov	r6, r0
20003b80:	e64a      	b.n	20003818 <_vsnprintf+0x1d8>
20003b82:	f04f 0910 	mov.w	r9, #16
20003b86:	f042 0220 	orr.w	r2, r2, #32
20003b8a:	464b      	mov	r3, r9
20003b8c:	e798      	b.n	20003ac0 <_vsnprintf+0x480>
20003b8e:	2c01      	cmp	r4, #1
20003b90:	f240 80f1 	bls.w	20003d76 <_vsnprintf+0x736>
20003b94:	4637      	mov	r7, r6
20003b96:	f106 39ff 	add.w	r9, r6, #4294967295	@ 0xffffffff
20003b9a:	f8cd 8028 	str.w	r8, [sp, #40]	@ 0x28
20003b9e:	f8dd 8020 	ldr.w	r8, [sp, #32]
20003ba2:	44a1      	add	r9, r4
20003ba4:	463a      	mov	r2, r7
20003ba6:	4643      	mov	r3, r8
20003ba8:	4651      	mov	r1, sl
20003baa:	2020      	movs	r0, #32
20003bac:	3701      	adds	r7, #1
20003bae:	47d8      	blx	fp
20003bb0:	454f      	cmp	r7, r9
20003bb2:	d1f7      	bne.n	20003ba4 <_vsnprintf+0x564>
20003bb4:	f8dd 8028 	ldr.w	r8, [sp, #40]	@ 0x28
20003bb8:	463a      	mov	r2, r7
20003bba:	f898 0000 	ldrb.w	r0, [r8]
20003bbe:	4651      	mov	r1, sl
20003bc0:	9b08      	ldr	r3, [sp, #32]
20003bc2:	47d8      	blx	fp
20003bc4:	4426      	add	r6, r4
20003bc6:	f8dd 8024 	ldr.w	r8, [sp, #36]	@ 0x24
20003bca:	e557      	b.n	2000367c <_vsnprintf+0x3c>
20003bcc:	f412 6380 	ands.w	r3, r2, #1024	@ 0x400
20003bd0:	f000 80c1 	beq.w	20003d56 <_vsnprintf+0x716>
20003bd4:	f44f 6380 	mov.w	r3, #1024	@ 0x400
20003bd8:	f022 0011 	bic.w	r0, r2, #17
20003bdc:	f410 7e00 	ands.w	lr, r0, #512	@ 0x200
20003be0:	d14a      	bne.n	20003c78 <_vsnprintf+0x638>
20003be2:	f410 7c80 	ands.w	ip, r0, #256	@ 0x100
20003be6:	f108 0904 	add.w	r9, r8, #4
20003bea:	f040 8137 	bne.w	20003e5c <_vsnprintf+0x81c>
20003bee:	0641      	lsls	r1, r0, #25
20003bf0:	f100 80a9 	bmi.w	20003d46 <_vsnprintf+0x706>
20003bf4:	0602      	lsls	r2, r0, #24
20003bf6:	f140 81e0 	bpl.w	20003fba <_vsnprintf+0x97a>
20003bfa:	f9b8 2000 	ldrsh.w	r2, [r8]
20003bfe:	ea82 71e2 	eor.w	r1, r2, r2, asr #31
20003c02:	eba1 71e2 	sub.w	r1, r1, r2, asr #31
20003c06:	fa1f fe81 	uxth.w	lr, r1
20003c0a:	0fd1      	lsrs	r1, r2, #31
20003c0c:	9109      	str	r1, [sp, #36]	@ 0x24
20003c0e:	2a00      	cmp	r2, #0
20003c10:	f000 815f 	beq.w	20003ed2 <_vsnprintf+0x892>
20003c14:	4673      	mov	r3, lr
20003c16:	aa12      	add	r2, sp, #72	@ 0x48
20003c18:	4696      	mov	lr, r2
20003c1a:	f8df 83ac 	ldr.w	r8, [pc, #940]	@ 20003fc8 <_vsnprintf+0x988>
20003c1e:	940a      	str	r4, [sp, #40]	@ 0x28
20003c20:	e003      	b.n	20003c2a <_vsnprintf+0x5ea>
20003c22:	f1bc 0f20 	cmp.w	ip, #32
20003c26:	4623      	mov	r3, r4
20003c28:	d00f      	beq.n	20003c4a <_vsnprintf+0x60a>
20003c2a:	fba8 1403 	umull	r1, r4, r8, r3
20003c2e:	08e4      	lsrs	r4, r4, #3
20003c30:	eb04 0184 	add.w	r1, r4, r4, lsl #2
20003c34:	eba3 0141 	sub.w	r1, r3, r1, lsl #1
20003c38:	f10e 0e01 	add.w	lr, lr, #1
20003c3c:	3130      	adds	r1, #48	@ 0x30
20003c3e:	2b09      	cmp	r3, #9
20003c40:	f10c 0c01 	add.w	ip, ip, #1
20003c44:	f80e 1c01 	strb.w	r1, [lr, #-1]
20003c48:	d8eb      	bhi.n	20003c22 <_vsnprintf+0x5e2>
20003c4a:	9c0a      	ldr	r4, [sp, #40]	@ 0x28
20003c4c:	9b09      	ldr	r3, [sp, #36]	@ 0x24
20003c4e:	9200      	str	r2, [sp, #0]
20003c50:	e9cd c301 	strd	ip, r3, [sp, #4]
20003c54:	230a      	movs	r3, #10
20003c56:	4632      	mov	r2, r6
20003c58:	e9cd 4005 	strd	r4, r0, [sp, #20]
20003c5c:	9704      	str	r7, [sp, #16]
20003c5e:	9303      	str	r3, [sp, #12]
20003c60:	4651      	mov	r1, sl
20003c62:	4658      	mov	r0, fp
20003c64:	9b08      	ldr	r3, [sp, #32]
20003c66:	f7fe fee7 	bl	20002a38 <_ntoa_format>
20003c6a:	46c8      	mov	r8, r9
20003c6c:	4606      	mov	r6, r0
20003c6e:	e505      	b.n	2000367c <_vsnprintf+0x3c>
20003c70:	f022 020c 	bic.w	r2, r2, #12
20003c74:	9209      	str	r2, [sp, #36]	@ 0x24
20003c76:	e72a      	b.n	20003ace <_vsnprintf+0x48e>
20003c78:	f108 0807 	add.w	r8, r8, #7
20003c7c:	f028 0807 	bic.w	r8, r8, #7
20003c80:	f8d8 2004 	ldr.w	r2, [r8, #4]
20003c84:	f858 cb08 	ldr.w	ip, [r8], #8
20003c88:	0fd1      	lsrs	r1, r2, #31
20003c8a:	ea5c 0e02 	orrs.w	lr, ip, r2
20003c8e:	d06c      	beq.n	20003d6a <_vsnprintf+0x72a>
20003c90:	2a00      	cmp	r2, #0
20003c92:	4663      	mov	r3, ip
20003c94:	da02      	bge.n	20003c9c <_vsnprintf+0x65c>
20003c96:	425b      	negs	r3, r3
20003c98:	eb62 0242 	sbc.w	r2, r2, r2, lsl #1
20003c9c:	4691      	mov	r9, r2
20003c9e:	9309      	str	r3, [sp, #36]	@ 0x24
20003ca0:	aa12      	add	r2, sp, #72	@ 0x48
20003ca2:	4694      	mov	ip, r2
20003ca4:	f04f 0e00 	mov.w	lr, #0
20003ca8:	e9cd 180a 	strd	r1, r8, [sp, #40]	@ 0x28
20003cac:	e9cd 470c 	strd	r4, r7, [sp, #48]	@ 0x30
20003cb0:	960e      	str	r6, [sp, #56]	@ 0x38
20003cb2:	920f      	str	r2, [sp, #60]	@ 0x3c
20003cb4:	e003      	b.n	20003cbe <_vsnprintf+0x67e>
20003cb6:	f1be 0f20 	cmp.w	lr, #32
20003cba:	463b      	mov	r3, r7
20003cbc:	d030      	beq.n	20003d20 <_vsnprintf+0x6e0>
20003cbe:	f04f 32cc 	mov.w	r2, #3435973836	@ 0xcccccccc
20003cc2:	eb13 0109 	adds.w	r1, r3, r9
20003cc6:	4fc0      	ldr	r7, [pc, #768]	@ (20003fc8 <_vsnprintf+0x988>)
20003cc8:	f141 0100 	adc.w	r1, r1, #0
20003ccc:	fba7 4601 	umull	r4, r6, r7, r1
20003cd0:	f026 0403 	bic.w	r4, r6, #3
20003cd4:	eb04 0496 	add.w	r4, r4, r6, lsr #2
20003cd8:	1b09      	subs	r1, r1, r4
20003cda:	1a5c      	subs	r4, r3, r1
20003cdc:	fb02 f604 	mul.w	r6, r2, r4
20003ce0:	463a      	mov	r2, r7
20003ce2:	f169 0800 	sbc.w	r8, r9, #0
20003ce6:	fb02 6608 	mla	r6, r2, r8, r6
20003cea:	2205      	movs	r2, #5
20003cec:	fba4 7407 	umull	r7, r4, r4, r7
20003cf0:	f007 0801 	and.w	r8, r7, #1
20003cf4:	4426      	add	r6, r4
20003cf6:	fba8 4802 	umull	r4, r8, r8, r2
20003cfa:	1864      	adds	r4, r4, r1
20003cfc:	2b0a      	cmp	r3, #10
20003cfe:	f10c 0c01 	add.w	ip, ip, #1
20003d02:	ea4f 0757 	mov.w	r7, r7, lsr #1
20003d06:	f104 0430 	add.w	r4, r4, #48	@ 0x30
20003d0a:	f179 0900 	sbcs.w	r9, r9, #0
20003d0e:	f10e 0e01 	add.w	lr, lr, #1
20003d12:	f80c 4c01 	strb.w	r4, [ip, #-1]
20003d16:	ea47 77c6 	orr.w	r7, r7, r6, lsl #31
20003d1a:	ea4f 0956 	mov.w	r9, r6, lsr #1
20003d1e:	d2ca      	bcs.n	20003cb6 <_vsnprintf+0x676>
20003d20:	4673      	mov	r3, lr
20003d22:	e9dd 180a 	ldrd	r1, r8, [sp, #40]	@ 0x28
20003d26:	e9dd 470c 	ldrd	r4, r7, [sp, #48]	@ 0x30
20003d2a:	9e0e      	ldr	r6, [sp, #56]	@ 0x38
20003d2c:	9a0f      	ldr	r2, [sp, #60]	@ 0x3c
20003d2e:	f8cd e024 	str.w	lr, [sp, #36]	@ 0x24
20003d32:	e9cd 3101 	strd	r3, r1, [sp, #4]
20003d36:	230a      	movs	r3, #10
20003d38:	9200      	str	r2, [sp, #0]
20003d3a:	e9cd 4005 	strd	r4, r0, [sp, #20]
20003d3e:	4632      	mov	r2, r6
20003d40:	9704      	str	r7, [sp, #16]
20003d42:	9303      	str	r3, [sp, #12]
20003d44:	e59f      	b.n	20003886 <_vsnprintf+0x246>
20003d46:	f898 2000 	ldrb.w	r2, [r8]
20003d4a:	4696      	mov	lr, r2
20003d4c:	e75d      	b.n	20003c0a <_vsnprintf+0x5ca>
20003d4e:	f04f 0910 	mov.w	r9, #16
20003d52:	464b      	mov	r3, r9
20003d54:	e6b4      	b.n	20003ac0 <_vsnprintf+0x480>
20003d56:	f022 0010 	bic.w	r0, r2, #16
20003d5a:	e73f      	b.n	20003bdc <_vsnprintf+0x59c>
20003d5c:	0611      	lsls	r1, r2, #24
20003d5e:	bf4c      	ite	mi
20003d60:	f8b8 1000 	ldrhmi.w	r1, [r8]
20003d64:	f8d8 1000 	ldrpl.w	r1, [r8]
20003d68:	e6c0      	b.n	20003aec <_vsnprintf+0x4ac>
20003d6a:	2b00      	cmp	r3, #0
20003d6c:	f040 8141 	bne.w	20003ff2 <_vsnprintf+0x9b2>
20003d70:	4699      	mov	r9, r3
20003d72:	9309      	str	r3, [sp, #36]	@ 0x24
20003d74:	e794      	b.n	20003ca0 <_vsnprintf+0x660>
20003d76:	4632      	mov	r2, r6
20003d78:	4651      	mov	r1, sl
20003d7a:	f898 0000 	ldrb.w	r0, [r8]
20003d7e:	9b08      	ldr	r3, [sp, #32]
20003d80:	47d8      	blx	fp
20003d82:	463e      	mov	r6, r7
20003d84:	e653      	b.n	20003a2e <_vsnprintf+0x3ee>
20003d86:	9a09      	ldr	r2, [sp, #36]	@ 0x24
20003d88:	940a      	str	r4, [sp, #40]	@ 0x28
20003d8a:	f012 0f20 	tst.w	r2, #32
20003d8e:	bf14      	ite	ne
20003d90:	f04f 0841 	movne.w	r8, #65	@ 0x41
20003d94:	f04f 0861 	moveq.w	r8, #97	@ 0x61
20003d98:	aa12      	add	r2, sp, #72	@ 0x48
20003d9a:	4694      	mov	ip, r2
20003d9c:	f1a8 080a 	sub.w	r8, r8, #10
20003da0:	e002      	b.n	20003da8 <_vsnprintf+0x768>
20003da2:	2820      	cmp	r0, #32
20003da4:	4671      	mov	r1, lr
20003da6:	d00f      	beq.n	20003dc8 <_vsnprintf+0x788>
20003da8:	fbb1 fef3 	udiv	lr, r1, r3
20003dac:	fb03 141e 	mls	r4, r3, lr, r1
20003db0:	2c09      	cmp	r4, #9
20003db2:	bf94      	ite	ls
20003db4:	3430      	addls	r4, #48	@ 0x30
20003db6:	4444      	addhi	r4, r8
20003db8:	4299      	cmp	r1, r3
20003dba:	f88c 4000 	strb.w	r4, [ip]
20003dbe:	f100 0001 	add.w	r0, r0, #1
20003dc2:	f10c 0c01 	add.w	ip, ip, #1
20003dc6:	d2ec      	bcs.n	20003da2 <_vsnprintf+0x762>
20003dc8:	9c0a      	ldr	r4, [sp, #40]	@ 0x28
20003dca:	e69c      	b.n	20003b06 <_vsnprintf+0x4c6>
20003dcc:	f108 0807 	add.w	r8, r8, #7
20003dd0:	f028 0807 	bic.w	r8, r8, #7
20003dd4:	f8d8 2004 	ldr.w	r2, [r8, #4]
20003dd8:	f858 1b08 	ldr.w	r1, [r8], #8
20003ddc:	920a      	str	r2, [sp, #40]	@ 0x28
20003dde:	430a      	orrs	r2, r1
20003de0:	468e      	mov	lr, r1
20003de2:	d17b      	bne.n	20003edc <_vsnprintf+0x89c>
20003de4:	9a09      	ldr	r2, [sp, #36]	@ 0x24
20003de6:	f022 0210 	bic.w	r2, r2, #16
20003dea:	9209      	str	r2, [sp, #36]	@ 0x24
20003dec:	f1bc 0f00 	cmp.w	ip, #0
20003df0:	d074      	beq.n	20003edc <_vsnprintf+0x89c>
20003df2:	2000      	movs	r0, #0
20003df4:	aa12      	add	r2, sp, #72	@ 0x48
20003df6:	9909      	ldr	r1, [sp, #36]	@ 0x24
20003df8:	e9cd 2000 	strd	r2, r0, [sp]
20003dfc:	e9cd 4105 	strd	r4, r1, [sp, #20]
20003e00:	4632      	mov	r2, r6
20003e02:	e9cd 3703 	strd	r3, r7, [sp, #12]
20003e06:	e53c      	b.n	20003882 <_vsnprintf+0x242>
20003e08:	428c      	cmp	r4, r1
20003e0a:	bf98      	it	ls
20003e0c:	3101      	addls	r1, #1
20003e0e:	f67f ad79 	bls.w	20003904 <_vsnprintf+0x2c4>
20003e12:	f44f 6380 	mov.w	r3, #1024	@ 0x400
20003e16:	e9cd 9409 	strd	r9, r4, [sp, #36]	@ 0x24
20003e1a:	4699      	mov	r9, r3
20003e1c:	19a2      	adds	r2, r4, r6
20003e1e:	970b      	str	r7, [sp, #44]	@ 0x2c
20003e20:	9f08      	ldr	r7, [sp, #32]
20003e22:	1a54      	subs	r4, r2, r1
20003e24:	4632      	mov	r2, r6
20003e26:	463b      	mov	r3, r7
20003e28:	4651      	mov	r1, sl
20003e2a:	2020      	movs	r0, #32
20003e2c:	3601      	adds	r6, #1
20003e2e:	47d8      	blx	fp
20003e30:	42a6      	cmp	r6, r4
20003e32:	d1f7      	bne.n	20003e24 <_vsnprintf+0x7e4>
20003e34:	e9dd 470a 	ldrd	r4, r7, [sp, #40]	@ 0x28
20003e38:	464b      	mov	r3, r9
20003e3a:	f8dd 9024 	ldr.w	r9, [sp, #36]	@ 0x24
20003e3e:	f899 0000 	ldrb.w	r0, [r9]
20003e42:	2800      	cmp	r0, #0
20003e44:	f43f ac1a 	beq.w	2000367c <_vsnprintf+0x3c>
20003e48:	1c61      	adds	r1, r4, #1
20003e4a:	2b00      	cmp	r3, #0
20003e4c:	f43f ae77 	beq.w	20003b3e <_vsnprintf+0x4fe>
20003e50:	2300      	movs	r3, #0
20003e52:	e557      	b.n	20003904 <_vsnprintf+0x2c4>
20003e54:	428c      	cmp	r4, r1
20003e56:	d8de      	bhi.n	20003e16 <_vsnprintf+0x7d6>
20003e58:	3101      	adds	r1, #1
20003e5a:	e670      	b.n	20003b3e <_vsnprintf+0x4fe>
20003e5c:	f8d8 2000 	ldr.w	r2, [r8]
20003e60:	0fd1      	lsrs	r1, r2, #31
20003e62:	2a00      	cmp	r2, #0
20003e64:	f000 80b2 	beq.w	20003fcc <_vsnprintf+0x98c>
20003e68:	ea82 73e2 	eor.w	r3, r2, r2, asr #31
20003e6c:	eba3 73e2 	sub.w	r3, r3, r2, asr #31
20003e70:	aa12      	add	r2, sp, #72	@ 0x48
20003e72:	4694      	mov	ip, r2
20003e74:	e9cd 1409 	strd	r1, r4, [sp, #36]	@ 0x24
20003e78:	f8df 814c 	ldr.w	r8, [pc, #332]	@ 20003fc8 <_vsnprintf+0x988>
20003e7c:	e003      	b.n	20003e86 <_vsnprintf+0x846>
20003e7e:	f1be 0f20 	cmp.w	lr, #32
20003e82:	4623      	mov	r3, r4
20003e84:	d00f      	beq.n	20003ea6 <_vsnprintf+0x866>
20003e86:	fba8 1403 	umull	r1, r4, r8, r3
20003e8a:	08e4      	lsrs	r4, r4, #3
20003e8c:	eb04 0184 	add.w	r1, r4, r4, lsl #2
20003e90:	eba3 0141 	sub.w	r1, r3, r1, lsl #1
20003e94:	f10c 0c01 	add.w	ip, ip, #1
20003e98:	3130      	adds	r1, #48	@ 0x30
20003e9a:	2b09      	cmp	r3, #9
20003e9c:	f10e 0e01 	add.w	lr, lr, #1
20003ea0:	f80c 1c01 	strb.w	r1, [ip, #-1]
20003ea4:	d8eb      	bhi.n	20003e7e <_vsnprintf+0x83e>
20003ea6:	e9dd 1409 	ldrd	r1, r4, [sp, #36]	@ 0x24
20003eaa:	230a      	movs	r3, #10
20003eac:	9200      	str	r2, [sp, #0]
20003eae:	e9cd 4005 	strd	r4, r0, [sp, #20]
20003eb2:	4632      	mov	r2, r6
20003eb4:	e9cd e101 	strd	lr, r1, [sp, #4]
20003eb8:	9704      	str	r7, [sp, #16]
20003eba:	9303      	str	r3, [sp, #12]
20003ebc:	e6d0      	b.n	20003c60 <_vsnprintf+0x620>
20003ebe:	2969      	cmp	r1, #105	@ 0x69
20003ec0:	f022 0010 	bic.w	r0, r2, #16
20003ec4:	f040 8090 	bne.w	20003fe8 <_vsnprintf+0x9a8>
20003ec8:	f412 6380 	ands.w	r3, r2, #1024	@ 0x400
20003ecc:	f43f ae86 	beq.w	20003bdc <_vsnprintf+0x59c>
20003ed0:	e680      	b.n	20003bd4 <_vsnprintf+0x594>
20003ed2:	2b00      	cmp	r3, #0
20003ed4:	f43f ae9f 	beq.w	20003c16 <_vsnprintf+0x5d6>
20003ed8:	aa12      	add	r2, sp, #72	@ 0x48
20003eda:	e6b7      	b.n	20003c4c <_vsnprintf+0x60c>
20003edc:	9a09      	ldr	r2, [sp, #36]	@ 0x24
20003ede:	e9cd 840b 	strd	r8, r4, [sp, #44]	@ 0x2c
20003ee2:	f012 0f20 	tst.w	r2, #32
20003ee6:	bf14      	ite	ne
20003ee8:	2141      	movne	r1, #65	@ 0x41
20003eea:	2161      	moveq	r1, #97	@ 0x61
20003eec:	e9cd 760d 	strd	r7, r6, [sp, #52]	@ 0x34
20003ef0:	e9cd 3b0f 	strd	r3, fp, [sp, #60]	@ 0x3c
20003ef4:	f8cd a044 	str.w	sl, [sp, #68]	@ 0x44
20003ef8:	2700      	movs	r7, #0
20003efa:	46f0      	mov	r8, lr
20003efc:	9c0a      	ldr	r4, [sp, #40]	@ 0x28
20003efe:	ae12      	add	r6, sp, #72	@ 0x48
20003f00:	f10d 0b48 	add.w	fp, sp, #72	@ 0x48
20003f04:	f1a1 0a0a 	sub.w	sl, r1, #10
20003f08:	e003      	b.n	20003f12 <_vsnprintf+0x8d2>
20003f0a:	2f20      	cmp	r7, #32
20003f0c:	4680      	mov	r8, r0
20003f0e:	460c      	mov	r4, r1
20003f10:	d013      	beq.n	20003f3a <_vsnprintf+0x8fa>
20003f12:	4621      	mov	r1, r4
20003f14:	464a      	mov	r2, r9
20003f16:	2300      	movs	r3, #0
20003f18:	4640      	mov	r0, r8
20003f1a:	f002 ff9d 	bl	20006e58 <__aeabi_uldivmod>
20003f1e:	b2d2      	uxtb	r2, r2
20003f20:	2a09      	cmp	r2, #9
20003f22:	bf94      	ite	ls
20003f24:	3230      	addls	r2, #48	@ 0x30
20003f26:	4452      	addhi	r2, sl
20003f28:	45c8      	cmp	r8, r9
20003f2a:	f174 0400 	sbcs.w	r4, r4, #0
20003f2e:	7032      	strb	r2, [r6, #0]
20003f30:	f107 0701 	add.w	r7, r7, #1
20003f34:	f106 0601 	add.w	r6, r6, #1
20003f38:	d2e7      	bcs.n	20003f0a <_vsnprintf+0x8ca>
20003f3a:	4638      	mov	r0, r7
20003f3c:	e9dd 840b 	ldrd	r8, r4, [sp, #44]	@ 0x2c
20003f40:	465a      	mov	r2, fp
20003f42:	9e0e      	ldr	r6, [sp, #56]	@ 0x38
20003f44:	9f0d      	ldr	r7, [sp, #52]	@ 0x34
20003f46:	9b0f      	ldr	r3, [sp, #60]	@ 0x3c
20003f48:	f8dd a044 	ldr.w	sl, [sp, #68]	@ 0x44
20003f4c:	f8dd b040 	ldr.w	fp, [sp, #64]	@ 0x40
20003f50:	e751      	b.n	20003df6 <_vsnprintf+0x7b6>
20003f52:	f8d8 e000 	ldr.w	lr, [r8]
20003f56:	f1be 0f00 	cmp.w	lr, #0
20003f5a:	d10d      	bne.n	20003f78 <_vsnprintf+0x938>
20003f5c:	f022 0210 	bic.w	r2, r2, #16
20003f60:	9209      	str	r2, [sp, #36]	@ 0x24
20003f62:	f1bc 0f00 	cmp.w	ip, #0
20003f66:	d007      	beq.n	20003f78 <_vsnprintf+0x938>
20003f68:	aa12      	add	r2, sp, #72	@ 0x48
20003f6a:	9809      	ldr	r0, [sp, #36]	@ 0x24
20003f6c:	e9cd 3703 	strd	r3, r7, [sp, #12]
20003f70:	e9cd 4005 	strd	r4, r0, [sp, #20]
20003f74:	9101      	str	r1, [sp, #4]
20003f76:	e5cc      	b.n	20003b12 <_vsnprintf+0x4d2>
20003f78:	9a09      	ldr	r2, [sp, #36]	@ 0x24
20003f7a:	f012 0f20 	tst.w	r2, #32
20003f7e:	bf14      	ite	ne
20003f80:	2041      	movne	r0, #65	@ 0x41
20003f82:	2061      	moveq	r0, #97	@ 0x61
20003f84:	aa12      	add	r2, sp, #72	@ 0x48
20003f86:	4694      	mov	ip, r2
20003f88:	920a      	str	r2, [sp, #40]	@ 0x28
20003f8a:	f1a0 020a 	sub.w	r2, r0, #10
20003f8e:	e002      	b.n	20003f96 <_vsnprintf+0x956>
20003f90:	2920      	cmp	r1, #32
20003f92:	46c6      	mov	lr, r8
20003f94:	d00f      	beq.n	20003fb6 <_vsnprintf+0x976>
20003f96:	fbbe f8f3 	udiv	r8, lr, r3
20003f9a:	fb03 e018 	mls	r0, r3, r8, lr
20003f9e:	2809      	cmp	r0, #9
20003fa0:	bf94      	ite	ls
20003fa2:	3030      	addls	r0, #48	@ 0x30
20003fa4:	1880      	addhi	r0, r0, r2
20003fa6:	459e      	cmp	lr, r3
20003fa8:	f88c 0000 	strb.w	r0, [ip]
20003fac:	f101 0101 	add.w	r1, r1, #1
20003fb0:	f10c 0c01 	add.w	ip, ip, #1
20003fb4:	d2ec      	bcs.n	20003f90 <_vsnprintf+0x950>
20003fb6:	9a0a      	ldr	r2, [sp, #40]	@ 0x28
20003fb8:	e7d7      	b.n	20003f6a <_vsnprintf+0x92a>
20003fba:	f8d8 2000 	ldr.w	r2, [r8]
20003fbe:	ea82 7ee2 	eor.w	lr, r2, r2, asr #31
20003fc2:	ebae 7ee2 	sub.w	lr, lr, r2, asr #31
20003fc6:	e620      	b.n	20003c0a <_vsnprintf+0x5ca>
20003fc8:	cccccccd 	.word	0xcccccccd
20003fcc:	2b00      	cmp	r3, #0
20003fce:	f43f af4f 	beq.w	20003e70 <_vsnprintf+0x830>
20003fd2:	aa12      	add	r2, sp, #72	@ 0x48
20003fd4:	e769      	b.n	20003eaa <_vsnprintf+0x86a>
20003fd6:	f412 6180 	ands.w	r1, r2, #1024	@ 0x400
20003fda:	d00e      	beq.n	20003ffa <_vsnprintf+0x9ba>
20003fdc:	f012 0102 	ands.w	r1, r2, #2
20003fe0:	d014      	beq.n	2000400c <_vsnprintf+0x9cc>
20003fe2:	4601      	mov	r1, r0
20003fe4:	4637      	mov	r7, r6
20003fe6:	e4a8      	b.n	2000393a <_vsnprintf+0x2fa>
20003fe8:	f04f 090a 	mov.w	r9, #10
20003fec:	4602      	mov	r2, r0
20003fee:	464b      	mov	r3, r9
20003ff0:	e566      	b.n	20003ac0 <_vsnprintf+0x480>
20003ff2:	2300      	movs	r3, #0
20003ff4:	aa12      	add	r2, sp, #72	@ 0x48
20003ff6:	9309      	str	r3, [sp, #36]	@ 0x24
20003ff8:	e69b      	b.n	20003d32 <_vsnprintf+0x6f2>
20003ffa:	f012 0302 	ands.w	r3, r2, #2
20003ffe:	f47f ac9b 	bne.w	20003938 <_vsnprintf+0x2f8>
20004002:	2c00      	cmp	r4, #0
20004004:	f47f af07 	bne.w	20003e16 <_vsnprintf+0x7d6>
20004008:	f7ff bb38 	b.w	2000367c <_vsnprintf+0x3c>
2000400c:	2c00      	cmp	r4, #0
2000400e:	f47f af00 	bne.w	20003e12 <_vsnprintf+0x7d2>
20004012:	f7ff bb33 	b.w	2000367c <_vsnprintf+0x3c>
20004016:	bf00      	nop

20004018 <vfctprintf>:
20004018:	468c      	mov	ip, r1
2000401a:	b510      	push	{r4, lr}
2000401c:	b084      	sub	sp, #16
2000401e:	9300      	str	r3, [sp, #0]
20004020:	9002      	str	r0, [sp, #8]
20004022:	4613      	mov	r3, r2
20004024:	a902      	add	r1, sp, #8
20004026:	f04f 32ff 	mov.w	r2, #4294967295	@ 0xffffffff
2000402a:	4803      	ldr	r0, [pc, #12]	@ (20004038 <vfctprintf+0x20>)
2000402c:	f8cd c00c 	str.w	ip, [sp, #12]
20004030:	f7ff fb06 	bl	20003640 <_vsnprintf>
20004034:	b004      	add	sp, #16
20004036:	bd10      	pop	{r4, pc}
20004038:	20002c1d 	.word	0x20002c1d

2000403c <weak_raw_vprintf>:
2000403c:	b510      	push	{r4, lr}
2000403e:	4a09      	ldr	r2, [pc, #36]	@ (20004064 <weak_raw_vprintf+0x28>)
20004040:	b084      	sub	sp, #16
20004042:	6814      	ldr	r4, [r2, #0]
20004044:	b14c      	cbz	r4, 2000405a <weak_raw_vprintf+0x1e>
20004046:	4603      	mov	r3, r0
20004048:	9100      	str	r1, [sp, #0]
2000404a:	f04f 32ff 	mov.w	r2, #4294967295	@ 0xffffffff
2000404e:	a903      	add	r1, sp, #12
20004050:	4805      	ldr	r0, [pc, #20]	@ (20004068 <weak_raw_vprintf+0x2c>)
20004052:	47a0      	blx	r4
20004054:	2001      	movs	r0, #1
20004056:	b004      	add	sp, #16
20004058:	bd10      	pop	{r4, pc}
2000405a:	f000 f9d9 	bl	20004410 <__wrap_puts>
2000405e:	4620      	mov	r0, r4
20004060:	b004      	add	sp, #16
20004062:	bd10      	pop	{r4, pc}
20004064:	20009adc 	.word	0x20009adc
20004068:	20002c15 	.word	0x20002c15

2000406c <_exit>:
2000406c:	be00      	bkpt	0x0000
2000406e:	e7fd      	b.n	2000406c <_exit>

20004070 <exit>:
20004070:	b508      	push	{r3, lr}
20004072:	f7ff fffb 	bl	2000406c <_exit>
20004076:	bf00      	nop

20004078 <runtime_init>:
20004078:	b538      	push	{r3, r4, r5, lr}
2000407a:	4c07      	ldr	r4, [pc, #28]	@ (20004098 <runtime_init+0x20>)
2000407c:	4d07      	ldr	r5, [pc, #28]	@ (2000409c <runtime_init+0x24>)
2000407e:	4808      	ldr	r0, [pc, #32]	@ (200040a0 <runtime_init+0x28>)
20004080:	f7fe fb1c 	bl	200026bc <runtime_init_per_core_install_stack_guard>
20004084:	f7fe fa24 	bl	200024d0 <runtime_run_initializers>
20004088:	42ac      	cmp	r4, r5
2000408a:	d204      	bcs.n	20004096 <runtime_init+0x1e>
2000408c:	f854 3b04 	ldr.w	r3, [r4], #4
20004090:	4798      	blx	r3
20004092:	42ac      	cmp	r4, r5
20004094:	d3fa      	bcc.n	2000408c <runtime_init+0x14>
20004096:	bd38      	pop	{r3, r4, r5, pc}
20004098:	20008d58 	.word	0x20008d58
2000409c:	20008d68 	.word	0x20008d68
200040a0:	2007f8f0 	.word	0x2007f8f0

200040a4 <stdio_out_chars_no_crlf>:
200040a4:	6803      	ldr	r3, [r0, #0]
200040a6:	4608      	mov	r0, r1
200040a8:	4611      	mov	r1, r2
200040aa:	4718      	bx	r3

200040ac <stdio_out_chars_crlf>:
200040ac:	b570      	push	{r4, r5, r6, lr}
200040ae:	4605      	mov	r5, r0
200040b0:	4608      	mov	r0, r1
200040b2:	7d69      	ldrb	r1, [r5, #21]
200040b4:	b082      	sub	sp, #8
200040b6:	2900      	cmp	r1, #0
200040b8:	d04f      	beq.n	2000415a <stdio_out_chars_crlf+0xae>
200040ba:	2a00      	cmp	r2, #0
200040bc:	dd25      	ble.n	2000410a <stdio_out_chars_crlf+0x5e>
200040be:	7803      	ldrb	r3, [r0, #0]
200040c0:	4614      	mov	r4, r2
200040c2:	2b0a      	cmp	r3, #10
200040c4:	4606      	mov	r6, r0
200040c6:	d022      	beq.n	2000410e <stdio_out_chars_crlf+0x62>
200040c8:	2c01      	cmp	r4, #1
200040ca:	f04f 0e00 	mov.w	lr, #0
200040ce:	d00d      	beq.n	200040ec <stdio_out_chars_crlf+0x40>
200040d0:	4632      	mov	r2, r6
200040d2:	2301      	movs	r3, #1
200040d4:	f812 cf01 	ldrb.w	ip, [r2, #1]!
200040d8:	4619      	mov	r1, r3
200040da:	f1bc 0f0a 	cmp.w	ip, #10
200040de:	f103 0301 	add.w	r3, r3, #1
200040e2:	d020      	beq.n	20004126 <stdio_out_chars_crlf+0x7a>
200040e4:	429c      	cmp	r4, r3
200040e6:	d1f5      	bne.n	200040d4 <stdio_out_chars_crlf+0x28>
200040e8:	4574      	cmp	r4, lr
200040ea:	dd05      	ble.n	200040f8 <stdio_out_chars_crlf+0x4c>
200040ec:	682b      	ldr	r3, [r5, #0]
200040ee:	eba4 010e 	sub.w	r1, r4, lr
200040f2:	eb06 000e 	add.w	r0, r6, lr
200040f6:	4798      	blx	r3
200040f8:	1931      	adds	r1, r6, r4
200040fa:	f811 3c01 	ldrb.w	r3, [r1, #-1]
200040fe:	f1a3 030d 	sub.w	r3, r3, #13
20004102:	fab3 f383 	clz	r3, r3
20004106:	095b      	lsrs	r3, r3, #5
20004108:	752b      	strb	r3, [r5, #20]
2000410a:	b002      	add	sp, #8
2000410c:	bd70      	pop	{r4, r5, r6, pc}
2000410e:	7d2b      	ldrb	r3, [r5, #20]
20004110:	2b00      	cmp	r3, #0
20004112:	d1d9      	bne.n	200040c8 <stdio_out_chars_crlf+0x1c>
20004114:	2102      	movs	r1, #2
20004116:	682b      	ldr	r3, [r5, #0]
20004118:	4813      	ldr	r0, [pc, #76]	@ (20004168 <stdio_out_chars_crlf+0xbc>)
2000411a:	4798      	blx	r3
2000411c:	2c01      	cmp	r4, #1
2000411e:	d0eb      	beq.n	200040f8 <stdio_out_chars_crlf+0x4c>
20004120:	f04f 0e01 	mov.w	lr, #1
20004124:	e7d4      	b.n	200040d0 <stdio_out_chars_crlf+0x24>
20004126:	f812 0c01 	ldrb.w	r0, [r2, #-1]
2000412a:	280d      	cmp	r0, #13
2000412c:	d0da      	beq.n	200040e4 <stdio_out_chars_crlf+0x38>
2000412e:	458e      	cmp	lr, r1
20004130:	eb06 000e 	add.w	r0, r6, lr
20004134:	eba1 010e 	sub.w	r1, r1, lr
20004138:	da05      	bge.n	20004146 <stdio_out_chars_crlf+0x9a>
2000413a:	e9cd 3200 	strd	r3, r2, [sp]
2000413e:	682b      	ldr	r3, [r5, #0]
20004140:	4798      	blx	r3
20004142:	e9dd 3200 	ldrd	r3, r2, [sp]
20004146:	e9cd 3200 	strd	r3, r2, [sp]
2000414a:	2102      	movs	r1, #2
2000414c:	682b      	ldr	r3, [r5, #0]
2000414e:	4806      	ldr	r0, [pc, #24]	@ (20004168 <stdio_out_chars_crlf+0xbc>)
20004150:	4798      	blx	r3
20004152:	9b00      	ldr	r3, [sp, #0]
20004154:	9a01      	ldr	r2, [sp, #4]
20004156:	469e      	mov	lr, r3
20004158:	e7c4      	b.n	200040e4 <stdio_out_chars_crlf+0x38>
2000415a:	4611      	mov	r1, r2
2000415c:	682b      	ldr	r3, [r5, #0]
2000415e:	b002      	add	sp, #8
20004160:	e8bd 4070 	ldmia.w	sp!, {r4, r5, r6, lr}
20004164:	4718      	bx	r3
20004166:	bf00      	nop
20004168:	20008848 	.word	0x20008848

2000416c <stdio_buffered_printer>:
2000416c:	b570      	push	{r4, r5, r6, lr}
2000416e:	680b      	ldr	r3, [r1, #0]
20004170:	460c      	mov	r4, r1
20004172:	2b80      	cmp	r3, #128	@ 0x80
20004174:	4605      	mov	r5, r0
20004176:	b082      	sub	sp, #8
20004178:	d005      	beq.n	20004186 <stdio_buffered_printer+0x1a>
2000417a:	1c5a      	adds	r2, r3, #1
2000417c:	4423      	add	r3, r4
2000417e:	6022      	str	r2, [r4, #0]
20004180:	711d      	strb	r5, [r3, #4]
20004182:	b002      	add	sp, #8
20004184:	bd70      	pop	{r4, r5, r6, pc}
20004186:	4b0e      	ldr	r3, [pc, #56]	@ (200041c0 <stdio_buffered_printer+0x54>)
20004188:	6818      	ldr	r0, [r3, #0]
2000418a:	b978      	cbnz	r0, 200041ac <stdio_buffered_printer+0x40>
2000418c:	2300      	movs	r3, #0
2000418e:	2201      	movs	r2, #1
20004190:	4423      	add	r3, r4
20004192:	6022      	str	r2, [r4, #0]
20004194:	711d      	strb	r5, [r3, #4]
20004196:	b002      	add	sp, #8
20004198:	bd70      	pop	{r4, r5, r6, pc}
2000419a:	6822      	ldr	r2, [r4, #0]
2000419c:	1d21      	adds	r1, r4, #4
2000419e:	9001      	str	r0, [sp, #4]
200041a0:	f7ff ff84 	bl	200040ac <stdio_out_chars_crlf>
200041a4:	9801      	ldr	r0, [sp, #4]
200041a6:	6900      	ldr	r0, [r0, #16]
200041a8:	2800      	cmp	r0, #0
200041aa:	d0ef      	beq.n	2000418c <stdio_buffered_printer+0x20>
200041ac:	6803      	ldr	r3, [r0, #0]
200041ae:	2b00      	cmp	r3, #0
200041b0:	d0f9      	beq.n	200041a6 <stdio_buffered_printer+0x3a>
200041b2:	4b04      	ldr	r3, [pc, #16]	@ (200041c4 <stdio_buffered_printer+0x58>)
200041b4:	681b      	ldr	r3, [r3, #0]
200041b6:	2b00      	cmp	r3, #0
200041b8:	d0ef      	beq.n	2000419a <stdio_buffered_printer+0x2e>
200041ba:	4283      	cmp	r3, r0
200041bc:	d1f3      	bne.n	200041a6 <stdio_buffered_printer+0x3a>
200041be:	e7ec      	b.n	2000419a <stdio_buffered_printer+0x2e>
200041c0:	200096c4 	.word	0x200096c4
200041c4:	200096cc 	.word	0x200096cc

200041c8 <stdio_put_string>:
200041c8:	e92d 47f0 	stmdb	sp!, {r4, r5, r6, r7, r8, r9, sl, lr}
200041cc:	b082      	sub	sp, #8
200041ce:	4690      	mov	r8, r2
200041d0:	461c      	mov	r4, r3
200041d2:	460d      	mov	r5, r1
200041d4:	4607      	mov	r7, r0
200041d6:	f7fd fe17 	bl	20001e08 <time_us_64>
200041da:	f04f 3cff 	mov.w	ip, #4294967295	@ 0xffffffff
200041de:	f06f 4600 	mvn.w	r6, #2147483648	@ 0x80000000
200041e2:	4a2e      	ldr	r2, [pc, #184]	@ (2000429c <stdio_put_string+0xd4>)
200041e4:	1882      	adds	r2, r0, r2
200041e6:	f141 0300 	adc.w	r3, r1, #0
200041ea:	4594      	cmp	ip, r2
200041ec:	eb76 0103 	sbcs.w	r1, r6, r3
200041f0:	bf3c      	itt	cc
200041f2:	4662      	movcc	r2, ip
200041f4:	4633      	movcc	r3, r6
200041f6:	482a      	ldr	r0, [pc, #168]	@ (200042a0 <stdio_put_string+0xd8>)
200041f8:	f003 f99c 	bl	20007534 <mutex_try_enter_block_until>
200041fc:	1c6b      	adds	r3, r5, #1
200041fe:	4682      	mov	sl, r0
20004200:	d040      	beq.n	20004284 <stdio_put_string+0xbc>
20004202:	b30c      	cbz	r4, 20004248 <stdio_put_string+0x80>
20004204:	4e27      	ldr	r6, [pc, #156]	@ (200042a4 <stdio_put_string+0xdc>)
20004206:	4b28      	ldr	r3, [pc, #160]	@ (200042a8 <stdio_put_string+0xe0>)
20004208:	681c      	ldr	r4, [r3, #0]
2000420a:	b1b4      	cbz	r4, 2000423a <stdio_put_string+0x72>
2000420c:	f1b8 0f00 	cmp.w	r8, #0
20004210:	d11c      	bne.n	2000424c <stdio_put_string+0x84>
20004212:	f8df 809c 	ldr.w	r8, [pc, #156]	@ 200042b0 <stdio_put_string+0xe8>
20004216:	e001      	b.n	2000421c <stdio_put_string+0x54>
20004218:	6924      	ldr	r4, [r4, #16]
2000421a:	b174      	cbz	r4, 2000423a <stdio_put_string+0x72>
2000421c:	6823      	ldr	r3, [r4, #0]
2000421e:	2b00      	cmp	r3, #0
20004220:	d0fa      	beq.n	20004218 <stdio_put_string+0x50>
20004222:	f8d8 3000 	ldr.w	r3, [r8]
20004226:	b10b      	cbz	r3, 2000422c <stdio_put_string+0x64>
20004228:	429c      	cmp	r4, r3
2000422a:	d1f5      	bne.n	20004218 <stdio_put_string+0x50>
2000422c:	4620      	mov	r0, r4
2000422e:	462a      	mov	r2, r5
20004230:	4639      	mov	r1, r7
20004232:	47b0      	blx	r6
20004234:	6924      	ldr	r4, [r4, #16]
20004236:	2c00      	cmp	r4, #0
20004238:	d1f0      	bne.n	2000421c <stdio_put_string+0x54>
2000423a:	f1ba 0f00 	cmp.w	sl, #0
2000423e:	d126      	bne.n	2000428e <stdio_put_string+0xc6>
20004240:	4628      	mov	r0, r5
20004242:	b002      	add	sp, #8
20004244:	e8bd 87f0 	ldmia.w	sp!, {r4, r5, r6, r7, r8, r9, sl, pc}
20004248:	4e18      	ldr	r6, [pc, #96]	@ (200042ac <stdio_put_string+0xe4>)
2000424a:	e7dc      	b.n	20004206 <stdio_put_string+0x3e>
2000424c:	f04f 090a 	mov.w	r9, #10
20004250:	f8df 805c 	ldr.w	r8, [pc, #92]	@ 200042b0 <stdio_put_string+0xe8>
20004254:	e002      	b.n	2000425c <stdio_put_string+0x94>
20004256:	6924      	ldr	r4, [r4, #16]
20004258:	2c00      	cmp	r4, #0
2000425a:	d0ee      	beq.n	2000423a <stdio_put_string+0x72>
2000425c:	6823      	ldr	r3, [r4, #0]
2000425e:	2b00      	cmp	r3, #0
20004260:	d0f9      	beq.n	20004256 <stdio_put_string+0x8e>
20004262:	f8d8 3000 	ldr.w	r3, [r8]
20004266:	b10b      	cbz	r3, 2000426c <stdio_put_string+0xa4>
20004268:	42a3      	cmp	r3, r4
2000426a:	d1f4      	bne.n	20004256 <stdio_put_string+0x8e>
2000426c:	462a      	mov	r2, r5
2000426e:	4639      	mov	r1, r7
20004270:	4620      	mov	r0, r4
20004272:	47b0      	blx	r6
20004274:	2201      	movs	r2, #1
20004276:	4620      	mov	r0, r4
20004278:	f10d 0107 	add.w	r1, sp, #7
2000427c:	f88d 9007 	strb.w	r9, [sp, #7]
20004280:	47b0      	blx	r6
20004282:	e7e8      	b.n	20004256 <stdio_put_string+0x8e>
20004284:	4638      	mov	r0, r7
20004286:	f003 f879 	bl	2000737c <strlen>
2000428a:	4605      	mov	r5, r0
2000428c:	e7b9      	b.n	20004202 <stdio_put_string+0x3a>
2000428e:	4804      	ldr	r0, [pc, #16]	@ (200042a0 <stdio_put_string+0xd8>)
20004290:	f003 f9a0 	bl	200075d4 <mutex_exit>
20004294:	4628      	mov	r0, r5
20004296:	b002      	add	sp, #8
20004298:	e8bd 87f0 	ldmia.w	sp!, {r4, r5, r6, r7, r8, r9, sl, pc}
2000429c:	000f4240 	.word	0x000f4240
200042a0:	20008d00 	.word	0x20008d00
200042a4:	200040ad 	.word	0x200040ad
200042a8:	200096c4 	.word	0x200096c4
200042ac:	200040a5 	.word	0x200040a5
200042b0:	200096cc 	.word	0x200096cc

200042b4 <stdio_set_driver_enabled>:
200042b4:	4a08      	ldr	r2, [pc, #32]	@ (200042d8 <stdio_set_driver_enabled+0x24>)
200042b6:	6813      	ldr	r3, [r2, #0]
200042b8:	b923      	cbnz	r3, 200042c4 <stdio_set_driver_enabled+0x10>
200042ba:	e00a      	b.n	200042d2 <stdio_set_driver_enabled+0x1e>
200042bc:	f103 0210 	add.w	r2, r3, #16
200042c0:	691b      	ldr	r3, [r3, #16]
200042c2:	b133      	cbz	r3, 200042d2 <stdio_set_driver_enabled+0x1e>
200042c4:	4283      	cmp	r3, r0
200042c6:	d1f9      	bne.n	200042bc <stdio_set_driver_enabled+0x8>
200042c8:	b929      	cbnz	r1, 200042d6 <stdio_set_driver_enabled+0x22>
200042ca:	6918      	ldr	r0, [r3, #16]
200042cc:	6010      	str	r0, [r2, #0]
200042ce:	6119      	str	r1, [r3, #16]
200042d0:	4770      	bx	lr
200042d2:	b101      	cbz	r1, 200042d6 <stdio_set_driver_enabled+0x22>
200042d4:	6010      	str	r0, [r2, #0]
200042d6:	4770      	bx	lr
200042d8:	200096c4 	.word	0x200096c4

200042dc <stdio_flush>:
200042dc:	4b07      	ldr	r3, [pc, #28]	@ (200042fc <stdio_flush+0x20>)
200042de:	b510      	push	{r4, lr}
200042e0:	681c      	ldr	r4, [r3, #0]
200042e2:	b12c      	cbz	r4, 200042f0 <stdio_flush+0x14>
200042e4:	6863      	ldr	r3, [r4, #4]
200042e6:	b123      	cbz	r3, 200042f2 <stdio_flush+0x16>
200042e8:	4798      	blx	r3
200042ea:	6924      	ldr	r4, [r4, #16]
200042ec:	2c00      	cmp	r4, #0
200042ee:	d1f9      	bne.n	200042e4 <stdio_flush+0x8>
200042f0:	bd10      	pop	{r4, pc}
200042f2:	6924      	ldr	r4, [r4, #16]
200042f4:	2c00      	cmp	r4, #0
200042f6:	d1f5      	bne.n	200042e4 <stdio_flush+0x8>
200042f8:	bd10      	pop	{r4, pc}
200042fa:	bf00      	nop
200042fc:	200096c4 	.word	0x200096c4

20004300 <stdio_getchar_timeout_us>:
20004300:	e92d 41f0 	stmdb	sp!, {r4, r5, r6, r7, r8, lr}
20004304:	b082      	sub	sp, #8
20004306:	4606      	mov	r6, r0
20004308:	f7fd fd7e 	bl	20001e08 <time_us_64>
2000430c:	f04f 32ff 	mov.w	r2, #4294967295	@ 0xffffffff
20004310:	f06f 4300 	mvn.w	r3, #2147483648	@ 0x80000000
20004314:	1836      	adds	r6, r6, r0
20004316:	f141 0700 	adc.w	r7, r1, #0
2000431a:	42b2      	cmp	r2, r6
2000431c:	eb73 0107 	sbcs.w	r1, r3, r7
20004320:	bf3c      	itt	cc
20004322:	4616      	movcc	r6, r2
20004324:	461f      	movcc	r7, r3
20004326:	f8df 8060 	ldr.w	r8, [pc, #96]	@ 20004388 <stdio_getchar_timeout_us+0x88>
2000432a:	4d15      	ldr	r5, [pc, #84]	@ (20004380 <stdio_getchar_timeout_us+0x80>)
2000432c:	f8d8 4000 	ldr.w	r4, [r8]
20004330:	b914      	cbnz	r4, 20004338 <stdio_getchar_timeout_us+0x38>
20004332:	e012      	b.n	2000435a <stdio_getchar_timeout_us+0x5a>
20004334:	6924      	ldr	r4, [r4, #16]
20004336:	b184      	cbz	r4, 2000435a <stdio_getchar_timeout_us+0x5a>
20004338:	682b      	ldr	r3, [r5, #0]
2000433a:	b10b      	cbz	r3, 20004340 <stdio_getchar_timeout_us+0x40>
2000433c:	429c      	cmp	r4, r3
2000433e:	d1f9      	bne.n	20004334 <stdio_getchar_timeout_us+0x34>
20004340:	68a3      	ldr	r3, [r4, #8]
20004342:	2b00      	cmp	r3, #0
20004344:	d0f6      	beq.n	20004334 <stdio_getchar_timeout_us+0x34>
20004346:	2101      	movs	r1, #1
20004348:	a801      	add	r0, sp, #4
2000434a:	4798      	blx	r3
2000434c:	2800      	cmp	r0, #0
2000434e:	ddf1      	ble.n	20004334 <stdio_getchar_timeout_us+0x34>
20004350:	f89d 0004 	ldrb.w	r0, [sp, #4]
20004354:	b002      	add	sp, #8
20004356:	e8bd 81f0 	ldmia.w	sp!, {r4, r5, r6, r7, r8, pc}
2000435a:	4b0a      	ldr	r3, [pc, #40]	@ (20004384 <stdio_getchar_timeout_us+0x84>)
2000435c:	6a5a      	ldr	r2, [r3, #36]	@ 0x24
2000435e:	4297      	cmp	r7, r2
20004360:	d809      	bhi.n	20004376 <stdio_getchar_timeout_us+0x76>
20004362:	6a9b      	ldr	r3, [r3, #40]	@ 0x28
20004364:	42b3      	cmp	r3, r6
20004366:	d304      	bcc.n	20004372 <stdio_getchar_timeout_us+0x72>
20004368:	f06f 0001 	mvn.w	r0, #1
2000436c:	b002      	add	sp, #8
2000436e:	e8bd 81f0 	ldmia.w	sp!, {r4, r5, r6, r7, r8, pc}
20004372:	4297      	cmp	r7, r2
20004374:	d1f8      	bne.n	20004368 <stdio_getchar_timeout_us+0x68>
20004376:	2001      	movs	r0, #1
20004378:	2100      	movs	r1, #0
2000437a:	f7fd fd4f 	bl	20001e1c <busy_wait_us>
2000437e:	e7d5      	b.n	2000432c <stdio_getchar_timeout_us+0x2c>
20004380:	200096cc 	.word	0x200096cc
20004384:	400b0000 	.word	0x400b0000
20004388:	200096c4 	.word	0x200096c4

2000438c <__wrap_putchar>:
2000438c:	b5f0      	push	{r4, r5, r6, r7, lr}
2000438e:	b083      	sub	sp, #12
20004390:	4606      	mov	r6, r0
20004392:	f88d 0007 	strb.w	r0, [sp, #7]
20004396:	f7fd fd37 	bl	20001e08 <time_us_64>
2000439a:	f04f 35ff 	mov.w	r5, #4294967295	@ 0xffffffff
2000439e:	f06f 4400 	mvn.w	r4, #2147483648	@ 0x80000000
200043a2:	4a17      	ldr	r2, [pc, #92]	@ (20004400 <__wrap_putchar+0x74>)
200043a4:	1882      	adds	r2, r0, r2
200043a6:	f141 0300 	adc.w	r3, r1, #0
200043aa:	4295      	cmp	r5, r2
200043ac:	eb74 0103 	sbcs.w	r1, r4, r3
200043b0:	bf3c      	itt	cc
200043b2:	4623      	movcc	r3, r4
200043b4:	462a      	movcc	r2, r5
200043b6:	4813      	ldr	r0, [pc, #76]	@ (20004404 <__wrap_putchar+0x78>)
200043b8:	f003 f8bc 	bl	20007534 <mutex_try_enter_block_until>
200043bc:	4b12      	ldr	r3, [pc, #72]	@ (20004408 <__wrap_putchar+0x7c>)
200043be:	4607      	mov	r7, r0
200043c0:	681c      	ldr	r4, [r3, #0]
200043c2:	b19c      	cbz	r4, 200043ec <__wrap_putchar+0x60>
200043c4:	4d11      	ldr	r5, [pc, #68]	@ (2000440c <__wrap_putchar+0x80>)
200043c6:	e001      	b.n	200043cc <__wrap_putchar+0x40>
200043c8:	6924      	ldr	r4, [r4, #16]
200043ca:	b17c      	cbz	r4, 200043ec <__wrap_putchar+0x60>
200043cc:	6823      	ldr	r3, [r4, #0]
200043ce:	2b00      	cmp	r3, #0
200043d0:	d0fa      	beq.n	200043c8 <__wrap_putchar+0x3c>
200043d2:	682b      	ldr	r3, [r5, #0]
200043d4:	b10b      	cbz	r3, 200043da <__wrap_putchar+0x4e>
200043d6:	429c      	cmp	r4, r3
200043d8:	d1f6      	bne.n	200043c8 <__wrap_putchar+0x3c>
200043da:	4620      	mov	r0, r4
200043dc:	2201      	movs	r2, #1
200043de:	f10d 0107 	add.w	r1, sp, #7
200043e2:	f7ff fe63 	bl	200040ac <stdio_out_chars_crlf>
200043e6:	6924      	ldr	r4, [r4, #16]
200043e8:	2c00      	cmp	r4, #0
200043ea:	d1ef      	bne.n	200043cc <__wrap_putchar+0x40>
200043ec:	b917      	cbnz	r7, 200043f4 <__wrap_putchar+0x68>
200043ee:	4630      	mov	r0, r6
200043f0:	b003      	add	sp, #12
200043f2:	bdf0      	pop	{r4, r5, r6, r7, pc}
200043f4:	4803      	ldr	r0, [pc, #12]	@ (20004404 <__wrap_putchar+0x78>)
200043f6:	f003 f8ed 	bl	200075d4 <mutex_exit>
200043fa:	4630      	mov	r0, r6
200043fc:	b003      	add	sp, #12
200043fe:	bdf0      	pop	{r4, r5, r6, r7, pc}
20004400:	000f4240 	.word	0x000f4240
20004404:	20008d00 	.word	0x20008d00
20004408:	200096c4 	.word	0x200096c4
2000440c:	200096cc 	.word	0x200096cc

20004410 <__wrap_puts>:
20004410:	b538      	push	{r3, r4, r5, lr}
20004412:	4604      	mov	r4, r0
20004414:	f002 ffb2 	bl	2000737c <strlen>
20004418:	2301      	movs	r3, #1
2000441a:	4605      	mov	r5, r0
2000441c:	461a      	mov	r2, r3
2000441e:	4620      	mov	r0, r4
20004420:	4629      	mov	r1, r5
20004422:	f7ff fed1 	bl	200041c8 <stdio_put_string>
20004426:	4b08      	ldr	r3, [pc, #32]	@ (20004448 <__wrap_puts+0x38>)
20004428:	681c      	ldr	r4, [r3, #0]
2000442a:	b12c      	cbz	r4, 20004438 <__wrap_puts+0x28>
2000442c:	6863      	ldr	r3, [r4, #4]
2000442e:	b12b      	cbz	r3, 2000443c <__wrap_puts+0x2c>
20004430:	4798      	blx	r3
20004432:	6924      	ldr	r4, [r4, #16]
20004434:	2c00      	cmp	r4, #0
20004436:	d1f9      	bne.n	2000442c <__wrap_puts+0x1c>
20004438:	4628      	mov	r0, r5
2000443a:	bd38      	pop	{r3, r4, r5, pc}
2000443c:	6924      	ldr	r4, [r4, #16]
2000443e:	2c00      	cmp	r4, #0
20004440:	d1f4      	bne.n	2000442c <__wrap_puts+0x1c>
20004442:	4628      	mov	r0, r5
20004444:	bd38      	pop	{r3, r4, r5, pc}
20004446:	bf00      	nop
20004448:	200096c4 	.word	0x200096c4

2000444c <__wrap_vprintf>:
2000444c:	e92d 41f0 	stmdb	sp!, {r4, r5, r6, r7, r8, lr}
20004450:	b0a2      	sub	sp, #136	@ 0x88
20004452:	460e      	mov	r6, r1
20004454:	4605      	mov	r5, r0
20004456:	f7fd fcd7 	bl	20001e08 <time_us_64>
2000445a:	f04f 3cff 	mov.w	ip, #4294967295	@ 0xffffffff
2000445e:	f06f 4400 	mvn.w	r4, #2147483648	@ 0x80000000
20004462:	4a25      	ldr	r2, [pc, #148]	@ (200044f8 <__wrap_vprintf+0xac>)
20004464:	1882      	adds	r2, r0, r2
20004466:	f141 0300 	adc.w	r3, r1, #0
2000446a:	4594      	cmp	ip, r2
2000446c:	eb74 0103 	sbcs.w	r1, r4, r3
20004470:	bf3c      	itt	cc
20004472:	4623      	movcc	r3, r4
20004474:	4662      	movcc	r2, ip
20004476:	4821      	ldr	r0, [pc, #132]	@ (200044fc <__wrap_vprintf+0xb0>)
20004478:	f003 f85c 	bl	20007534 <mutex_try_enter_block_until>
2000447c:	2400      	movs	r4, #0
2000447e:	4633      	mov	r3, r6
20004480:	4607      	mov	r7, r0
20004482:	462a      	mov	r2, r5
20004484:	481e      	ldr	r0, [pc, #120]	@ (20004500 <__wrap_vprintf+0xb4>)
20004486:	a901      	add	r1, sp, #4
20004488:	9401      	str	r4, [sp, #4]
2000448a:	f7ff fdc5 	bl	20004018 <vfctprintf>
2000448e:	4e1d      	ldr	r6, [pc, #116]	@ (20004504 <__wrap_vprintf+0xb8>)
20004490:	9b01      	ldr	r3, [sp, #4]
20004492:	4680      	mov	r8, r0
20004494:	6834      	ldr	r4, [r6, #0]
20004496:	b1bb      	cbz	r3, 200044c8 <__wrap_vprintf+0x7c>
20004498:	2c00      	cmp	r4, #0
2000449a:	d02a      	beq.n	200044f2 <__wrap_vprintf+0xa6>
2000449c:	4d1a      	ldr	r5, [pc, #104]	@ (20004508 <__wrap_vprintf+0xbc>)
2000449e:	e001      	b.n	200044a4 <__wrap_vprintf+0x58>
200044a0:	6924      	ldr	r4, [r4, #16]
200044a2:	b174      	cbz	r4, 200044c2 <__wrap_vprintf+0x76>
200044a4:	6823      	ldr	r3, [r4, #0]
200044a6:	2b00      	cmp	r3, #0
200044a8:	d0fa      	beq.n	200044a0 <__wrap_vprintf+0x54>
200044aa:	682b      	ldr	r3, [r5, #0]
200044ac:	b10b      	cbz	r3, 200044b2 <__wrap_vprintf+0x66>
200044ae:	42a3      	cmp	r3, r4
200044b0:	d1f6      	bne.n	200044a0 <__wrap_vprintf+0x54>
200044b2:	4620      	mov	r0, r4
200044b4:	9a01      	ldr	r2, [sp, #4]
200044b6:	a902      	add	r1, sp, #8
200044b8:	f7ff fdf8 	bl	200040ac <stdio_out_chars_crlf>
200044bc:	6924      	ldr	r4, [r4, #16]
200044be:	2c00      	cmp	r4, #0
200044c0:	d1f0      	bne.n	200044a4 <__wrap_vprintf+0x58>
200044c2:	4623      	mov	r3, r4
200044c4:	6834      	ldr	r4, [r6, #0]
200044c6:	9301      	str	r3, [sp, #4]
200044c8:	b12c      	cbz	r4, 200044d6 <__wrap_vprintf+0x8a>
200044ca:	6863      	ldr	r3, [r4, #4]
200044cc:	b143      	cbz	r3, 200044e0 <__wrap_vprintf+0x94>
200044ce:	4798      	blx	r3
200044d0:	6924      	ldr	r4, [r4, #16]
200044d2:	2c00      	cmp	r4, #0
200044d4:	d1f9      	bne.n	200044ca <__wrap_vprintf+0x7e>
200044d6:	b92f      	cbnz	r7, 200044e4 <__wrap_vprintf+0x98>
200044d8:	4640      	mov	r0, r8
200044da:	b022      	add	sp, #136	@ 0x88
200044dc:	e8bd 81f0 	ldmia.w	sp!, {r4, r5, r6, r7, r8, pc}
200044e0:	6924      	ldr	r4, [r4, #16]
200044e2:	e7f1      	b.n	200044c8 <__wrap_vprintf+0x7c>
200044e4:	4805      	ldr	r0, [pc, #20]	@ (200044fc <__wrap_vprintf+0xb0>)
200044e6:	f003 f875 	bl	200075d4 <mutex_exit>
200044ea:	4640      	mov	r0, r8
200044ec:	b022      	add	sp, #136	@ 0x88
200044ee:	e8bd 81f0 	ldmia.w	sp!, {r4, r5, r6, r7, r8, pc}
200044f2:	9401      	str	r4, [sp, #4]
200044f4:	e7ef      	b.n	200044d6 <__wrap_vprintf+0x8a>
200044f6:	bf00      	nop
200044f8:	000f4240 	.word	0x000f4240
200044fc:	20008d00 	.word	0x20008d00
20004500:	2000416d 	.word	0x2000416d
20004504:	200096c4 	.word	0x200096c4
20004508:	200096cc 	.word	0x200096cc

2000450c <__wrap_printf>:
2000450c:	b40f      	push	{r0, r1, r2, r3}
2000450e:	b500      	push	{lr}
20004510:	b083      	sub	sp, #12
20004512:	a904      	add	r1, sp, #16
20004514:	f851 0b04 	ldr.w	r0, [r1], #4
20004518:	9101      	str	r1, [sp, #4]
2000451a:	f7ff ff97 	bl	2000444c <__wrap_vprintf>
2000451e:	b003      	add	sp, #12
20004520:	f85d eb04 	ldr.w	lr, [sp], #4
20004524:	b004      	add	sp, #16
20004526:	4770      	bx	lr

20004528 <resetd_init>:
20004528:	4770      	bx	lr
2000452a:	bf00      	nop

2000452c <resetd_reset>:
2000452c:	2200      	movs	r2, #0
2000452e:	4b01      	ldr	r3, [pc, #4]	@ (20004534 <resetd_reset+0x8>)
20004530:	701a      	strb	r2, [r3, #0]
20004532:	4770      	bx	lr
20004534:	20019b69 	.word	0x20019b69

20004538 <resetd_open>:
20004538:	794b      	ldrb	r3, [r1, #5]
2000453a:	2bff      	cmp	r3, #255	@ 0xff
2000453c:	d10b      	bne.n	20004556 <resetd_open+0x1e>
2000453e:	7988      	ldrb	r0, [r1, #6]
20004540:	b948      	cbnz	r0, 20004556 <resetd_open+0x1e>
20004542:	79cb      	ldrb	r3, [r1, #7]
20004544:	2b01      	cmp	r3, #1
20004546:	d107      	bne.n	20004558 <resetd_open+0x20>
20004548:	2a08      	cmp	r2, #8
2000454a:	d905      	bls.n	20004558 <resetd_open+0x20>
2000454c:	4b03      	ldr	r3, [pc, #12]	@ (2000455c <resetd_open+0x24>)
2000454e:	788a      	ldrb	r2, [r1, #2]
20004550:	2009      	movs	r0, #9
20004552:	701a      	strb	r2, [r3, #0]
20004554:	4770      	bx	lr
20004556:	2000      	movs	r0, #0
20004558:	4770      	bx	lr
2000455a:	bf00      	nop
2000455c:	20019b69 	.word	0x20019b69

20004560 <resetd_xfer_cb>:
20004560:	2001      	movs	r0, #1
20004562:	4770      	bx	lr

20004564 <resetd_control_xfer_cb>:
20004564:	2901      	cmp	r1, #1
20004566:	d001      	beq.n	2000456c <resetd_control_xfer_cb+0x8>
20004568:	2001      	movs	r0, #1
2000456a:	4770      	bx	lr
2000456c:	b508      	push	{r3, lr}
2000456e:	4b10      	ldr	r3, [pc, #64]	@ (200045b0 <resetd_control_xfer_cb+0x4c>)
20004570:	8891      	ldrh	r1, [r2, #4]
20004572:	781b      	ldrb	r3, [r3, #0]
20004574:	4299      	cmp	r1, r3
20004576:	d001      	beq.n	2000457c <resetd_control_xfer_cb+0x18>
20004578:	2000      	movs	r0, #0
2000457a:	bd08      	pop	{r3, pc}
2000457c:	7853      	ldrb	r3, [r2, #1]
2000457e:	2b01      	cmp	r3, #1
20004580:	d008      	beq.n	20004594 <resetd_control_xfer_cb+0x30>
20004582:	2b02      	cmp	r3, #2
20004584:	d1f8      	bne.n	20004578 <resetd_control_xfer_cb+0x14>
20004586:	2100      	movs	r1, #0
20004588:	2264      	movs	r2, #100	@ 0x64
2000458a:	4608      	mov	r0, r1
2000458c:	f7fd fec4 	bl	20002318 <watchdog_reboot>
20004590:	2001      	movs	r0, #1
20004592:	bd08      	pop	{r3, pc}
20004594:	8851      	ldrh	r1, [r2, #2]
20004596:	05cb      	lsls	r3, r1, #23
20004598:	bf48      	it	mi
2000459a:	0a48      	lsrmi	r0, r1, #9
2000459c:	f3c1 2240 	ubfx	r2, r1, #9, #1
200045a0:	bf58      	it	pl
200045a2:	f04f 30ff 	movpl.w	r0, #4294967295	@ 0xffffffff
200045a6:	f001 017f 	and.w	r1, r1, #127	@ 0x7f
200045aa:	f7fd ff4d 	bl	20002448 <rom_reset_usb_boot_extra>
200045ae:	bf00      	nop
200045b0:	20019b69 	.word	0x20019b69

200045b4 <tud_descriptor_bos_cb>:
200045b4:	4800      	ldr	r0, [pc, #0]	@ (200045b8 <tud_descriptor_bos_cb+0x4>)
200045b6:	4770      	bx	lr
200045b8:	20008914 	.word	0x20008914

200045bc <tud_vendor_control_xfer_cb>:
200045bc:	2901      	cmp	r1, #1
200045be:	d107      	bne.n	200045d0 <tud_vendor_control_xfer_cb+0x14>
200045c0:	7853      	ldrb	r3, [r2, #1]
200045c2:	2b01      	cmp	r3, #1
200045c4:	d102      	bne.n	200045cc <tud_vendor_control_xfer_cb+0x10>
200045c6:	8893      	ldrh	r3, [r2, #4]
200045c8:	2b07      	cmp	r3, #7
200045ca:	d003      	beq.n	200045d4 <tud_vendor_control_xfer_cb+0x18>
200045cc:	2000      	movs	r0, #0
200045ce:	4770      	bx	lr
200045d0:	2001      	movs	r0, #1
200045d2:	4770      	bx	lr
200045d4:	4611      	mov	r1, r2
200045d6:	23a6      	movs	r3, #166	@ 0xa6
200045d8:	4a01      	ldr	r2, [pc, #4]	@ (200045e0 <tud_vendor_control_xfer_cb+0x24>)
200045da:	f001 ba71 	b.w	20005ac0 <tud_control_xfer>
200045de:	bf00      	nop
200045e0:	2000886c 	.word	0x2000886c

200045e4 <usbd_app_driver_get_cb>:
200045e4:	4603      	mov	r3, r0
200045e6:	2201      	movs	r2, #1
200045e8:	4801      	ldr	r0, [pc, #4]	@ (200045f0 <usbd_app_driver_get_cb+0xc>)
200045ea:	701a      	strb	r2, [r3, #0]
200045ec:	4770      	bx	lr
200045ee:	bf00      	nop
200045f0:	2000884c 	.word	0x2000884c

200045f4 <tud_cdc_line_coding_cb>:
200045f4:	b508      	push	{r3, lr}
200045f6:	680b      	ldr	r3, [r1, #0]
200045f8:	f5b3 6f96 	cmp.w	r3, #1200	@ 0x4b0
200045fc:	d000      	beq.n	20004600 <tud_cdc_line_coding_cb+0xc>
200045fe:	bd08      	pop	{r3, pc}
20004600:	2200      	movs	r2, #0
20004602:	f04f 30ff 	mov.w	r0, #4294967295	@ 0xffffffff
20004606:	4611      	mov	r1, r2
20004608:	f7fd ff1e 	bl	20002448 <rom_reset_usb_boot_extra>

2000460c <stdio_usb_set_chars_available_callback>:
2000460c:	4a02      	ldr	r2, [pc, #8]	@ (20004618 <stdio_usb_set_chars_available_callback+0xc>)
2000460e:	4b03      	ldr	r3, [pc, #12]	@ (2000461c <stdio_usb_set_chars_available_callback+0x10>)
20004610:	6010      	str	r0, [r2, #0]
20004612:	6019      	str	r1, [r3, #0]
20004614:	4770      	bx	lr
20004616:	bf00      	nop
20004618:	20009664 	.word	0x20009664
2000461c:	20009668 	.word	0x20009668

20004620 <timer_task>:
20004620:	4b18      	ldr	r3, [pc, #96]	@ (20004684 <timer_task+0x64>)
20004622:	b570      	push	{r4, r5, r6, lr}
20004624:	681a      	ldr	r2, [r3, #0]
20004626:	2a00      	cmp	r2, #0
20004628:	d028      	beq.n	2000467c <timer_task+0x5c>
2000462a:	f3ef 8110 	mrs	r1, PRIMASK
2000462e:	b672      	cpsid	i
20004630:	e8d2 4fcf 	ldaexb	r4, [r2]
20004634:	2001      	movs	r0, #1
20004636:	2c00      	cmp	r4, #0
20004638:	d1fa      	bne.n	20004630 <timer_task+0x10>
2000463a:	e8c2 0f44 	strexb	r4, r0, [r2]
2000463e:	2c00      	cmp	r4, #0
20004640:	d1f6      	bne.n	20004630 <timer_task+0x10>
20004642:	f3bf 8f5f 	dmb	sy
20004646:	2200      	movs	r2, #0
20004648:	4c0f      	ldr	r4, [pc, #60]	@ (20004688 <timer_task+0x68>)
2000464a:	6818      	ldr	r0, [r3, #0]
2000464c:	6059      	str	r1, [r3, #4]
2000464e:	7022      	strb	r2, [r4, #0]
20004650:	e8c0 2f8f 	stlb	r2, [r0]
20004654:	f381 8810 	msr	PRIMASK, r1
20004658:	2400      	movs	r4, #0
2000465a:	2500      	movs	r5, #0
2000465c:	4e0b      	ldr	r6, [pc, #44]	@ (2000468c <timer_task+0x6c>)
2000465e:	7830      	ldrb	r0, [r6, #0]
20004660:	f7fc fcde 	bl	20001020 <irq_is_enabled>
20004664:	b920      	cbnz	r0, 20004670 <timer_task+0x50>
20004666:	2400      	movs	r4, #0
20004668:	2500      	movs	r5, #0
2000466a:	4620      	mov	r0, r4
2000466c:	4629      	mov	r1, r5
2000466e:	bd70      	pop	{r4, r5, r6, pc}
20004670:	7830      	ldrb	r0, [r6, #0]
20004672:	f7fc fcf1 	bl	20001058 <irq_set_pending>
20004676:	4620      	mov	r0, r4
20004678:	4629      	mov	r1, r5
2000467a:	bd70      	pop	{r4, r5, r6, pc}
2000467c:	f44f 747a 	mov.w	r4, #1000	@ 0x3e8
20004680:	2500      	movs	r5, #0
20004682:	e7eb      	b.n	2000465c <timer_task+0x3c>
20004684:	20009ae8 	.word	0x20009ae8
20004688:	20019b6b 	.word	0x20019b6b
2000468c:	20019b6a 	.word	0x20019b6a

20004690 <usb_irq>:
20004690:	4b01      	ldr	r3, [pc, #4]	@ (20004698 <usb_irq+0x8>)
20004692:	7818      	ldrb	r0, [r3, #0]
20004694:	f7fc bce0 	b.w	20001058 <irq_set_pending>
20004698:	20019b6a 	.word	0x20019b6a

2000469c <stdio_usb_in_chars>:
2000469c:	b538      	push	{r3, r4, r5, lr}
2000469e:	4604      	mov	r4, r0
200046a0:	2000      	movs	r0, #0
200046a2:	460d      	mov	r5, r1
200046a4:	f001 fb38 	bl	20005d18 <tud_cdc_n_connected>
200046a8:	b3a8      	cbz	r0, 20004716 <stdio_usb_in_chars+0x7a>
200046aa:	2000      	movs	r0, #0
200046ac:	f001 fb4a 	bl	20005d44 <tud_cdc_n_available>
200046b0:	b388      	cbz	r0, 20004716 <stdio_usb_in_chars+0x7a>
200046b2:	f7fd fba9 	bl	20001e08 <time_us_64>
200046b6:	f04f 3eff 	mov.w	lr, #4294967295	@ 0xffffffff
200046ba:	f06f 4c00 	mvn.w	ip, #2147483648	@ 0x80000000
200046be:	4a17      	ldr	r2, [pc, #92]	@ (2000471c <stdio_usb_in_chars+0x80>)
200046c0:	1882      	adds	r2, r0, r2
200046c2:	f141 0300 	adc.w	r3, r1, #0
200046c6:	4596      	cmp	lr, r2
200046c8:	eb7c 0103 	sbcs.w	r1, ip, r3
200046cc:	bf3c      	itt	cc
200046ce:	4672      	movcc	r2, lr
200046d0:	4663      	movcc	r3, ip
200046d2:	4813      	ldr	r0, [pc, #76]	@ (20004720 <stdio_usb_in_chars+0x84>)
200046d4:	f002 ff2e 	bl	20007534 <mutex_try_enter_block_until>
200046d8:	b1e8      	cbz	r0, 20004716 <stdio_usb_in_chars+0x7a>
200046da:	2000      	movs	r0, #0
200046dc:	f001 fb1c 	bl	20005d18 <tud_cdc_n_connected>
200046e0:	b958      	cbnz	r0, 200046fa <stdio_usb_in_chars+0x5e>
200046e2:	4601      	mov	r1, r0
200046e4:	f04f 30ff 	mov.w	r0, #4294967295	@ 0xffffffff
200046e8:	f000 fd16 	bl	20005118 <tud_task_ext>
200046ec:	f06f 0402 	mvn.w	r4, #2
200046f0:	480b      	ldr	r0, [pc, #44]	@ (20004720 <stdio_usb_in_chars+0x84>)
200046f2:	f002 ff6f 	bl	200075d4 <mutex_exit>
200046f6:	4620      	mov	r0, r4
200046f8:	bd38      	pop	{r3, r4, r5, pc}
200046fa:	2000      	movs	r0, #0
200046fc:	f001 fb22 	bl	20005d44 <tud_cdc_n_available>
20004700:	2800      	cmp	r0, #0
20004702:	d0ee      	beq.n	200046e2 <stdio_usb_in_chars+0x46>
20004704:	4621      	mov	r1, r4
20004706:	462a      	mov	r2, r5
20004708:	2000      	movs	r0, #0
2000470a:	f001 fb27 	bl	20005d5c <tud_cdc_n_read>
2000470e:	4604      	mov	r4, r0
20004710:	2800      	cmp	r0, #0
20004712:	d1ed      	bne.n	200046f0 <stdio_usb_in_chars+0x54>
20004714:	e7ea      	b.n	200046ec <stdio_usb_in_chars+0x50>
20004716:	f06f 0402 	mvn.w	r4, #2
2000471a:	e7ec      	b.n	200046f6 <stdio_usb_in_chars+0x5a>
2000471c:	000f4240 	.word	0x000f4240
20004720:	20019b20 	.word	0x20019b20

20004724 <stdio_usb_out_flush>:
20004724:	b508      	push	{r3, lr}
20004726:	f7fd fb6f 	bl	20001e08 <time_us_64>
2000472a:	f04f 3eff 	mov.w	lr, #4294967295	@ 0xffffffff
2000472e:	f06f 4c00 	mvn.w	ip, #2147483648	@ 0x80000000
20004732:	4a0f      	ldr	r2, [pc, #60]	@ (20004770 <stdio_usb_out_flush+0x4c>)
20004734:	1882      	adds	r2, r0, r2
20004736:	f141 0300 	adc.w	r3, r1, #0
2000473a:	4596      	cmp	lr, r2
2000473c:	eb7c 0103 	sbcs.w	r1, ip, r3
20004740:	bf3c      	itt	cc
20004742:	4672      	movcc	r2, lr
20004744:	4663      	movcc	r3, ip
20004746:	480b      	ldr	r0, [pc, #44]	@ (20004774 <stdio_usb_out_flush+0x50>)
20004748:	f002 fef4 	bl	20007534 <mutex_try_enter_block_until>
2000474c:	b170      	cbz	r0, 2000476c <stdio_usb_out_flush+0x48>
2000474e:	f04f 30ff 	mov.w	r0, #4294967295	@ 0xffffffff
20004752:	2100      	movs	r1, #0
20004754:	f000 fce0 	bl	20005118 <tud_task_ext>
20004758:	2000      	movs	r0, #0
2000475a:	f001 fb45 	bl	20005de8 <tud_cdc_n_write_flush>
2000475e:	2800      	cmp	r0, #0
20004760:	d1f5      	bne.n	2000474e <stdio_usb_out_flush+0x2a>
20004762:	e8bd 4008 	ldmia.w	sp!, {r3, lr}
20004766:	4803      	ldr	r0, [pc, #12]	@ (20004774 <stdio_usb_out_flush+0x50>)
20004768:	f002 bf34 	b.w	200075d4 <mutex_exit>
2000476c:	bd08      	pop	{r3, pc}
2000476e:	bf00      	nop
20004770:	000f4240 	.word	0x000f4240
20004774:	20019b20 	.word	0x20019b20

20004778 <stdio_usb_out_chars>:
20004778:	e92d 41f0 	stmdb	sp!, {r4, r5, r6, r7, r8, lr}
2000477c:	4607      	mov	r7, r0
2000477e:	460e      	mov	r6, r1
20004780:	f7fd fb42 	bl	20001e08 <time_us_64>
20004784:	f04f 35ff 	mov.w	r5, #4294967295	@ 0xffffffff
20004788:	f06f 4400 	mvn.w	r4, #2147483648	@ 0x80000000
2000478c:	4a32      	ldr	r2, [pc, #200]	@ (20004858 <stdio_usb_out_chars+0xe0>)
2000478e:	1882      	adds	r2, r0, r2
20004790:	f141 0300 	adc.w	r3, r1, #0
20004794:	4295      	cmp	r5, r2
20004796:	eb74 0103 	sbcs.w	r1, r4, r3
2000479a:	bf3c      	itt	cc
2000479c:	462a      	movcc	r2, r5
2000479e:	4623      	movcc	r3, r4
200047a0:	482e      	ldr	r0, [pc, #184]	@ (2000485c <stdio_usb_out_chars+0xe4>)
200047a2:	f002 fec7 	bl	20007534 <mutex_try_enter_block_until>
200047a6:	b908      	cbnz	r0, 200047ac <stdio_usb_out_chars+0x34>
200047a8:	e8bd 81f0 	ldmia.w	sp!, {r4, r5, r6, r7, r8, pc}
200047ac:	2000      	movs	r0, #0
200047ae:	f001 fab3 	bl	20005d18 <tud_cdc_n_connected>
200047b2:	2800      	cmp	r0, #0
200047b4:	d045      	beq.n	20004842 <stdio_usb_out_chars+0xca>
200047b6:	2e00      	cmp	r6, #0
200047b8:	dd3e      	ble.n	20004838 <stdio_usb_out_chars+0xc0>
200047ba:	2500      	movs	r5, #0
200047bc:	f8df 80a4 	ldr.w	r8, [pc, #164]	@ 20004864 <stdio_usb_out_chars+0xec>
200047c0:	e012      	b.n	200047e8 <stdio_usb_out_chars+0x70>
200047c2:	4622      	mov	r2, r4
200047c4:	2000      	movs	r0, #0
200047c6:	f001 fb59 	bl	20005e7c <tud_cdc_n_write>
200047ca:	2100      	movs	r1, #0
200047cc:	4405      	add	r5, r0
200047ce:	f04f 30ff 	mov.w	r0, #4294967295	@ 0xffffffff
200047d2:	f000 fca1 	bl	20005118 <tud_task_ext>
200047d6:	2000      	movs	r0, #0
200047d8:	f001 fb06 	bl	20005de8 <tud_cdc_n_write_flush>
200047dc:	f7fd fb14 	bl	20001e08 <time_us_64>
200047e0:	e9c8 0100 	strd	r0, r1, [r8]
200047e4:	42ae      	cmp	r6, r5
200047e6:	dd27      	ble.n	20004838 <stdio_usb_out_chars+0xc0>
200047e8:	2000      	movs	r0, #0
200047ea:	f001 fb67 	bl	20005ebc <tud_cdc_n_write_available>
200047ee:	1b74      	subs	r4, r6, r5
200047f0:	4284      	cmp	r4, r0
200047f2:	bfa8      	it	ge
200047f4:	4604      	movge	r4, r0
200047f6:	1979      	adds	r1, r7, r5
200047f8:	2c00      	cmp	r4, #0
200047fa:	d1e2      	bne.n	200047c2 <stdio_usb_out_chars+0x4a>
200047fc:	4621      	mov	r1, r4
200047fe:	f04f 30ff 	mov.w	r0, #4294967295	@ 0xffffffff
20004802:	f000 fc89 	bl	20005118 <tud_task_ext>
20004806:	4620      	mov	r0, r4
20004808:	f001 faee 	bl	20005de8 <tud_cdc_n_write_flush>
2000480c:	4620      	mov	r0, r4
2000480e:	f001 fa83 	bl	20005d18 <tud_cdc_n_connected>
20004812:	b188      	cbz	r0, 20004838 <stdio_usb_out_chars+0xc0>
20004814:	4620      	mov	r0, r4
20004816:	f001 fb51 	bl	20005ebc <tud_cdc_n_write_available>
2000481a:	2800      	cmp	r0, #0
2000481c:	d1e2      	bne.n	200047e4 <stdio_usb_out_chars+0x6c>
2000481e:	f7fd faf3 	bl	20001e08 <time_us_64>
20004822:	4a0f      	ldr	r2, [pc, #60]	@ (20004860 <stdio_usb_out_chars+0xe8>)
20004824:	f8d8 3000 	ldr.w	r3, [r8]
20004828:	189b      	adds	r3, r3, r2
2000482a:	f8d8 2004 	ldr.w	r2, [r8, #4]
2000482e:	f142 0200 	adc.w	r2, r2, #0
20004832:	4283      	cmp	r3, r0
20004834:	418a      	sbcs	r2, r1
20004836:	d2d5      	bcs.n	200047e4 <stdio_usb_out_chars+0x6c>
20004838:	4808      	ldr	r0, [pc, #32]	@ (2000485c <stdio_usb_out_chars+0xe4>)
2000483a:	e8bd 41f0 	ldmia.w	sp!, {r4, r5, r6, r7, r8, lr}
2000483e:	f002 bec9 	b.w	200075d4 <mutex_exit>
20004842:	2000      	movs	r0, #0
20004844:	e8bd 41f0 	ldmia.w	sp!, {r4, r5, r6, r7, r8, lr}
20004848:	2100      	movs	r1, #0
2000484a:	4b06      	ldr	r3, [pc, #24]	@ (20004864 <stdio_usb_out_chars+0xec>)
2000484c:	e9c3 0100 	strd	r0, r1, [r3]
20004850:	4802      	ldr	r0, [pc, #8]	@ (2000485c <stdio_usb_out_chars+0xe4>)
20004852:	f002 bebf 	b.w	200075d4 <mutex_exit>
20004856:	bf00      	nop
20004858:	000f4240 	.word	0x000f4240
2000485c:	20019b20 	.word	0x20019b20
20004860:	0007a120 	.word	0x0007a120
20004864:	20009038 	.word	0x20009038

20004868 <low_priority_worker_irq>:
20004868:	b510      	push	{r4, lr}
2000486a:	2100      	movs	r1, #0
2000486c:	b084      	sub	sp, #16
2000486e:	4832      	ldr	r0, [pc, #200]	@ (20004938 <low_priority_worker_irq+0xd0>)
20004870:	f002 fe02 	bl	20007478 <mutex_try_enter>
20004874:	bb28      	cbnz	r0, 200048c2 <low_priority_worker_irq+0x5a>
20004876:	4b31      	ldr	r3, [pc, #196]	@ (2000493c <low_priority_worker_irq+0xd4>)
20004878:	681a      	ldr	r2, [r3, #0]
2000487a:	b302      	cbz	r2, 200048be <low_priority_worker_irq+0x56>
2000487c:	f3ef 8110 	mrs	r1, PRIMASK
20004880:	b672      	cpsid	i
20004882:	e8d2 efcf 	ldaexb	lr, [r2]
20004886:	f05f 0c01 	movs.w	ip, #1
2000488a:	f1be 0f00 	cmp.w	lr, #0
2000488e:	d1f8      	bne.n	20004882 <low_priority_worker_irq+0x1a>
20004890:	e8c2 cf4e 	strexb	lr, ip, [r2]
20004894:	f1be 0f00 	cmp.w	lr, #0
20004898:	d1f3      	bne.n	20004882 <low_priority_worker_irq+0x1a>
2000489a:	f3bf 8f5f 	dmb	sy
2000489e:	f8df c0a8 	ldr.w	ip, [pc, #168]	@ 20004948 <low_priority_worker_irq+0xe0>
200048a2:	f8d3 e000 	ldr.w	lr, [r3]
200048a6:	f89c 2000 	ldrb.w	r2, [ip]
200048aa:	6059      	str	r1, [r3, #4]
200048ac:	b2d3      	uxtb	r3, r2
200048ae:	2201      	movs	r2, #1
200048b0:	f88c 2000 	strb.w	r2, [ip]
200048b4:	e8ce 0f8f 	stlb	r0, [lr]
200048b8:	f381 8810 	msr	PRIMASK, r1
200048bc:	b1cb      	cbz	r3, 200048f2 <low_priority_worker_irq+0x8a>
200048be:	b004      	add	sp, #16
200048c0:	bd10      	pop	{r4, pc}
200048c2:	2100      	movs	r1, #0
200048c4:	f04f 30ff 	mov.w	r0, #4294967295	@ 0xffffffff
200048c8:	f000 fc26 	bl	20005118 <tud_task_ext>
200048cc:	2000      	movs	r0, #0
200048ce:	f001 fa39 	bl	20005d44 <tud_cdc_n_available>
200048d2:	4604      	mov	r4, r0
200048d4:	4818      	ldr	r0, [pc, #96]	@ (20004938 <low_priority_worker_irq+0xd0>)
200048d6:	f002 fe7d 	bl	200075d4 <mutex_exit>
200048da:	2c00      	cmp	r4, #0
200048dc:	d0ef      	beq.n	200048be <low_priority_worker_irq+0x56>
200048de:	4b18      	ldr	r3, [pc, #96]	@ (20004940 <low_priority_worker_irq+0xd8>)
200048e0:	681b      	ldr	r3, [r3, #0]
200048e2:	2b00      	cmp	r3, #0
200048e4:	d0eb      	beq.n	200048be <low_priority_worker_irq+0x56>
200048e6:	4a17      	ldr	r2, [pc, #92]	@ (20004944 <low_priority_worker_irq+0xdc>)
200048e8:	6810      	ldr	r0, [r2, #0]
200048ea:	b004      	add	sp, #16
200048ec:	e8bd 4010 	ldmia.w	sp!, {r4, lr}
200048f0:	4718      	bx	r3
200048f2:	f7fc fff9 	bl	200018e8 <alarm_pool_get_default>
200048f6:	4604      	mov	r4, r0
200048f8:	f7fd fa86 	bl	20001e08 <time_us_64>
200048fc:	f04f 3eff 	mov.w	lr, #4294967295	@ 0xffffffff
20004900:	f06f 4c00 	mvn.w	ip, #2147483648	@ 0x80000000
20004904:	f510 727a 	adds.w	r2, r0, #1000	@ 0x3e8
20004908:	f141 0300 	adc.w	r3, r1, #0
2000490c:	4596      	cmp	lr, r2
2000490e:	eb7c 0103 	sbcs.w	r1, ip, r3
20004912:	bf38      	it	cc
20004914:	4663      	movcc	r3, ip
20004916:	f04f 0100 	mov.w	r1, #0
2000491a:	f04f 0c01 	mov.w	ip, #1
2000491e:	bf38      	it	cc
20004920:	4672      	movcc	r2, lr
20004922:	f8df e028 	ldr.w	lr, [pc, #40]	@ 2000494c <low_priority_worker_irq+0xe4>
20004926:	4620      	mov	r0, r4
20004928:	e9cd 1c01 	strd	r1, ip, [sp, #4]
2000492c:	f8cd e000 	str.w	lr, [sp]
20004930:	f7fc ffde 	bl	200018f0 <alarm_pool_add_alarm_at>
20004934:	b004      	add	sp, #16
20004936:	bd10      	pop	{r4, pc}
20004938:	20019b20 	.word	0x20019b20
2000493c:	20009ae8 	.word	0x20009ae8
20004940:	20009664 	.word	0x20009664
20004944:	20009668 	.word	0x20009668
20004948:	20019b6b 	.word	0x20019b6b
2000494c:	20004621 	.word	0x20004621

20004950 <stdio_usb_init>:
20004950:	f04f 4350 	mov.w	r3, #3489660928	@ 0xd0000000
20004954:	b530      	push	{r4, r5, lr}
20004956:	b085      	sub	sp, #20
20004958:	681c      	ldr	r4, [r3, #0]
2000495a:	f7fc ffc5 	bl	200018e8 <alarm_pool_get_default>
2000495e:	f7fd f8e1 	bl	20001b24 <alarm_pool_core_num>
20004962:	42a0      	cmp	r0, r4
20004964:	d002      	beq.n	2000496c <stdio_usb_init+0x1c>
20004966:	2000      	movs	r0, #0
20004968:	b005      	add	sp, #20
2000496a:	bd30      	pop	{r4, r5, pc}
2000496c:	4b2b      	ldr	r3, [pc, #172]	@ (20004a1c <stdio_usb_init+0xcc>)
2000496e:	781b      	ldrb	r3, [r3, #0]
20004970:	f001 fd8a 	bl	20006488 <tusb_init>
20004974:	482a      	ldr	r0, [pc, #168]	@ (20004a20 <stdio_usb_init+0xd0>)
20004976:	6803      	ldr	r3, [r0, #0]
20004978:	2b00      	cmp	r3, #0
2000497a:	d04b      	beq.n	20004a14 <stdio_usb_init+0xc4>
2000497c:	2001      	movs	r0, #1
2000497e:	f7fc fd37 	bl	200013f0 <user_irq_claim_unused>
20004982:	4603      	mov	r3, r0
20004984:	4c27      	ldr	r4, [pc, #156]	@ (20004a24 <stdio_usb_init+0xd4>)
20004986:	4928      	ldr	r1, [pc, #160]	@ (20004a28 <stdio_usb_init+0xd8>)
20004988:	b2c0      	uxtb	r0, r0
2000498a:	7023      	strb	r3, [r4, #0]
2000498c:	f7fc fb80 	bl	20001090 <irq_set_exclusive_handler>
20004990:	7820      	ldrb	r0, [r4, #0]
20004992:	2101      	movs	r1, #1
20004994:	f7fc fb2e 	bl	20000ff4 <irq_set_enabled>
20004998:	200e      	movs	r0, #14
2000499a:	f7fc fb69 	bl	20001070 <irq_has_shared_handler>
2000499e:	bb60      	cbnz	r0, 200049fa <stdio_usb_init+0xaa>
200049a0:	4b22      	ldr	r3, [pc, #136]	@ (20004a2c <stdio_usb_init+0xdc>)
200049a2:	f06f 4400 	mvn.w	r4, #2147483648	@ 0x80000000
200049a6:	e9c3 0000 	strd	r0, r0, [r3]
200049aa:	f7fc ff9d 	bl	200018e8 <alarm_pool_get_default>
200049ae:	4605      	mov	r5, r0
200049b0:	f7fd fa2a 	bl	20001e08 <time_us_64>
200049b4:	f04f 3cff 	mov.w	ip, #4294967295	@ 0xffffffff
200049b8:	f510 727a 	adds.w	r2, r0, #1000	@ 0x3e8
200049bc:	f141 0300 	adc.w	r3, r1, #0
200049c0:	4594      	cmp	ip, r2
200049c2:	eb74 0103 	sbcs.w	r1, r4, r3
200049c6:	bf38      	it	cc
200049c8:	4623      	movcc	r3, r4
200049ca:	f04f 0100 	mov.w	r1, #0
200049ce:	f04f 0401 	mov.w	r4, #1
200049d2:	bf38      	it	cc
200049d4:	4662      	movcc	r2, ip
200049d6:	f8df c060 	ldr.w	ip, [pc, #96]	@ 20004a38 <stdio_usb_init+0xe8>
200049da:	4628      	mov	r0, r5
200049dc:	e9cd 1401 	strd	r1, r4, [sp, #4]
200049e0:	f8cd c000 	str.w	ip, [sp]
200049e4:	f7fc ff84 	bl	200018f0 <alarm_pool_add_alarm_at>
200049e8:	2800      	cmp	r0, #0
200049ea:	dbbc      	blt.n	20004966 <stdio_usb_init+0x16>
200049ec:	2101      	movs	r1, #1
200049ee:	4810      	ldr	r0, [pc, #64]	@ (20004a30 <stdio_usb_init+0xe0>)
200049f0:	f7ff fc60 	bl	200042b4 <stdio_set_driver_enabled>
200049f4:	2001      	movs	r0, #1
200049f6:	b005      	add	sp, #20
200049f8:	bd30      	pop	{r4, r5, pc}
200049fa:	2001      	movs	r0, #1
200049fc:	f7fc fab4 	bl	20000f68 <spin_lock_claim_unused>
20004a00:	4601      	mov	r1, r0
20004a02:	480a      	ldr	r0, [pc, #40]	@ (20004a2c <stdio_usb_init+0xdc>)
20004a04:	f7fc fd52 	bl	200014ac <critical_section_init_with_lock_num>
20004a08:	2200      	movs	r2, #0
20004a0a:	200e      	movs	r0, #14
20004a0c:	4909      	ldr	r1, [pc, #36]	@ (20004a34 <stdio_usb_init+0xe4>)
20004a0e:	f7fc fb77 	bl	20001100 <irq_add_shared_handler>
20004a12:	e7eb      	b.n	200049ec <stdio_usb_init+0x9c>
20004a14:	f7fc fd2e 	bl	20001474 <mutex_init>
20004a18:	e7b0      	b.n	2000497c <stdio_usb_init+0x2c>
20004a1a:	bf00      	nop
20004a1c:	10000220 	.word	0x10000220
20004a20:	20019b20 	.word	0x20019b20
20004a24:	20019b6a 	.word	0x20019b6a
20004a28:	20004869 	.word	0x20004869
20004a2c:	20009ae8 	.word	0x20009ae8
20004a30:	20008cbc 	.word	0x20008cbc
20004a34:	20004691 	.word	0x20004691
20004a38:	20004621 	.word	0x20004621

20004a3c <tud_descriptor_device_cb>:
20004a3c:	4800      	ldr	r0, [pc, #0]	@ (20004a40 <tud_descriptor_device_cb+0x4>)
20004a3e:	4770      	bx	lr
20004a40:	200089b0 	.word	0x200089b0

20004a44 <tud_descriptor_configuration_cb>:
20004a44:	4800      	ldr	r0, [pc, #0]	@ (20004a48 <tud_descriptor_configuration_cb+0x4>)
20004a46:	4770      	bx	lr
20004a48:	2000895c 	.word	0x2000895c

20004a4c <tud_descriptor_string_cb>:
20004a4c:	b500      	push	{lr}
20004a4e:	4a1c      	ldr	r2, [pc, #112]	@ (20004ac0 <tud_descriptor_string_cb+0x74>)
20004a50:	4603      	mov	r3, r0
20004a52:	7811      	ldrb	r1, [r2, #0]
20004a54:	b083      	sub	sp, #12
20004a56:	b331      	cbz	r1, 20004aa6 <tud_descriptor_string_cb+0x5a>
20004a58:	b963      	cbnz	r3, 20004a74 <tud_descriptor_string_cb+0x28>
20004a5a:	f240 4209 	movw	r2, #1033	@ 0x409
20004a5e:	f44f 7341 	mov.w	r3, #772	@ 0x304
20004a62:	f8df c060 	ldr.w	ip, [pc, #96]	@ 20004ac4 <tud_descriptor_string_cb+0x78>
20004a66:	f8ac 2002 	strh.w	r2, [ip, #2]
20004a6a:	4816      	ldr	r0, [pc, #88]	@ (20004ac4 <tud_descriptor_string_cb+0x78>)
20004a6c:	f8ac 3000 	strh.w	r3, [ip]
20004a70:	b003      	add	sp, #12
20004a72:	bd00      	pop	{pc}
20004a74:	2b05      	cmp	r3, #5
20004a76:	d820      	bhi.n	20004aba <tud_descriptor_string_cb+0x6e>
20004a78:	4a13      	ldr	r2, [pc, #76]	@ (20004ac8 <tud_descriptor_string_cb+0x7c>)
20004a7a:	f8df c048 	ldr.w	ip, [pc, #72]	@ 20004ac4 <tud_descriptor_string_cb+0x78>
20004a7e:	f852 1023 	ldr.w	r1, [r2, r3, lsl #2]
20004a82:	4660      	mov	r0, ip
20004a84:	2300      	movs	r3, #0
20004a86:	3901      	subs	r1, #1
20004a88:	e003      	b.n	20004a92 <tud_descriptor_string_cb+0x46>
20004a8a:	2b13      	cmp	r3, #19
20004a8c:	f820 2f02 	strh.w	r2, [r0, #2]!
20004a90:	d010      	beq.n	20004ab4 <tud_descriptor_string_cb+0x68>
20004a92:	f811 2f01 	ldrb.w	r2, [r1, #1]!
20004a96:	3301      	adds	r3, #1
20004a98:	b2db      	uxtb	r3, r3
20004a9a:	2a00      	cmp	r2, #0
20004a9c:	d1f5      	bne.n	20004a8a <tud_descriptor_string_cb+0x3e>
20004a9e:	005b      	lsls	r3, r3, #1
20004aa0:	f443 7340 	orr.w	r3, r3, #768	@ 0x300
20004aa4:	e7e1      	b.n	20004a6a <tud_descriptor_string_cb+0x1e>
20004aa6:	9001      	str	r0, [sp, #4]
20004aa8:	2111      	movs	r1, #17
20004aaa:	4610      	mov	r0, r2
20004aac:	f000 f824 	bl	20004af8 <pico_get_unique_board_id_string>
20004ab0:	9b01      	ldr	r3, [sp, #4]
20004ab2:	e7d1      	b.n	20004a58 <tud_descriptor_string_cb+0xc>
20004ab4:	f44f 734a 	mov.w	r3, #808	@ 0x328
20004ab8:	e7d7      	b.n	20004a6a <tud_descriptor_string_cb+0x1e>
20004aba:	2000      	movs	r0, #0
20004abc:	e7d8      	b.n	20004a70 <tud_descriptor_string_cb+0x24>
20004abe:	bf00      	nop
20004ac0:	20019b54 	.word	0x20019b54
20004ac4:	2000969c 	.word	0x2000969c
20004ac8:	20008944 	.word	0x20008944

20004acc <_retrieve_unique_id_on_boot>:
20004acc:	b500      	push	{lr}
20004ace:	f245 3047 	movw	r0, #21319	@ 0x5347
20004ad2:	b08b      	sub	sp, #44	@ 0x2c
20004ad4:	f7fd fc9e 	bl	20002414 <rom_func_lookup>
20004ad8:	2201      	movs	r2, #1
20004ada:	4603      	mov	r3, r0
20004adc:	2109      	movs	r1, #9
20004ade:	a801      	add	r0, sp, #4
20004ae0:	4798      	blx	r3
20004ae2:	e9dd 3203 	ldrd	r3, r2, [sp, #12]
20004ae6:	4903      	ldr	r1, [pc, #12]	@ (20004af4 <_retrieve_unique_id_on_boot+0x28>)
20004ae8:	ba12      	rev	r2, r2
20004aea:	ba1b      	rev	r3, r3
20004aec:	e9c1 2300 	strd	r2, r3, [r1]
20004af0:	b00b      	add	sp, #44	@ 0x2c
20004af2:	bd00      	pop	{pc}
20004af4:	20009b14 	.word	0x20009b14

20004af8 <pico_get_unique_board_id_string>:
20004af8:	2901      	cmp	r1, #1
20004afa:	f000 80bb 	beq.w	20004c74 <pico_get_unique_board_id_string+0x17c>
20004afe:	4a61      	ldr	r2, [pc, #388]	@ (20004c84 <pico_get_unique_board_id_string+0x18c>)
20004b00:	3901      	subs	r1, #1
20004b02:	7813      	ldrb	r3, [r2, #0]
20004b04:	ea4f 1c23 	mov.w	ip, r3, asr #4
20004b08:	f1bc 0f09 	cmp.w	ip, #9
20004b0c:	bfcc      	ite	gt
20004b0e:	f10c 0c37 	addgt.w	ip, ip, #55	@ 0x37
20004b12:	f10c 0c30 	addle.w	ip, ip, #48	@ 0x30
20004b16:	2901      	cmp	r1, #1
20004b18:	f880 c000 	strb.w	ip, [r0]
20004b1c:	f000 80ad 	beq.w	20004c7a <pico_get_unique_board_id_string+0x182>
20004b20:	f003 030f 	and.w	r3, r3, #15
20004b24:	2b09      	cmp	r3, #9
20004b26:	bf8c      	ite	hi
20004b28:	3337      	addhi	r3, #55	@ 0x37
20004b2a:	3330      	addls	r3, #48	@ 0x30
20004b2c:	2902      	cmp	r1, #2
20004b2e:	7043      	strb	r3, [r0, #1]
20004b30:	f000 80a3 	beq.w	20004c7a <pico_get_unique_board_id_string+0x182>
20004b34:	7853      	ldrb	r3, [r2, #1]
20004b36:	ea4f 1c23 	mov.w	ip, r3, asr #4
20004b3a:	f1bc 0f09 	cmp.w	ip, #9
20004b3e:	bfcc      	ite	gt
20004b40:	f10c 0c37 	addgt.w	ip, ip, #55	@ 0x37
20004b44:	f10c 0c30 	addle.w	ip, ip, #48	@ 0x30
20004b48:	2903      	cmp	r1, #3
20004b4a:	f880 c002 	strb.w	ip, [r0, #2]
20004b4e:	f000 8094 	beq.w	20004c7a <pico_get_unique_board_id_string+0x182>
20004b52:	f003 030f 	and.w	r3, r3, #15
20004b56:	2b09      	cmp	r3, #9
20004b58:	bf8c      	ite	hi
20004b5a:	3337      	addhi	r3, #55	@ 0x37
20004b5c:	3330      	addls	r3, #48	@ 0x30
20004b5e:	2904      	cmp	r1, #4
20004b60:	70c3      	strb	r3, [r0, #3]
20004b62:	f000 808a 	beq.w	20004c7a <pico_get_unique_board_id_string+0x182>
20004b66:	7893      	ldrb	r3, [r2, #2]
20004b68:	ea4f 1c23 	mov.w	ip, r3, asr #4
20004b6c:	f1bc 0f09 	cmp.w	ip, #9
20004b70:	bfcc      	ite	gt
20004b72:	f10c 0c37 	addgt.w	ip, ip, #55	@ 0x37
20004b76:	f10c 0c30 	addle.w	ip, ip, #48	@ 0x30
20004b7a:	2905      	cmp	r1, #5
20004b7c:	f880 c004 	strb.w	ip, [r0, #4]
20004b80:	d07b      	beq.n	20004c7a <pico_get_unique_board_id_string+0x182>
20004b82:	f003 030f 	and.w	r3, r3, #15
20004b86:	2b09      	cmp	r3, #9
20004b88:	bf8c      	ite	hi
20004b8a:	3337      	addhi	r3, #55	@ 0x37
20004b8c:	3330      	addls	r3, #48	@ 0x30
20004b8e:	2906      	cmp	r1, #6
20004b90:	7143      	strb	r3, [r0, #5]
20004b92:	d072      	beq.n	20004c7a <pico_get_unique_board_id_string+0x182>
20004b94:	78d3      	ldrb	r3, [r2, #3]
20004b96:	ea4f 1c23 	mov.w	ip, r3, asr #4
20004b9a:	f1bc 0f09 	cmp.w	ip, #9
20004b9e:	bfcc      	ite	gt
20004ba0:	f10c 0c37 	addgt.w	ip, ip, #55	@ 0x37
20004ba4:	f10c 0c30 	addle.w	ip, ip, #48	@ 0x30
20004ba8:	2907      	cmp	r1, #7
20004baa:	f880 c006 	strb.w	ip, [r0, #6]
20004bae:	d064      	beq.n	20004c7a <pico_get_unique_board_id_string+0x182>
20004bb0:	f003 030f 	and.w	r3, r3, #15
20004bb4:	2b09      	cmp	r3, #9
20004bb6:	bf8c      	ite	hi
20004bb8:	3337      	addhi	r3, #55	@ 0x37
20004bba:	3330      	addls	r3, #48	@ 0x30
20004bbc:	2908      	cmp	r1, #8
20004bbe:	71c3      	strb	r3, [r0, #7]
20004bc0:	d05b      	beq.n	20004c7a <pico_get_unique_board_id_string+0x182>
20004bc2:	7913      	ldrb	r3, [r2, #4]
20004bc4:	ea4f 1c23 	mov.w	ip, r3, asr #4
20004bc8:	f1bc 0f09 	cmp.w	ip, #9
20004bcc:	bfcc      	ite	gt
20004bce:	f10c 0c37 	addgt.w	ip, ip, #55	@ 0x37
20004bd2:	f10c 0c30 	addle.w	ip, ip, #48	@ 0x30
20004bd6:	2909      	cmp	r1, #9
20004bd8:	f880 c008 	strb.w	ip, [r0, #8]
20004bdc:	d04d      	beq.n	20004c7a <pico_get_unique_board_id_string+0x182>
20004bde:	f003 030f 	and.w	r3, r3, #15
20004be2:	2b09      	cmp	r3, #9
20004be4:	bf8c      	ite	hi
20004be6:	3337      	addhi	r3, #55	@ 0x37
20004be8:	3330      	addls	r3, #48	@ 0x30
20004bea:	290a      	cmp	r1, #10
20004bec:	7243      	strb	r3, [r0, #9]
20004bee:	d044      	beq.n	20004c7a <pico_get_unique_board_id_string+0x182>
20004bf0:	7953      	ldrb	r3, [r2, #5]
20004bf2:	ea4f 1c23 	mov.w	ip, r3, asr #4
20004bf6:	f1bc 0f09 	cmp.w	ip, #9
20004bfa:	bfcc      	ite	gt
20004bfc:	f10c 0c37 	addgt.w	ip, ip, #55	@ 0x37
20004c00:	f10c 0c30 	addle.w	ip, ip, #48	@ 0x30
20004c04:	290b      	cmp	r1, #11
20004c06:	f880 c00a 	strb.w	ip, [r0, #10]
20004c0a:	d036      	beq.n	20004c7a <pico_get_unique_board_id_string+0x182>
20004c0c:	f003 030f 	and.w	r3, r3, #15
20004c10:	2b09      	cmp	r3, #9
20004c12:	bf8c      	ite	hi
20004c14:	3337      	addhi	r3, #55	@ 0x37
20004c16:	3330      	addls	r3, #48	@ 0x30
20004c18:	290c      	cmp	r1, #12
20004c1a:	72c3      	strb	r3, [r0, #11]
20004c1c:	d02d      	beq.n	20004c7a <pico_get_unique_board_id_string+0x182>
20004c1e:	7993      	ldrb	r3, [r2, #6]
20004c20:	ea4f 1c23 	mov.w	ip, r3, asr #4
20004c24:	f1bc 0f09 	cmp.w	ip, #9
20004c28:	bfcc      	ite	gt
20004c2a:	f10c 0c37 	addgt.w	ip, ip, #55	@ 0x37
20004c2e:	f10c 0c30 	addle.w	ip, ip, #48	@ 0x30
20004c32:	290d      	cmp	r1, #13
20004c34:	f880 c00c 	strb.w	ip, [r0, #12]
20004c38:	d01f      	beq.n	20004c7a <pico_get_unique_board_id_string+0x182>
20004c3a:	f003 030f 	and.w	r3, r3, #15
20004c3e:	2b09      	cmp	r3, #9
20004c40:	bf8c      	ite	hi
20004c42:	3337      	addhi	r3, #55	@ 0x37
20004c44:	3330      	addls	r3, #48	@ 0x30
20004c46:	290e      	cmp	r1, #14
20004c48:	7343      	strb	r3, [r0, #13]
20004c4a:	d016      	beq.n	20004c7a <pico_get_unique_board_id_string+0x182>
20004c4c:	79d3      	ldrb	r3, [r2, #7]
20004c4e:	111a      	asrs	r2, r3, #4
20004c50:	2a09      	cmp	r2, #9
20004c52:	bfcc      	ite	gt
20004c54:	3237      	addgt	r2, #55	@ 0x37
20004c56:	3230      	addle	r2, #48	@ 0x30
20004c58:	290f      	cmp	r1, #15
20004c5a:	7382      	strb	r2, [r0, #14]
20004c5c:	d00d      	beq.n	20004c7a <pico_get_unique_board_id_string+0x182>
20004c5e:	f003 030f 	and.w	r3, r3, #15
20004c62:	2b09      	cmp	r3, #9
20004c64:	bf94      	ite	ls
20004c66:	3330      	addls	r3, #48	@ 0x30
20004c68:	3337      	addhi	r3, #55	@ 0x37
20004c6a:	2910      	cmp	r1, #16
20004c6c:	73c3      	strb	r3, [r0, #15]
20004c6e:	bf18      	it	ne
20004c70:	3010      	addne	r0, #16
20004c72:	d002      	beq.n	20004c7a <pico_get_unique_board_id_string+0x182>
20004c74:	2300      	movs	r3, #0
20004c76:	7003      	strb	r3, [r0, #0]
20004c78:	4770      	bx	lr
20004c7a:	2300      	movs	r3, #0
20004c7c:	4408      	add	r0, r1
20004c7e:	7003      	strb	r3, [r0, #0]
20004c80:	4770      	bx	lr
20004c82:	bf00      	nop
20004c84:	20009b14 	.word	0x20009b14

20004c88 <dcd_init>:
20004c88:	b538      	push	{r3, r4, r5, lr}
20004c8a:	f000 f92f 	bl	20004eec <rp2040_usb_init>
20004c8e:	230c      	movs	r3, #12
20004c90:	4c1a      	ldr	r4, [pc, #104]	@ (20004cfc <dcd_init+0x74>)
20004c92:	22ff      	movs	r2, #255	@ 0xff
20004c94:	67a3      	str	r3, [r4, #120]	@ 0x78
20004c96:	200e      	movs	r0, #14
20004c98:	4919      	ldr	r1, [pc, #100]	@ (20004d00 <dcd_init+0x78>)
20004c9a:	f7fc fa31 	bl	20001100 <irq_add_shared_handler>
20004c9e:	2240      	movs	r2, #64	@ 0x40
20004ca0:	2100      	movs	r1, #0
20004ca2:	4818      	ldr	r0, [pc, #96]	@ (20004d04 <dcd_init+0x7c>)
20004ca4:	f002 fa98 	bl	200071d8 <memset>
20004ca8:	2501      	movs	r5, #1
20004caa:	2080      	movs	r0, #128	@ 0x80
20004cac:	4a15      	ldr	r2, [pc, #84]	@ (20004d04 <dcd_init+0x7c>)
20004cae:	2300      	movs	r3, #0
20004cb0:	8450      	strh	r0, [r2, #34]	@ 0x22
20004cb2:	7055      	strb	r5, [r2, #1]
20004cb4:	4610      	mov	r0, r2
20004cb6:	2240      	movs	r2, #64	@ 0x40
20004cb8:	4913      	ldr	r1, [pc, #76]	@ (20004d08 <dcd_init+0x80>)
20004cba:	8302      	strh	r2, [r0, #24]
20004cbc:	8702      	strh	r2, [r0, #56]	@ 0x38
20004cbe:	4a13      	ldr	r2, [pc, #76]	@ (20004d0c <dcd_init+0x84>)
20004cc0:	6081      	str	r1, [r0, #8]
20004cc2:	6043      	str	r3, [r0, #4]
20004cc4:	f8c2 3084 	str.w	r3, [r2, #132]	@ 0x84
20004cc8:	f8c2 3080 	str.w	r3, [r2, #128]	@ 0x80
20004ccc:	f880 3021 	strb.w	r3, [r0, #33]	@ 0x21
20004cd0:	f880 303b 	strb.w	r3, [r0, #59]	@ 0x3b
20004cd4:	6243      	str	r3, [r0, #36]	@ 0x24
20004cd6:	4b0e      	ldr	r3, [pc, #56]	@ (20004d10 <dcd_init+0x88>)
20004cd8:	60c3      	str	r3, [r0, #12]
20004cda:	62c3      	str	r3, [r0, #44]	@ 0x2c
20004cdc:	3b80      	subs	r3, #128	@ 0x80
20004cde:	6283      	str	r3, [r0, #40]	@ 0x28
20004ce0:	f002 fc96 	bl	20007610 <reset_non_control_endpoints>
20004ce4:	f04f 5000 	mov.w	r0, #536870912	@ 0x20000000
20004ce8:	f44f 3280 	mov.w	r2, #65536	@ 0x10000
20004cec:	4909      	ldr	r1, [pc, #36]	@ (20004d14 <dcd_init+0x8c>)
20004cee:	4b0a      	ldr	r3, [pc, #40]	@ (20004d18 <dcd_init+0x90>)
20004cf0:	6425      	str	r5, [r4, #64]	@ 0x40
20004cf2:	64e0      	str	r0, [r4, #76]	@ 0x4c
20004cf4:	f8c4 1090 	str.w	r1, [r4, #144]	@ 0x90
20004cf8:	64da      	str	r2, [r3, #76]	@ 0x4c
20004cfa:	bd38      	pop	{r3, r4, r5, pc}
20004cfc:	50110000 	.word	0x50110000
20004d00:	20007705 	.word	0x20007705
20004d04:	200096d0 	.word	0x200096d0
20004d08:	50100084 	.word	0x50100084
20004d0c:	50100000 	.word	0x50100000
20004d10:	50100100 	.word	0x50100100
20004d14:	0001d010 	.word	0x0001d010
20004d18:	50112000 	.word	0x50112000

20004d1c <dcd_int_enable>:
20004d1c:	2101      	movs	r1, #1
20004d1e:	200e      	movs	r0, #14
20004d20:	f7fc b968 	b.w	20000ff4 <irq_set_enabled>

20004d24 <dcd_set_address>:
20004d24:	2200      	movs	r2, #0
20004d26:	4802      	ldr	r0, [pc, #8]	@ (20004d30 <dcd_set_address+0xc>)
20004d28:	4611      	mov	r1, r2
20004d2a:	f000 b8ff 	b.w	20004f2c <hw_endpoint_xfer_start>
20004d2e:	bf00      	nop
20004d30:	200096f0 	.word	0x200096f0

20004d34 <dcd_sof_enable>:
20004d34:	4b04      	ldr	r3, [pc, #16]	@ (20004d48 <dcd_sof_enable+0x14>)
20004d36:	7019      	strb	r1, [r3, #0]
20004d38:	b121      	cbz	r1, 20004d44 <dcd_sof_enable+0x10>
20004d3a:	f44f 3200 	mov.w	r2, #131072	@ 0x20000
20004d3e:	4b03      	ldr	r3, [pc, #12]	@ (20004d4c <dcd_sof_enable+0x18>)
20004d40:	f8c3 2090 	str.w	r2, [r3, #144]	@ 0x90
20004d44:	4770      	bx	lr
20004d46:	bf00      	nop
20004d48:	20019b66 	.word	0x20019b66
20004d4c:	50112000 	.word	0x50112000

20004d50 <dcd_edpt0_status_complete>:
20004d50:	780b      	ldrb	r3, [r1, #0]
20004d52:	065b      	lsls	r3, r3, #25
20004d54:	d000      	beq.n	20004d58 <dcd_edpt0_status_complete+0x8>
20004d56:	4770      	bx	lr
20004d58:	784b      	ldrb	r3, [r1, #1]
20004d5a:	2b05      	cmp	r3, #5
20004d5c:	d1fb      	bne.n	20004d56 <dcd_edpt0_status_complete+0x6>
20004d5e:	884b      	ldrh	r3, [r1, #2]
20004d60:	4a01      	ldr	r2, [pc, #4]	@ (20004d68 <dcd_edpt0_status_complete+0x18>)
20004d62:	b2db      	uxtb	r3, r3
20004d64:	6013      	str	r3, [r2, #0]
20004d66:	e7f6      	b.n	20004d56 <dcd_edpt0_status_complete+0x6>
20004d68:	50110000 	.word	0x50110000

20004d6c <dcd_edpt_open>:
20004d6c:	e92d 41f0 	stmdb	sp!, {r4, r5, r6, r7, r8, lr}
20004d70:	f04f 0e00 	mov.w	lr, #0
20004d74:	f891 c002 	ldrb.w	ip, [r1, #2]
20004d78:	78ce      	ldrb	r6, [r1, #3]
20004d7a:	888b      	ldrh	r3, [r1, #4]
20004d7c:	f00c 017f 	and.w	r1, ip, #127	@ 0x7f
20004d80:	4835      	ldr	r0, [pc, #212]	@ (20004e58 <dcd_edpt_open+0xec>)
20004d82:	004d      	lsls	r5, r1, #1
20004d84:	eb05 12dc 	add.w	r2, r5, ip, lsr #7
20004d88:	eb00 1242 	add.w	r2, r0, r2, lsl #5
20004d8c:	f3c6 0701 	ubfx	r7, r6, #0, #2
20004d90:	ea4f 14dc 	mov.w	r4, ip, lsr #7
20004d94:	76d7      	strb	r7, [r2, #27]
20004d96:	f3c3 030a 	ubfx	r3, r3, #0, #11
20004d9a:	f084 0701 	eor.w	r7, r4, #1
20004d9e:	f882 c002 	strb.w	ip, [r2, #2]
20004da2:	f882 e003 	strb.w	lr, [r2, #3]
20004da6:	8313      	strh	r3, [r2, #24]
20004da8:	7057      	strb	r7, [r2, #1]
20004daa:	f006 0803 	and.w	r8, r6, #3
20004dae:	00ca      	lsls	r2, r1, #3
20004db0:	bba4      	cbnz	r4, 20004e1c <dcd_edpt_open+0xb0>
20004db2:	4f2a      	ldr	r7, [pc, #168]	@ (20004e5c <dcd_edpt_open+0xf0>)
20004db4:	3204      	adds	r2, #4
20004db6:	eb00 1c81 	add.w	ip, r0, r1, lsl #6
20004dba:	19d6      	adds	r6, r2, r7
20004dbc:	f8cc 6008 	str.w	r6, [ip, #8]
20004dc0:	f842 e007 	str.w	lr, [r2, r7]
20004dc4:	b399      	cbz	r1, 20004e2e <dcd_edpt_open+0xc2>
20004dc6:	4a26      	ldr	r2, [pc, #152]	@ (20004e60 <dcd_edpt_open+0xf4>)
20004dc8:	eb02 02c1 	add.w	r2, r2, r1, lsl #3
20004dcc:	f8cc 2004 	str.w	r2, [ip, #4]
20004dd0:	4f24      	ldr	r7, [pc, #144]	@ (20004e64 <dcd_edpt_open+0xf8>)
20004dd2:	333f      	adds	r3, #63	@ 0x3f
20004dd4:	683a      	ldr	r2, [r7, #0]
20004dd6:	099b      	lsrs	r3, r3, #6
20004dd8:	f1b8 0f02 	cmp.w	r8, #2
20004ddc:	bf14      	ite	ne
20004dde:	019b      	lslne	r3, r3, #6
20004de0:	01db      	lsleq	r3, r3, #7
20004de2:	4413      	add	r3, r2
20004de4:	603b      	str	r3, [r7, #0]
20004de6:	f083 43a0 	eor.w	r3, r3, #1342177280	@ 0x50000000
20004dea:	1929      	adds	r1, r5, r4
20004dec:	f483 1380 	eor.w	r3, r3, #1048576	@ 0x100000
20004df0:	eb00 1141 	add.w	r1, r0, r1, lsl #5
20004df4:	f082 47a0 	eor.w	r7, r2, #1342177280	@ 0x50000000
20004df8:	f5b3 5f80 	cmp.w	r3, #4096	@ 0x1000
20004dfc:	60ca      	str	r2, [r1, #12]
20004dfe:	f487 1780 	eor.w	r7, r7, #1048576	@ 0x100000
20004e02:	d824      	bhi.n	20004e4e <dcd_edpt_open+0xe2>
20004e04:	4425      	add	r5, r4
20004e06:	eb00 1045 	add.w	r0, r0, r5, lsl #5
20004e0a:	6843      	ldr	r3, [r0, #4]
20004e0c:	ea47 6288 	orr.w	r2, r7, r8, lsl #26
20004e10:	f042 4200 	orr.w	r2, r2, #2147483648	@ 0x80000000
20004e14:	2001      	movs	r0, #1
20004e16:	601a      	str	r2, [r3, #0]
20004e18:	e8bd 81f0 	ldmia.w	sp!, {r4, r5, r6, r7, r8, pc}
20004e1c:	4f0f      	ldr	r7, [pc, #60]	@ (20004e5c <dcd_edpt_open+0xf0>)
20004e1e:	eb00 1c81 	add.w	ip, r0, r1, lsl #6
20004e22:	443a      	add	r2, r7
20004e24:	f8cc 2028 	str.w	r2, [ip, #40]	@ 0x28
20004e28:	f847 e031 	str.w	lr, [r7, r1, lsl #3]
20004e2c:	b939      	cbnz	r1, 20004e3e <dcd_edpt_open+0xd2>
20004e2e:	4a0e      	ldr	r2, [pc, #56]	@ (20004e68 <dcd_edpt_open+0xfc>)
20004e30:	eb00 1044 	add.w	r0, r0, r4, lsl #5
20004e34:	60c2      	str	r2, [r0, #12]
20004e36:	6041      	str	r1, [r0, #4]
20004e38:	2001      	movs	r0, #1
20004e3a:	e8bd 81f0 	ldmia.w	sp!, {r4, r5, r6, r7, r8, pc}
20004e3e:	00c9      	lsls	r1, r1, #3
20004e40:	f101 41a0 	add.w	r1, r1, #1342177280	@ 0x50000000
20004e44:	f501 1180 	add.w	r1, r1, #1048576	@ 0x100000
20004e48:	f8cc 1024 	str.w	r1, [ip, #36]	@ 0x24
20004e4c:	e7c0      	b.n	20004dd0 <dcd_edpt_open+0x64>
20004e4e:	f7fd fb39 	bl	200024c4 <hard_assertion_failure>
20004e52:	4801      	ldr	r0, [pc, #4]	@ (20004e58 <dcd_edpt_open+0xec>)
20004e54:	e7d6      	b.n	20004e04 <dcd_edpt_open+0x98>
20004e56:	bf00      	nop
20004e58:	200096d0 	.word	0x200096d0
20004e5c:	50100080 	.word	0x50100080
20004e60:	50100004 	.word	0x50100004
20004e64:	20009ae4 	.word	0x20009ae4
20004e68:	50100100 	.word	0x50100100

20004e6c <dcd_edpt_close_all>:
20004e6c:	f002 bbd0 	b.w	20007610 <reset_non_control_endpoints>

20004e70 <dcd_edpt_xfer>:
20004e70:	b508      	push	{r3, lr}
20004e72:	4696      	mov	lr, r2
20004e74:	f8df c01c 	ldr.w	ip, [pc, #28]	@ 20004e94 <dcd_edpt_xfer+0x24>
20004e78:	f001 027f 	and.w	r2, r1, #127	@ 0x7f
20004e7c:	09c8      	lsrs	r0, r1, #7
20004e7e:	eb00 0042 	add.w	r0, r0, r2, lsl #1
20004e82:	eb0c 1040 	add.w	r0, ip, r0, lsl #5
20004e86:	461a      	mov	r2, r3
20004e88:	4671      	mov	r1, lr
20004e8a:	f000 f84f 	bl	20004f2c <hw_endpoint_xfer_start>
20004e8e:	2001      	movs	r0, #1
20004e90:	bd08      	pop	{r3, pc}
20004e92:	bf00      	nop
20004e94:	200096d0 	.word	0x200096d0

20004e98 <dcd_edpt_stall>:
20004e98:	f011 027f 	ands.w	r2, r1, #127	@ 0x7f
20004e9c:	d105      	bne.n	20004eaa <dcd_edpt_stall+0x12>
20004e9e:	2900      	cmp	r1, #0
20004ea0:	bf0c      	ite	eq
20004ea2:	2002      	moveq	r0, #2
20004ea4:	2001      	movne	r0, #1
20004ea6:	4b06      	ldr	r3, [pc, #24]	@ (20004ec0 <dcd_edpt_stall+0x28>)
20004ea8:	6698      	str	r0, [r3, #104]	@ 0x68
20004eaa:	09c9      	lsrs	r1, r1, #7
20004eac:	4b05      	ldr	r3, [pc, #20]	@ (20004ec4 <dcd_edpt_stall+0x2c>)
20004eae:	eb01 0042 	add.w	r0, r1, r2, lsl #1
20004eb2:	eb03 1040 	add.w	r0, r3, r0, lsl #5
20004eb6:	f44f 6200 	mov.w	r2, #2048	@ 0x800
20004eba:	2100      	movs	r1, #0
20004ebc:	f002 bfc6 	b.w	20007e4c <_hw_endpoint_buffer_control_update32>
20004ec0:	50112000 	.word	0x50112000
20004ec4:	200096d0 	.word	0x200096d0

20004ec8 <dcd_edpt_clear_stall>:
20004ec8:	f011 037f 	ands.w	r3, r1, #127	@ 0x7f
20004ecc:	d100      	bne.n	20004ed0 <dcd_edpt_clear_stall+0x8>
20004ece:	4770      	bx	lr
20004ed0:	2200      	movs	r2, #0
20004ed2:	4805      	ldr	r0, [pc, #20]	@ (20004ee8 <dcd_edpt_clear_stall+0x20>)
20004ed4:	005b      	lsls	r3, r3, #1
20004ed6:	eb03 13d1 	add.w	r3, r3, r1, lsr #7
20004eda:	eb00 1043 	add.w	r0, r0, r3, lsl #5
20004ede:	f46f 6100 	mvn.w	r1, #2048	@ 0x800
20004ee2:	70c2      	strb	r2, [r0, #3]
20004ee4:	f002 bfb2 	b.w	20007e4c <_hw_endpoint_buffer_control_update32>
20004ee8:	200096d0 	.word	0x200096d0

20004eec <rp2040_usb_init>:
20004eec:	f04f 5280 	mov.w	r2, #268435456	@ 0x10000000
20004ef0:	4809      	ldr	r0, [pc, #36]	@ (20004f18 <rp2040_usb_init+0x2c>)
20004ef2:	490a      	ldr	r1, [pc, #40]	@ (20004f1c <rp2040_usb_init+0x30>)
20004ef4:	b508      	push	{r3, lr}
20004ef6:	4b0a      	ldr	r3, [pc, #40]	@ (20004f20 <rp2040_usb_init+0x34>)
20004ef8:	6002      	str	r2, [r0, #0]
20004efa:	600a      	str	r2, [r1, #0]
20004efc:	6899      	ldr	r1, [r3, #8]
20004efe:	43c9      	mvns	r1, r1
20004f00:	f011 5180 	ands.w	r1, r1, #268435456	@ 0x10000000
20004f04:	d1fa      	bne.n	20004efc <rp2040_usb_init+0x10>
20004f06:	f44f 5280 	mov.w	r2, #4096	@ 0x1000
20004f0a:	4806      	ldr	r0, [pc, #24]	@ (20004f24 <rp2040_usb_init+0x38>)
20004f0c:	f002 f964 	bl	200071d8 <memset>
20004f10:	2209      	movs	r2, #9
20004f12:	4b05      	ldr	r3, [pc, #20]	@ (20004f28 <rp2040_usb_init+0x3c>)
20004f14:	675a      	str	r2, [r3, #116]	@ 0x74
20004f16:	bd08      	pop	{r3, pc}
20004f18:	40022000 	.word	0x40022000
20004f1c:	40023000 	.word	0x40023000
20004f20:	40020000 	.word	0x40020000
20004f24:	50100000 	.word	0x50100000
20004f28:	50110000 	.word	0x50110000

20004f2c <hw_endpoint_xfer_start>:
20004f2c:	2300      	movs	r3, #0
20004f2e:	f04f 0c01 	mov.w	ip, #1
20004f32:	b510      	push	{r4, lr}
20004f34:	6101      	str	r1, [r0, #16]
20004f36:	f880 c01a 	strb.w	ip, [r0, #26]
20004f3a:	8282      	strh	r2, [r0, #20]
20004f3c:	82c3      	strh	r3, [r0, #22]
20004f3e:	4604      	mov	r4, r0
20004f40:	f002 ff56 	bl	20007df0 <e15_is_bulkin_ep>
20004f44:	b120      	cbz	r0, 20004f50 <hw_endpoint_xfer_start+0x24>
20004f46:	f44f 3200 	mov.w	r2, #131072	@ 0x20000
20004f4a:	4b07      	ldr	r3, [pc, #28]	@ (20004f68 <hw_endpoint_xfer_start+0x3c>)
20004f4c:	f8c3 2090 	str.w	r2, [r3, #144]	@ 0x90
20004f50:	4620      	mov	r0, r4
20004f52:	f002 ff61 	bl	20007e18 <e15_is_critical_frame_period>
20004f56:	b110      	cbz	r0, 20004f5e <hw_endpoint_xfer_start+0x32>
20004f58:	2301      	movs	r3, #1
20004f5a:	7723      	strb	r3, [r4, #28]
20004f5c:	bd10      	pop	{r4, pc}
20004f5e:	4620      	mov	r0, r4
20004f60:	e8bd 4010 	ldmia.w	sp!, {r4, lr}
20004f64:	f002 bf96 	b.w	20007e94 <hw_endpoint_start_next_buffer>
20004f68:	50112000 	.word	0x50112000

20004f6c <configuration_reset>:
20004f6c:	e92d 41f0 	stmdb	sp!, {r4, r5, r6, r7, r8, lr}
20004f70:	2400      	movs	r4, #0
20004f72:	4d1c      	ldr	r5, [pc, #112]	@ (20004fe4 <configuration_reset+0x78>)
20004f74:	4606      	mov	r6, r0
20004f76:	4623      	mov	r3, r4
20004f78:	782a      	ldrb	r2, [r5, #0]
20004f7a:	f8df 8078 	ldr.w	r8, [pc, #120]	@ 20004ff4 <configuration_reset+0x88>
20004f7e:	4f1a      	ldr	r7, [pc, #104]	@ (20004fe8 <configuration_reset+0x7c>)
20004f80:	e00d      	b.n	20004f9e <configuration_reset+0x32>
20004f82:	683b      	ldr	r3, [r7, #0]
20004f84:	eb13 1344 	adds.w	r3, r3, r4, lsl #5
20004f88:	d023      	beq.n	20004fd2 <configuration_reset+0x66>
20004f8a:	68db      	ldr	r3, [r3, #12]
20004f8c:	4630      	mov	r0, r6
20004f8e:	4798      	blx	r3
20004f90:	782a      	ldrb	r2, [r5, #0]
20004f92:	3401      	adds	r4, #1
20004f94:	b2e4      	uxtb	r4, r4
20004f96:	1c51      	adds	r1, r2, #1
20004f98:	42a1      	cmp	r1, r4
20004f9a:	4623      	mov	r3, r4
20004f9c:	db06      	blt.n	20004fac <configuration_reset+0x40>
20004f9e:	42a2      	cmp	r2, r4
20004fa0:	eba3 0302 	sub.w	r3, r3, r2
20004fa4:	d8ed      	bhi.n	20004f82 <configuration_reset+0x16>
20004fa6:	eb08 1343 	add.w	r3, r8, r3, lsl #5
20004faa:	e7ee      	b.n	20004f8a <configuration_reset+0x1e>
20004fac:	2254      	movs	r2, #84	@ 0x54
20004fae:	2100      	movs	r1, #0
20004fb0:	480e      	ldr	r0, [pc, #56]	@ (20004fec <configuration_reset+0x80>)
20004fb2:	f002 f911 	bl	200071d8 <memset>
20004fb6:	f04f 33ff 	mov.w	r3, #4294967295	@ 0xffffffff
20004fba:	4c0c      	ldr	r4, [pc, #48]	@ (20004fec <configuration_reset+0x80>)
20004fbc:	2220      	movs	r2, #32
20004fbe:	e9c4 3301 	strd	r3, r3, [r4, #4]
20004fc2:	e9c4 3303 	strd	r3, r3, [r4, #12]
20004fc6:	21ff      	movs	r1, #255	@ 0xff
20004fc8:	e8bd 41f0 	ldmia.w	sp!, {r4, r5, r6, r7, r8, lr}
20004fcc:	4808      	ldr	r0, [pc, #32]	@ (20004ff0 <configuration_reset+0x84>)
20004fce:	f002 b903 	b.w	200071d8 <memset>
20004fd2:	f04f 23e0 	mov.w	r3, #3758153728	@ 0xe000e000
20004fd6:	f8d3 3df0 	ldr.w	r3, [r3, #3568]	@ 0xdf0
20004fda:	07db      	lsls	r3, r3, #31
20004fdc:	d500      	bpl.n	20004fe0 <configuration_reset+0x74>
20004fde:	be00      	bkpt	0x0000
20004fe0:	e8bd 81f0 	ldmia.w	sp!, {r4, r5, r6, r7, r8, pc}
20004fe4:	20019b65 	.word	0x20019b65
20004fe8:	200091f8 	.word	0x200091f8
20004fec:	2000927c 	.word	0x2000927c
20004ff0:	20009290 	.word	0x20009290
20004ff4:	200089c4 	.word	0x200089c4

20004ff8 <tud_event_hook_cb>:
20004ff8:	4770      	bx	lr
20004ffa:	bf00      	nop

20004ffc <tud_sof_cb>:
20004ffc:	4770      	bx	lr
20004ffe:	bf00      	nop

20005000 <tud_descriptor_device_qualifier_cb>:
20005000:	2000      	movs	r0, #0
20005002:	4770      	bx	lr

20005004 <tud_descriptor_other_speed_configuration_cb>:
20005004:	2000      	movs	r0, #0
20005006:	4770      	bx	lr

20005008 <tud_mount_cb>:
20005008:	4770      	bx	lr
2000500a:	bf00      	nop

2000500c <tud_umount_cb>:
2000500c:	4770      	bx	lr
2000500e:	bf00      	nop

20005010 <tud_suspend_cb>:
20005010:	4770      	bx	lr
20005012:	bf00      	nop

20005014 <tud_resume_cb>:
20005014:	4770      	bx	lr
20005016:	bf00      	nop

20005018 <tud_mounted>:
20005018:	4b02      	ldr	r3, [pc, #8]	@ (20005024 <tud_mounted+0xc>)
2000501a:	7858      	ldrb	r0, [r3, #1]
2000501c:	3800      	subs	r0, #0
2000501e:	bf18      	it	ne
20005020:	2001      	movne	r0, #1
20005022:	4770      	bx	lr
20005024:	2000927c 	.word	0x2000927c

20005028 <tud_suspended>:
20005028:	4b02      	ldr	r3, [pc, #8]	@ (20005034 <tud_suspended+0xc>)
2000502a:	7818      	ldrb	r0, [r3, #0]
2000502c:	f3c0 0080 	ubfx	r0, r0, #2, #1
20005030:	4770      	bx	lr
20005032:	bf00      	nop
20005034:	2000927c 	.word	0x2000927c

20005038 <tud_init>:
20005038:	e92d 43f8 	stmdb	sp!, {r3, r4, r5, r6, r7, r8, r9, lr}
2000503c:	4e2a      	ldr	r6, [pc, #168]	@ (200050e8 <tud_init+0xb0>)
2000503e:	7833      	ldrb	r3, [r6, #0]
20005040:	2bff      	cmp	r3, #255	@ 0xff
20005042:	d002      	beq.n	2000504a <tud_init+0x12>
20005044:	2001      	movs	r0, #1
20005046:	e8bd 83f8 	ldmia.w	sp!, {r3, r4, r5, r6, r7, r8, r9, pc}
2000504a:	2100      	movs	r1, #0
2000504c:	2254      	movs	r2, #84	@ 0x54
2000504e:	4681      	mov	r9, r0
20005050:	4826      	ldr	r0, [pc, #152]	@ (200050ec <tud_init+0xb4>)
20005052:	f002 f8c1 	bl	200071d8 <memset>
20005056:	2200      	movs	r2, #0
20005058:	4c25      	ldr	r4, [pc, #148]	@ (200050f0 <tud_init+0xb8>)
2000505a:	4b26      	ldr	r3, [pc, #152]	@ (200050f4 <tud_init+0xbc>)
2000505c:	4620      	mov	r0, r4
2000505e:	701a      	strb	r2, [r3, #0]
20005060:	f7fc fa08 	bl	20001474 <mutex_init>
20005064:	4b24      	ldr	r3, [pc, #144]	@ (200050f8 <tud_init+0xc0>)
20005066:	4825      	ldr	r0, [pc, #148]	@ (200050fc <tud_init+0xc4>)
20005068:	601c      	str	r4, [r3, #0]
2000506a:	4c25      	ldr	r4, [pc, #148]	@ (20005100 <tud_init+0xc8>)
2000506c:	f7fc fa10 	bl	20001490 <critical_section_init>
20005070:	4620      	mov	r0, r4
20005072:	f001 fdd9 	bl	20006c28 <tu_fifo_clear>
20005076:	4a23      	ldr	r2, [pc, #140]	@ (20005104 <tud_init+0xcc>)
20005078:	4b23      	ldr	r3, [pc, #140]	@ (20005108 <tud_init+0xd0>)
2000507a:	6014      	str	r4, [r2, #0]
2000507c:	b123      	cbz	r3, 20005088 <tud_init+0x50>
2000507e:	4823      	ldr	r0, [pc, #140]	@ (2000510c <tud_init+0xd4>)
20005080:	f7ff fab0 	bl	200045e4 <usbd_app_driver_get_cb>
20005084:	4b22      	ldr	r3, [pc, #136]	@ (20005110 <tud_init+0xd8>)
20005086:	6018      	str	r0, [r3, #0]
20005088:	2400      	movs	r4, #0
2000508a:	4d20      	ldr	r5, [pc, #128]	@ (2000510c <tud_init+0xd4>)
2000508c:	4623      	mov	r3, r4
2000508e:	782a      	ldrb	r2, [r5, #0]
20005090:	f8df 8080 	ldr.w	r8, [pc, #128]	@ 20005114 <tud_init+0xdc>
20005094:	4f1e      	ldr	r7, [pc, #120]	@ (20005110 <tud_init+0xd8>)
20005096:	e00d      	b.n	200050b4 <tud_init+0x7c>
20005098:	683b      	ldr	r3, [r7, #0]
2000509a:	eb13 1344 	adds.w	r3, r3, r4, lsl #5
2000509e:	d011      	beq.n	200050c4 <tud_init+0x8c>
200050a0:	685b      	ldr	r3, [r3, #4]
200050a2:	b17b      	cbz	r3, 200050c4 <tud_init+0x8c>
200050a4:	4798      	blx	r3
200050a6:	782a      	ldrb	r2, [r5, #0]
200050a8:	3401      	adds	r4, #1
200050aa:	b2e4      	uxtb	r4, r4
200050ac:	1c51      	adds	r1, r2, #1
200050ae:	42a1      	cmp	r1, r4
200050b0:	4623      	mov	r3, r4
200050b2:	db10      	blt.n	200050d6 <tud_init+0x9e>
200050b4:	42a2      	cmp	r2, r4
200050b6:	d8ef      	bhi.n	20005098 <tud_init+0x60>
200050b8:	1a9b      	subs	r3, r3, r2
200050ba:	eb08 1343 	add.w	r3, r8, r3, lsl #5
200050be:	685b      	ldr	r3, [r3, #4]
200050c0:	2b00      	cmp	r3, #0
200050c2:	d1ef      	bne.n	200050a4 <tud_init+0x6c>
200050c4:	f04f 23e0 	mov.w	r3, #3758153728	@ 0xe000e000
200050c8:	f8d3 3df0 	ldr.w	r3, [r3, #3568]	@ 0xdf0
200050cc:	07db      	lsls	r3, r3, #31
200050ce:	d500      	bpl.n	200050d2 <tud_init+0x9a>
200050d0:	be00      	bkpt	0x0000
200050d2:	2000      	movs	r0, #0
200050d4:	e7b7      	b.n	20005046 <tud_init+0xe>
200050d6:	4648      	mov	r0, r9
200050d8:	f886 9000 	strb.w	r9, [r6]
200050dc:	f7ff fdd4 	bl	20004c88 <dcd_init>
200050e0:	4648      	mov	r0, r9
200050e2:	f7ff fe1b 	bl	20004d1c <dcd_int_enable>
200050e6:	e7ad      	b.n	20005044 <tud_init+0xc>
200050e8:	20008cf0 	.word	0x20008cf0
200050ec:	2000927c 	.word	0x2000927c
200050f0:	20009234 	.word	0x20009234
200050f4:	20019b67 	.word	0x20019b67
200050f8:	200092d0 	.word	0x200092d0
200050fc:	20008ce8 	.word	0x20008ce8
20005100:	20008cd4 	.word	0x20008cd4
20005104:	200092d4 	.word	0x200092d4
20005108:	200045e5 	.word	0x200045e5
2000510c:	20019b65 	.word	0x20019b65
20005110:	200091f8 	.word	0x200091f8
20005114:	200089c4 	.word	0x200089c4

20005118 <tud_task_ext>:
20005118:	4bab      	ldr	r3, [pc, #684]	@ (200053c8 <tud_task_ext+0x2b0>)
2000511a:	781b      	ldrb	r3, [r3, #0]
2000511c:	2bff      	cmp	r3, #255	@ 0xff
2000511e:	f000 8119 	beq.w	20005354 <tud_task_ext+0x23c>
20005122:	e92d 4ff0 	stmdb	sp!, {r4, r5, r6, r7, r8, r9, sl, fp, lr}
20005126:	4ca9      	ldr	r4, [pc, #676]	@ (200053cc <tud_task_ext+0x2b4>)
20005128:	4da9      	ldr	r5, [pc, #676]	@ (200053d0 <tud_task_ext+0x2b8>)
2000512a:	f8df 82b8 	ldr.w	r8, [pc, #696]	@ 200053e4 <tud_task_ext+0x2cc>
2000512e:	4fa9      	ldr	r7, [pc, #676]	@ (200053d4 <tud_task_ext+0x2bc>)
20005130:	b08b      	sub	sp, #44	@ 0x2c
20005132:	6826      	ldr	r6, [r4, #0]
20005134:	6973      	ldr	r3, [r6, #20]
20005136:	f3ef 8210 	mrs	r2, PRIMASK
2000513a:	b672      	cpsid	i
2000513c:	e8d3 0fcf 	ldaexb	r0, [r3]
20005140:	2101      	movs	r1, #1
20005142:	2800      	cmp	r0, #0
20005144:	d1fa      	bne.n	2000513c <tud_task_ext+0x24>
20005146:	e8c3 1f40 	strexb	r0, r1, [r3]
2000514a:	2800      	cmp	r0, #0
2000514c:	d1f6      	bne.n	2000513c <tud_task_ext+0x24>
2000514e:	f3bf 8f5f 	dmb	sy
20005152:	61b2      	str	r2, [r6, #24]
20005154:	4630      	mov	r0, r6
20005156:	a907      	add	r1, sp, #28
20005158:	f001 fbac 	bl	200068b4 <tu_fifo_read>
2000515c:	2300      	movs	r3, #0
2000515e:	6972      	ldr	r2, [r6, #20]
20005160:	e8c2 3f8f 	stlb	r3, [r2]
20005164:	69b3      	ldr	r3, [r6, #24]
20005166:	f383 8810 	msr	PRIMASK, r3
2000516a:	2800      	cmp	r0, #0
2000516c:	f000 80ca 	beq.w	20005304 <tud_task_ext+0x1ec>
20005170:	f89d 301d 	ldrb.w	r3, [sp, #29]
20005174:	3b01      	subs	r3, #1
20005176:	2b07      	cmp	r3, #7
20005178:	f200 839b 	bhi.w	200058b2 <tud_task_ext+0x79a>
2000517c:	e8df f003 	tbb	[pc, r3]
20005180:	9b93afa5 	.word	0x9b93afa5
20005184:	040a358c 	.word	0x040a358c
20005188:	9b08      	ldr	r3, [sp, #32]
2000518a:	2b00      	cmp	r3, #0
2000518c:	d0d1      	beq.n	20005132 <tud_task_ext+0x1a>
2000518e:	9809      	ldr	r0, [sp, #36]	@ 0x24
20005190:	4798      	blx	r3
20005192:	e7ce      	b.n	20005132 <tud_task_ext+0x1a>
20005194:	f89d 1020 	ldrb.w	r1, [sp, #32]
20005198:	f001 067f 	and.w	r6, r1, #127	@ 0x7f
2000519c:	eb05 0046 	add.w	r0, r5, r6, lsl #1
200051a0:	eb00 10d1 	add.w	r0, r0, r1, lsr #7
200051a4:	f890 3034 	ldrb.w	r3, [r0, #52]	@ 0x34
200051a8:	f023 0301 	bic.w	r3, r3, #1
200051ac:	f880 3034 	strb.w	r3, [r0, #52]	@ 0x34
200051b0:	f890 3034 	ldrb.w	r3, [r0, #52]	@ 0x34
200051b4:	f023 0304 	bic.w	r3, r3, #4
200051b8:	f880 3034 	strb.w	r3, [r0, #52]	@ 0x34
200051bc:	2e00      	cmp	r6, #0
200051be:	f000 80a4 	beq.w	2000530a <tud_task_ext+0x1f2>
200051c2:	7d03      	ldrb	r3, [r0, #20]
200051c4:	f898 2000 	ldrb.w	r2, [r8]
200051c8:	4293      	cmp	r3, r2
200051ca:	f080 8091 	bcs.w	200052f0 <tud_task_ext+0x1d8>
200051ce:	4a82      	ldr	r2, [pc, #520]	@ (200053d8 <tud_task_ext+0x2c0>)
200051d0:	6812      	ldr	r2, [r2, #0]
200051d2:	eb12 1343 	adds.w	r3, r2, r3, lsl #5
200051d6:	f000 808e 	beq.w	200052f6 <tud_task_ext+0x1de>
200051da:	699e      	ldr	r6, [r3, #24]
200051dc:	f89d 2021 	ldrb.w	r2, [sp, #33]	@ 0x21
200051e0:	9b09      	ldr	r3, [sp, #36]	@ 0x24
200051e2:	f89d 001c 	ldrb.w	r0, [sp, #28]
200051e6:	47b0      	blx	r6
200051e8:	e7a3      	b.n	20005132 <tud_task_ext+0x1a>
200051ea:	783b      	ldrb	r3, [r7, #0]
200051ec:	2b00      	cmp	r3, #0
200051ee:	f000 8082 	beq.w	200052f6 <tud_task_ext+0x1de>
200051f2:	783b      	ldrb	r3, [r7, #0]
200051f4:	3b01      	subs	r3, #1
200051f6:	703b      	strb	r3, [r7, #0]
200051f8:	783b      	ldrb	r3, [r7, #0]
200051fa:	f003 00ff 	and.w	r0, r3, #255	@ 0xff
200051fe:	2b00      	cmp	r3, #0
20005200:	d197      	bne.n	20005132 <tud_task_ext+0x1a>
20005202:	f8df a1cc 	ldr.w	sl, [pc, #460]	@ 200053d0 <tud_task_ext+0x2b8>
20005206:	f89d b01c 	ldrb.w	fp, [sp, #28]
2000520a:	f89a 3000 	ldrb.w	r3, [sl]
2000520e:	f043 0301 	orr.w	r3, r3, #1
20005212:	f88a 3000 	strb.w	r3, [sl]
20005216:	f89a 3034 	ldrb.w	r3, [sl, #52]	@ 0x34
2000521a:	f360 0300 	bfi	r3, r0, #0, #1
2000521e:	f88a 3034 	strb.w	r3, [sl, #52]	@ 0x34
20005222:	f89a 3034 	ldrb.w	r3, [sl, #52]	@ 0x34
20005226:	f360 0382 	bfi	r3, r0, #2, #1
2000522a:	f88a 3034 	strb.w	r3, [sl, #52]	@ 0x34
2000522e:	f89a 3035 	ldrb.w	r3, [sl, #53]	@ 0x35
20005232:	f360 0300 	bfi	r3, r0, #0, #1
20005236:	f88a 3035 	strb.w	r3, [sl, #53]	@ 0x35
2000523a:	f89a 3035 	ldrb.w	r3, [sl, #53]	@ 0x35
2000523e:	f360 0382 	bfi	r3, r0, #2, #1
20005242:	f88a 3035 	strb.w	r3, [sl, #53]	@ 0x35
20005246:	f000 fc9f 	bl	20005b88 <usbd_control_set_complete_callback>
2000524a:	f89d 3020 	ldrb.w	r3, [sp, #32]
2000524e:	f003 0260 	and.w	r2, r3, #96	@ 0x60
20005252:	2a60      	cmp	r2, #96	@ 0x60
20005254:	d06c      	beq.n	20005330 <tud_task_ext+0x218>
20005256:	2a40      	cmp	r2, #64	@ 0x40
20005258:	d07d      	beq.n	20005356 <tud_task_ext+0x23e>
2000525a:	f003 031f 	and.w	r3, r3, #31
2000525e:	2b01      	cmp	r3, #1
20005260:	f000 80c2 	beq.w	200053e8 <tud_task_ext+0x2d0>
20005264:	2b02      	cmp	r3, #2
20005266:	f000 8082 	beq.w	2000536e <tud_task_ext+0x256>
2000526a:	2b00      	cmp	r3, #0
2000526c:	d160      	bne.n	20005330 <tud_task_ext+0x218>
2000526e:	2a20      	cmp	r2, #32
20005270:	f000 81f9 	beq.w	20005666 <tud_task_ext+0x54e>
20005274:	2a00      	cmp	r2, #0
20005276:	d15b      	bne.n	20005330 <tud_task_ext+0x218>
20005278:	f89d 3021 	ldrb.w	r3, [sp, #33]	@ 0x21
2000527c:	2b09      	cmp	r3, #9
2000527e:	d857      	bhi.n	20005330 <tud_task_ext+0x218>
20005280:	e8df f013 	tbh	[pc, r3, lsl #1]
20005284:	01ad01bd 	.word	0x01ad01bd
20005288:	01cf0056 	.word	0x01cf0056
2000528c:	019e0056 	.word	0x019e0056
20005290:	00560175 	.word	0x00560175
20005294:	00f80169 	.word	0x00f80169
20005298:	782b      	ldrb	r3, [r5, #0]
2000529a:	07d9      	lsls	r1, r3, #31
2000529c:	f57f af49 	bpl.w	20005132 <tud_task_ext+0x1a>
200052a0:	f7ff feb8 	bl	20005014 <tud_resume_cb>
200052a4:	e745      	b.n	20005132 <tud_task_ext+0x1a>
200052a6:	78eb      	ldrb	r3, [r5, #3]
200052a8:	07da      	lsls	r2, r3, #31
200052aa:	f57f af42 	bpl.w	20005132 <tud_task_ext+0x1a>
200052ae:	9808      	ldr	r0, [sp, #32]
200052b0:	f7ff fea4 	bl	20004ffc <tud_sof_cb>
200052b4:	e73d      	b.n	20005132 <tud_task_ext+0x1a>
200052b6:	782b      	ldrb	r3, [r5, #0]
200052b8:	07d8      	lsls	r0, r3, #31
200052ba:	f57f af3a 	bpl.w	20005132 <tud_task_ext+0x1a>
200052be:	7828      	ldrb	r0, [r5, #0]
200052c0:	f3c0 00c0 	ubfx	r0, r0, #3, #1
200052c4:	f7ff fea4 	bl	20005010 <tud_suspend_cb>
200052c8:	e733      	b.n	20005132 <tud_task_ext+0x1a>
200052ca:	f89d 001c 	ldrb.w	r0, [sp, #28]
200052ce:	f7ff fe4d 	bl	20004f6c <configuration_reset>
200052d2:	f000 fc4f 	bl	20005b74 <usbd_control_reset>
200052d6:	f89d 3020 	ldrb.w	r3, [sp, #32]
200052da:	70ab      	strb	r3, [r5, #2]
200052dc:	e729      	b.n	20005132 <tud_task_ext+0x1a>
200052de:	f89d 001c 	ldrb.w	r0, [sp, #28]
200052e2:	f7ff fe43 	bl	20004f6c <configuration_reset>
200052e6:	f000 fc45 	bl	20005b74 <usbd_control_reset>
200052ea:	f7ff fe8f 	bl	2000500c <tud_umount_cb>
200052ee:	e720      	b.n	20005132 <tud_task_ext+0x1a>
200052f0:	1c50      	adds	r0, r2, #1
200052f2:	4298      	cmp	r0, r3
200052f4:	da11      	bge.n	2000531a <tud_task_ext+0x202>
200052f6:	f04f 23e0 	mov.w	r3, #3758153728	@ 0xe000e000
200052fa:	f8d3 3df0 	ldr.w	r3, [r3, #3568]	@ 0xdf0
200052fe:	07dc      	lsls	r4, r3, #31
20005300:	d500      	bpl.n	20005304 <tud_task_ext+0x1ec>
20005302:	be00      	bkpt	0x0000
20005304:	b00b      	add	sp, #44	@ 0x2c
20005306:	e8bd 8ff0 	ldmia.w	sp!, {r4, r5, r6, r7, r8, r9, sl, fp, pc}
2000530a:	9b09      	ldr	r3, [sp, #36]	@ 0x24
2000530c:	f89d 2021 	ldrb.w	r2, [sp, #33]	@ 0x21
20005310:	f89d 001c 	ldrb.w	r0, [sp, #28]
20005314:	f000 fc4c 	bl	20005bb0 <usbd_control_xfer_cb>
20005318:	e70b      	b.n	20005132 <tud_task_ext+0x1a>
2000531a:	1a9b      	subs	r3, r3, r2
2000531c:	4a2f      	ldr	r2, [pc, #188]	@ (200053dc <tud_task_ext+0x2c4>)
2000531e:	eb02 1343 	add.w	r3, r2, r3, lsl #5
20005322:	e75a      	b.n	200051da <tud_task_ext+0xc2>
20005324:	f7ff fb8e 	bl	20004a44 <tud_descriptor_configuration_cb>
20005328:	4602      	mov	r2, r0
2000532a:	2800      	cmp	r0, #0
2000532c:	f040 8192 	bne.w	20005654 <tud_task_ext+0x53c>
20005330:	f04f 23e0 	mov.w	r3, #3758153728	@ 0xe000e000
20005334:	f8d3 3df0 	ldr.w	r3, [r3, #3568]	@ 0xdf0
20005338:	07de      	lsls	r6, r3, #31
2000533a:	d500      	bpl.n	2000533e <tud_task_ext+0x226>
2000533c:	be00      	bkpt	0x0000
2000533e:	f89d 001c 	ldrb.w	r0, [sp, #28]
20005342:	2100      	movs	r1, #0
20005344:	f7ff fda8 	bl	20004e98 <dcd_edpt_stall>
20005348:	2180      	movs	r1, #128	@ 0x80
2000534a:	f89d 001c 	ldrb.w	r0, [sp, #28]
2000534e:	f7ff fda3 	bl	20004e98 <dcd_edpt_stall>
20005352:	e6ee      	b.n	20005132 <tud_task_ext+0x1a>
20005354:	4770      	bx	lr
20005356:	4822      	ldr	r0, [pc, #136]	@ (200053e0 <tud_task_ext+0x2c8>)
20005358:	f000 fc16 	bl	20005b88 <usbd_control_set_complete_callback>
2000535c:	2101      	movs	r1, #1
2000535e:	4658      	mov	r0, fp
20005360:	aa08      	add	r2, sp, #32
20005362:	f7ff f92b 	bl	200045bc <tud_vendor_control_xfer_cb>
20005366:	2800      	cmp	r0, #0
20005368:	f47f aee3 	bne.w	20005132 <tud_task_ext+0x1a>
2000536c:	e7e7      	b.n	2000533e <tud_task_ext+0x226>
2000536e:	f89d 1024 	ldrb.w	r1, [sp, #36]	@ 0x24
20005372:	f011 0f70 	tst.w	r1, #112	@ 0x70
20005376:	d1db      	bne.n	20005330 <tud_task_ext+0x218>
20005378:	481a      	ldr	r0, [pc, #104]	@ (200053e4 <tud_task_ext+0x2cc>)
2000537a:	f001 037f 	and.w	r3, r1, #127	@ 0x7f
2000537e:	f890 c000 	ldrb.w	ip, [r0]
20005382:	eb0a 0043 	add.w	r0, sl, r3, lsl #1
20005386:	eb00 10d1 	add.w	r0, r0, r1, lsr #7
2000538a:	7d00      	ldrb	r0, [r0, #20]
2000538c:	4560      	cmp	r0, ip
2000538e:	d35d      	bcc.n	2000544c <tud_task_ext+0x334>
20005390:	f10c 0e01 	add.w	lr, ip, #1
20005394:	4586      	cmp	lr, r0
20005396:	f2c0 8178 	blt.w	2000568a <tud_task_ext+0x572>
2000539a:	eba0 000c 	sub.w	r0, r0, ip
2000539e:	f8df c03c 	ldr.w	ip, [pc, #60]	@ 200053dc <tud_task_ext+0x2c4>
200053a2:	eb0c 1040 	add.w	r0, ip, r0, lsl #5
200053a6:	9000      	str	r0, [sp, #0]
200053a8:	2a00      	cmp	r2, #0
200053aa:	f000 8172 	beq.w	20005692 <tud_task_ext+0x57a>
200053ae:	9e00      	ldr	r6, [sp, #0]
200053b0:	6970      	ldr	r0, [r6, #20]
200053b2:	f000 fbe9 	bl	20005b88 <usbd_control_set_complete_callback>
200053b6:	2101      	movs	r1, #1
200053b8:	4658      	mov	r0, fp
200053ba:	6973      	ldr	r3, [r6, #20]
200053bc:	aa08      	add	r2, sp, #32
200053be:	4798      	blx	r3
200053c0:	2800      	cmp	r0, #0
200053c2:	f47f aeb6 	bne.w	20005132 <tud_task_ext+0x1a>
200053c6:	e7ba      	b.n	2000533e <tud_task_ext+0x226>
200053c8:	20008cf0 	.word	0x20008cf0
200053cc:	200092d4 	.word	0x200092d4
200053d0:	2000927c 	.word	0x2000927c
200053d4:	20019b67 	.word	0x20019b67
200053d8:	200091f8 	.word	0x200091f8
200053dc:	200089c4 	.word	0x200089c4
200053e0:	200045bd 	.word	0x200045bd
200053e4:	20019b65 	.word	0x20019b65
200053e8:	f89d 3024 	ldrb.w	r3, [sp, #36]	@ 0x24
200053ec:	2b0f      	cmp	r3, #15
200053ee:	d8a6      	bhi.n	2000533e <tud_task_ext+0x226>
200053f0:	4ab6      	ldr	r2, [pc, #728]	@ (200056cc <tud_task_ext+0x5b4>)
200053f2:	4453      	add	r3, sl
200053f4:	791b      	ldrb	r3, [r3, #4]
200053f6:	7812      	ldrb	r2, [r2, #0]
200053f8:	4293      	cmp	r3, r2
200053fa:	d335      	bcc.n	20005468 <tud_task_ext+0x350>
200053fc:	1c51      	adds	r1, r2, #1
200053fe:	4299      	cmp	r1, r3
20005400:	db9d      	blt.n	2000533e <tud_task_ext+0x226>
20005402:	4eb3      	ldr	r6, [pc, #716]	@ (200056d0 <tud_task_ext+0x5b8>)
20005404:	1a9b      	subs	r3, r3, r2
20005406:	eb06 1643 	add.w	r6, r6, r3, lsl #5
2000540a:	6970      	ldr	r0, [r6, #20]
2000540c:	f000 fbbc 	bl	20005b88 <usbd_control_set_complete_callback>
20005410:	2101      	movs	r1, #1
20005412:	4658      	mov	r0, fp
20005414:	6973      	ldr	r3, [r6, #20]
20005416:	aa08      	add	r2, sp, #32
20005418:	4798      	blx	r3
2000541a:	2800      	cmp	r0, #0
2000541c:	f47f ae89 	bne.w	20005132 <tud_task_ext+0x1a>
20005420:	f89d 3020 	ldrb.w	r3, [sp, #32]
20005424:	f013 0660 	ands.w	r6, r3, #96	@ 0x60
20005428:	d189      	bne.n	2000533e <tud_task_ext+0x226>
2000542a:	f89d 3021 	ldrb.w	r3, [sp, #33]	@ 0x21
2000542e:	3b0a      	subs	r3, #10
20005430:	2b01      	cmp	r3, #1
20005432:	d884      	bhi.n	2000533e <tud_task_ext+0x226>
20005434:	f000 fba8 	bl	20005b88 <usbd_control_set_complete_callback>
20005438:	f89d 3021 	ldrb.w	r3, [sp, #33]	@ 0x21
2000543c:	2b0a      	cmp	r3, #10
2000543e:	f000 8211 	beq.w	20005864 <tud_task_ext+0x74c>
20005442:	4658      	mov	r0, fp
20005444:	a908      	add	r1, sp, #32
20005446:	f000 fb1f 	bl	20005a88 <tud_control_status>
2000544a:	e672      	b.n	20005132 <tud_task_ext+0x1a>
2000544c:	f8df c284 	ldr.w	ip, [pc, #644]	@ 200056d4 <tud_task_ext+0x5bc>
20005450:	f8dc c000 	ldr.w	ip, [ip]
20005454:	eb0c 1040 	add.w	r0, ip, r0, lsl #5
20005458:	9000      	str	r0, [sp, #0]
2000545a:	2a00      	cmp	r2, #0
2000545c:	f000 8119 	beq.w	20005692 <tud_task_ext+0x57a>
20005460:	2800      	cmp	r0, #0
20005462:	f43f af6c 	beq.w	2000533e <tud_task_ext+0x226>
20005466:	e7a2      	b.n	200053ae <tud_task_ext+0x296>
20005468:	4a9a      	ldr	r2, [pc, #616]	@ (200056d4 <tud_task_ext+0x5bc>)
2000546a:	6816      	ldr	r6, [r2, #0]
2000546c:	eb16 1643 	adds.w	r6, r6, r3, lsl #5
20005470:	d1cb      	bne.n	2000540a <tud_task_ext+0x2f2>
20005472:	e764      	b.n	2000533e <tud_task_ext+0x226>
20005474:	f89a 2001 	ldrb.w	r2, [sl, #1]
20005478:	f89d 3022 	ldrb.w	r3, [sp, #34]	@ 0x22
2000547c:	4293      	cmp	r3, r2
2000547e:	f000 8162 	beq.w	20005746 <tud_task_ext+0x62e>
20005482:	f89a 2001 	ldrb.w	r2, [sl, #1]
20005486:	2a00      	cmp	r2, #0
20005488:	f040 81d6 	bne.w	20005838 <tud_task_ext+0x720>
2000548c:	f88a 3001 	strb.w	r3, [sl, #1]
20005490:	2b00      	cmp	r3, #0
20005492:	f000 8156 	beq.w	20005742 <tud_task_ext+0x62a>
20005496:	3b01      	subs	r3, #1
20005498:	b2d8      	uxtb	r0, r3
2000549a:	f7ff fad3 	bl	20004a44 <tud_descriptor_configuration_cb>
2000549e:	2800      	cmp	r0, #0
200054a0:	f000 8172 	beq.w	20005788 <tud_task_ext+0x670>
200054a4:	7843      	ldrb	r3, [r0, #1]
200054a6:	2b02      	cmp	r3, #2
200054a8:	f040 816e 	bne.w	20005788 <tud_task_ext+0x670>
200054ac:	79c2      	ldrb	r2, [r0, #7]
200054ae:	f89a 1000 	ldrb.w	r1, [sl]
200054b2:	f3c2 1340 	ubfx	r3, r2, #5, #1
200054b6:	011b      	lsls	r3, r3, #4
200054b8:	f3c2 1280 	ubfx	r2, r2, #6, #1
200054bc:	f021 0130 	bic.w	r1, r1, #48	@ 0x30
200054c0:	ea43 1342 	orr.w	r3, r3, r2, lsl #5
200054c4:	430b      	orrs	r3, r1
200054c6:	f88a 3000 	strb.w	r3, [sl]
200054ca:	8843      	ldrh	r3, [r0, #2]
200054cc:	f100 0109 	add.w	r1, r0, #9
200054d0:	18c3      	adds	r3, r0, r3
200054d2:	9302      	str	r3, [sp, #8]
200054d4:	9b02      	ldr	r3, [sp, #8]
200054d6:	428b      	cmp	r3, r1
200054d8:	f240 81c1 	bls.w	2000585e <tud_task_ext+0x746>
200054dc:	784b      	ldrb	r3, [r1, #1]
200054de:	2b0b      	cmp	r3, #11
200054e0:	f000 81ca 	beq.w	20005878 <tud_task_ext+0x760>
200054e4:	2001      	movs	r0, #1
200054e6:	2b04      	cmp	r3, #4
200054e8:	f040 814e 	bne.w	20005788 <tud_task_ext+0x670>
200054ec:	2200      	movs	r2, #0
200054ee:	9b02      	ldr	r3, [sp, #8]
200054f0:	9200      	str	r2, [sp, #0]
200054f2:	1a5b      	subs	r3, r3, r1
200054f4:	fa1f f983 	uxth.w	r9, r3
200054f8:	4b74      	ldr	r3, [pc, #464]	@ (200056cc <tud_task_ext+0x5b4>)
200054fa:	9201      	str	r2, [sp, #4]
200054fc:	781b      	ldrb	r3, [r3, #0]
200054fe:	9003      	str	r0, [sp, #12]
20005500:	e01f      	b.n	20005542 <tud_task_ext+0x42a>
20005502:	4b74      	ldr	r3, [pc, #464]	@ (200056d4 <tud_task_ext+0x5bc>)
20005504:	681b      	ldr	r3, [r3, #0]
20005506:	eb13 1342 	adds.w	r3, r3, r2, lsl #5
2000550a:	f000 813d 	beq.w	20005788 <tud_task_ext+0x670>
2000550e:	464a      	mov	r2, r9
20005510:	691e      	ldr	r6, [r3, #16]
20005512:	4658      	mov	r0, fp
20005514:	9105      	str	r1, [sp, #20]
20005516:	9304      	str	r3, [sp, #16]
20005518:	47b0      	blx	r6
2000551a:	4602      	mov	r2, r0
2000551c:	9b00      	ldr	r3, [sp, #0]
2000551e:	2a08      	cmp	r2, #8
20005520:	9905      	ldr	r1, [sp, #20]
20005522:	f103 0001 	add.w	r0, r3, #1
20005526:	d903      	bls.n	20005530 <tud_task_ext+0x418>
20005528:	4591      	cmp	r9, r2
2000552a:	9b04      	ldr	r3, [sp, #16]
2000552c:	f080 8110 	bcs.w	20005750 <tud_task_ext+0x638>
20005530:	4b66      	ldr	r3, [pc, #408]	@ (200056cc <tud_task_ext+0x5b4>)
20005532:	b2c0      	uxtb	r0, r0
20005534:	781b      	ldrb	r3, [r3, #0]
20005536:	9000      	str	r0, [sp, #0]
20005538:	1c5a      	adds	r2, r3, #1
2000553a:	4290      	cmp	r0, r2
2000553c:	9001      	str	r0, [sp, #4]
2000553e:	f300 8123 	bgt.w	20005788 <tud_task_ext+0x670>
20005542:	9a00      	ldr	r2, [sp, #0]
20005544:	9801      	ldr	r0, [sp, #4]
20005546:	4293      	cmp	r3, r2
20005548:	eba0 0303 	sub.w	r3, r0, r3
2000554c:	d8d9      	bhi.n	20005502 <tud_task_ext+0x3ea>
2000554e:	4a60      	ldr	r2, [pc, #384]	@ (200056d0 <tud_task_ext+0x5b8>)
20005550:	eb02 1343 	add.w	r3, r2, r3, lsl #5
20005554:	e7db      	b.n	2000550e <tud_task_ext+0x3f6>
20005556:	f89a 3001 	ldrb.w	r3, [sl, #1]
2000555a:	4658      	mov	r0, fp
2000555c:	f88d 301a 	strb.w	r3, [sp, #26]
20005560:	f10d 021a 	add.w	r2, sp, #26
20005564:	2301      	movs	r3, #1
20005566:	a908      	add	r1, sp, #32
20005568:	f000 faaa 	bl	20005ac0 <tud_control_xfer>
2000556c:	e5e1      	b.n	20005132 <tud_task_ext+0x1a>
2000556e:	f8bd 0022 	ldrh.w	r0, [sp, #34]	@ 0x22
20005572:	0a03      	lsrs	r3, r0, #8
20005574:	1e5a      	subs	r2, r3, #1
20005576:	b2c0      	uxtb	r0, r0
20005578:	2a0e      	cmp	r2, #14
2000557a:	f63f aee0 	bhi.w	2000533e <tud_task_ext+0x226>
2000557e:	a101      	add	r1, pc, #4	@ (adr r1, 20005584 <tud_task_ext+0x46c>)
20005580:	f851 f022 	ldr.w	pc, [r1, r2, lsl #2]
20005584:	200057bb 	.word	0x200057bb
20005588:	20005643 	.word	0x20005643
2000558c:	200057f7 	.word	0x200057f7
20005590:	2000533f 	.word	0x2000533f
20005594:	2000533f 	.word	0x2000533f
20005598:	200057d9 	.word	0x200057d9
2000559c:	20005643 	.word	0x20005643
200055a0:	2000533f 	.word	0x2000533f
200055a4:	2000533f 	.word	0x2000533f
200055a8:	2000533f 	.word	0x2000533f
200055ac:	2000533f 	.word	0x2000533f
200055b0:	2000533f 	.word	0x2000533f
200055b4:	2000533f 	.word	0x2000533f
200055b8:	2000533f 	.word	0x2000533f
200055bc:	200057ad 	.word	0x200057ad
200055c0:	a808      	add	r0, sp, #32
200055c2:	f000 fae7 	bl	20005b94 <usbd_control_set_request>
200055c6:	4658      	mov	r0, fp
200055c8:	f89d 1022 	ldrb.w	r1, [sp, #34]	@ 0x22
200055cc:	f7ff fbaa 	bl	20004d24 <dcd_set_address>
200055d0:	f89a 3000 	ldrb.w	r3, [sl]
200055d4:	f043 0302 	orr.w	r3, r3, #2
200055d8:	f88a 3000 	strb.w	r3, [sl]
200055dc:	e5a9      	b.n	20005132 <tud_task_ext+0x1a>
200055de:	f8bd 3022 	ldrh.w	r3, [sp, #34]	@ 0x22
200055e2:	2b01      	cmp	r3, #1
200055e4:	f47f aeab 	bne.w	2000533e <tud_task_ext+0x226>
200055e8:	f89a 3000 	ldrb.w	r3, [sl]
200055ec:	4658      	mov	r0, fp
200055ee:	f023 0308 	bic.w	r3, r3, #8
200055f2:	a908      	add	r1, sp, #32
200055f4:	f88a 3000 	strb.w	r3, [sl]
200055f8:	f000 fa46 	bl	20005a88 <tud_control_status>
200055fc:	e599      	b.n	20005132 <tud_task_ext+0x1a>
200055fe:	4658      	mov	r0, fp
20005600:	f89a 3000 	ldrb.w	r3, [sl]
20005604:	089a      	lsrs	r2, r3, #2
20005606:	f002 0202 	and.w	r2, r2, #2
2000560a:	f3c3 1340 	ubfx	r3, r3, #5, #1
2000560e:	4313      	orrs	r3, r2
20005610:	f8ad 301a 	strh.w	r3, [sp, #26]
20005614:	f10d 021a 	add.w	r2, sp, #26
20005618:	2302      	movs	r3, #2
2000561a:	a908      	add	r1, sp, #32
2000561c:	f000 fa50 	bl	20005ac0 <tud_control_xfer>
20005620:	e587      	b.n	20005132 <tud_task_ext+0x1a>
20005622:	f8bd 3022 	ldrh.w	r3, [sp, #34]	@ 0x22
20005626:	2b01      	cmp	r3, #1
20005628:	f47f ae89 	bne.w	2000533e <tud_task_ext+0x226>
2000562c:	f89a 3000 	ldrb.w	r3, [sl]
20005630:	4658      	mov	r0, fp
20005632:	f043 0308 	orr.w	r3, r3, #8
20005636:	a908      	add	r1, sp, #32
20005638:	f88a 3000 	strb.w	r3, [sl]
2000563c:	f000 fa24 	bl	20005a88 <tud_control_status>
20005640:	e577      	b.n	20005132 <tud_task_ext+0x1a>
20005642:	2b02      	cmp	r3, #2
20005644:	f43f ae6e 	beq.w	20005324 <tud_task_ext+0x20c>
20005648:	f7ff fcdc 	bl	20005004 <tud_descriptor_other_speed_configuration_cb>
2000564c:	4602      	mov	r2, r0
2000564e:	2800      	cmp	r0, #0
20005650:	f43f ae75 	beq.w	2000533e <tud_task_ext+0x226>
20005654:	4658      	mov	r0, fp
20005656:	8853      	ldrh	r3, [r2, #2]
20005658:	a908      	add	r1, sp, #32
2000565a:	f000 fa31 	bl	20005ac0 <tud_control_xfer>
2000565e:	2800      	cmp	r0, #0
20005660:	f47f ad67 	bne.w	20005132 <tud_task_ext+0x1a>
20005664:	e66b      	b.n	2000533e <tud_task_ext+0x226>
20005666:	f89d 3024 	ldrb.w	r3, [sp, #36]	@ 0x24
2000566a:	2b0f      	cmp	r3, #15
2000566c:	f63f ae67 	bhi.w	2000533e <tud_task_ext+0x226>
20005670:	4a16      	ldr	r2, [pc, #88]	@ (200056cc <tud_task_ext+0x5b4>)
20005672:	4453      	add	r3, sl
20005674:	791b      	ldrb	r3, [r3, #4]
20005676:	7812      	ldrb	r2, [r2, #0]
20005678:	4293      	cmp	r3, r2
2000567a:	d21e      	bcs.n	200056ba <tud_task_ext+0x5a2>
2000567c:	4a15      	ldr	r2, [pc, #84]	@ (200056d4 <tud_task_ext+0x5bc>)
2000567e:	6816      	ldr	r6, [r2, #0]
20005680:	eb16 1643 	adds.w	r6, r6, r3, lsl #5
20005684:	f47f ae94 	bne.w	200053b0 <tud_task_ext+0x298>
20005688:	e659      	b.n	2000533e <tud_task_ext+0x226>
2000568a:	2a00      	cmp	r2, #0
2000568c:	f47f ae57 	bne.w	2000533e <tud_task_ext+0x226>
20005690:	9200      	str	r2, [sp, #0]
20005692:	f89d c021 	ldrb.w	ip, [sp, #33]	@ 0x21
20005696:	f00c 02fd 	and.w	r2, ip, #253	@ 0xfd
2000569a:	2a01      	cmp	r2, #1
2000569c:	d01c      	beq.n	200056d8 <tud_task_ext+0x5c0>
2000569e:	f1bc 0f00 	cmp.w	ip, #0
200056a2:	f47f ae45 	bne.w	20005330 <tud_task_ext+0x218>
200056a6:	eb0a 0343 	add.w	r3, sl, r3, lsl #1
200056aa:	eb03 13d1 	add.w	r3, r3, r1, lsr #7
200056ae:	f893 3034 	ldrb.w	r3, [r3, #52]	@ 0x34
200056b2:	4658      	mov	r0, fp
200056b4:	f3c3 0340 	ubfx	r3, r3, #1, #1
200056b8:	e7aa      	b.n	20005610 <tud_task_ext+0x4f8>
200056ba:	1c51      	adds	r1, r2, #1
200056bc:	4299      	cmp	r1, r3
200056be:	f6ff ae3e 	blt.w	2000533e <tud_task_ext+0x226>
200056c2:	4e03      	ldr	r6, [pc, #12]	@ (200056d0 <tud_task_ext+0x5b8>)
200056c4:	1a9b      	subs	r3, r3, r2
200056c6:	eb06 1643 	add.w	r6, r6, r3, lsl #5
200056ca:	e671      	b.n	200053b0 <tud_task_ext+0x298>
200056cc:	20019b65 	.word	0x20019b65
200056d0:	200089c4 	.word	0x200089c4
200056d4:	200091f8 	.word	0x200091f8
200056d8:	f8bd 2022 	ldrh.w	r2, [sp, #34]	@ 0x22
200056dc:	b9da      	cbnz	r2, 20005716 <tud_task_ext+0x5fe>
200056de:	4879      	ldr	r0, [pc, #484]	@ (200058c4 <tud_task_ext+0x7ac>)
200056e0:	f1bc 0f01 	cmp.w	ip, #1
200056e4:	7800      	ldrb	r0, [r0, #0]
200056e6:	f000 808e 	beq.w	20005806 <tud_task_ext+0x6ee>
200056ea:	e9cd 1301 	strd	r1, r3, [sp, #4]
200056ee:	f7ff fbd3 	bl	20004e98 <dcd_edpt_stall>
200056f2:	9b02      	ldr	r3, [sp, #8]
200056f4:	9901      	ldr	r1, [sp, #4]
200056f6:	eb0a 0343 	add.w	r3, sl, r3, lsl #1
200056fa:	eb03 13d1 	add.w	r3, r3, r1, lsr #7
200056fe:	f893 2034 	ldrb.w	r2, [r3, #52]	@ 0x34
20005702:	f042 0202 	orr.w	r2, r2, #2
20005706:	f883 2034 	strb.w	r2, [r3, #52]	@ 0x34
2000570a:	f893 2034 	ldrb.w	r2, [r3, #52]	@ 0x34
2000570e:	f042 0201 	orr.w	r2, r2, #1
20005712:	f883 2034 	strb.w	r2, [r3, #52]	@ 0x34
20005716:	9b00      	ldr	r3, [sp, #0]
20005718:	2b00      	cmp	r3, #0
2000571a:	f43f ad0a 	beq.w	20005132 <tud_task_ext+0x1a>
2000571e:	461e      	mov	r6, r3
20005720:	6958      	ldr	r0, [r3, #20]
20005722:	f000 fa31 	bl	20005b88 <usbd_control_set_complete_callback>
20005726:	6973      	ldr	r3, [r6, #20]
20005728:	2101      	movs	r1, #1
2000572a:	aa08      	add	r2, sp, #32
2000572c:	4658      	mov	r0, fp
2000572e:	4798      	blx	r3
20005730:	2000      	movs	r0, #0
20005732:	f000 fa29 	bl	20005b88 <usbd_control_set_complete_callback>
20005736:	f89a 3035 	ldrb.w	r3, [sl, #53]	@ 0x35
2000573a:	07db      	lsls	r3, r3, #31
2000573c:	f53f acf9 	bmi.w	20005132 <tud_task_ext+0x1a>
20005740:	e67f      	b.n	20005442 <tud_task_ext+0x32a>
20005742:	f7ff fc63 	bl	2000500c <tud_umount_cb>
20005746:	4658      	mov	r0, fp
20005748:	a908      	add	r1, sp, #32
2000574a:	f000 f99d 	bl	20005a88 <tud_control_status>
2000574e:	e4f0      	b.n	20005132 <tud_task_ext+0x1a>
20005750:	9803      	ldr	r0, [sp, #12]
20005752:	2801      	cmp	r0, #1
20005754:	f000 80a6 	beq.w	200058a4 <tud_task_ext+0x78c>
20005758:	2800      	cmp	r0, #0
2000575a:	f000 8092 	beq.w	20005882 <tud_task_ext+0x76a>
2000575e:	2300      	movs	r3, #0
20005760:	f891 e002 	ldrb.w	lr, [r1, #2]
20005764:	e007      	b.n	20005776 <tud_task_ext+0x65e>
20005766:	9e00      	ldr	r6, [sp, #0]
20005768:	f88c 6004 	strb.w	r6, [ip, #4]
2000576c:	fa5f fc83 	uxtb.w	ip, r3
20005770:	4560      	cmp	r0, ip
20005772:	f240 8086 	bls.w	20005882 <tud_task_ext+0x76a>
20005776:	eb0e 0c03 	add.w	ip, lr, r3
2000577a:	fa5a fc8c 	uxtab	ip, sl, ip
2000577e:	f89c 6004 	ldrb.w	r6, [ip, #4]
20005782:	3301      	adds	r3, #1
20005784:	2eff      	cmp	r6, #255	@ 0xff
20005786:	d0ee      	beq.n	20005766 <tud_task_ext+0x64e>
20005788:	f04f 23e0 	mov.w	r3, #3758153728	@ 0xe000e000
2000578c:	f8d3 3df0 	ldr.w	r3, [r3, #3568]	@ 0xdf0
20005790:	07d9      	lsls	r1, r3, #31
20005792:	d500      	bpl.n	20005796 <tud_task_ext+0x67e>
20005794:	be00      	bkpt	0x0000
20005796:	f04f 23e0 	mov.w	r3, #3758153728	@ 0xe000e000
2000579a:	f8d3 3df0 	ldr.w	r3, [r3, #3568]	@ 0xdf0
2000579e:	07da      	lsls	r2, r3, #31
200057a0:	d500      	bpl.n	200057a4 <tud_task_ext+0x68c>
200057a2:	be00      	bkpt	0x0000
200057a4:	2300      	movs	r3, #0
200057a6:	f88a 3001 	strb.w	r3, [sl, #1]
200057aa:	e5c8      	b.n	2000533e <tud_task_ext+0x226>
200057ac:	f7fe ff02 	bl	200045b4 <tud_descriptor_bos_cb>
200057b0:	4602      	mov	r2, r0
200057b2:	2800      	cmp	r0, #0
200057b4:	f47f af4e 	bne.w	20005654 <tud_task_ext+0x53c>
200057b8:	e5c1      	b.n	2000533e <tud_task_ext+0x226>
200057ba:	f7ff f93f 	bl	20004a3c <tud_descriptor_device_cb>
200057be:	4602      	mov	r2, r0
200057c0:	2800      	cmp	r0, #0
200057c2:	f43f adb5 	beq.w	20005330 <tud_task_ext+0x218>
200057c6:	4658      	mov	r0, fp
200057c8:	2312      	movs	r3, #18
200057ca:	a908      	add	r1, sp, #32
200057cc:	f000 f978 	bl	20005ac0 <tud_control_xfer>
200057d0:	2800      	cmp	r0, #0
200057d2:	f47f acae 	bne.w	20005132 <tud_task_ext+0x1a>
200057d6:	e5b2      	b.n	2000533e <tud_task_ext+0x226>
200057d8:	f7ff fc12 	bl	20005000 <tud_descriptor_device_qualifier_cb>
200057dc:	4602      	mov	r2, r0
200057de:	2800      	cmp	r0, #0
200057e0:	f43f adad 	beq.w	2000533e <tud_task_ext+0x226>
200057e4:	4658      	mov	r0, fp
200057e6:	7813      	ldrb	r3, [r2, #0]
200057e8:	a908      	add	r1, sp, #32
200057ea:	f000 f969 	bl	20005ac0 <tud_control_xfer>
200057ee:	2800      	cmp	r0, #0
200057f0:	f47f ac9f 	bne.w	20005132 <tud_task_ext+0x1a>
200057f4:	e5a3      	b.n	2000533e <tud_task_ext+0x226>
200057f6:	f8bd 1024 	ldrh.w	r1, [sp, #36]	@ 0x24
200057fa:	f7ff f927 	bl	20004a4c <tud_descriptor_string_cb>
200057fe:	4602      	mov	r2, r0
20005800:	2800      	cmp	r0, #0
20005802:	d1ef      	bne.n	200057e4 <tud_task_ext+0x6cc>
20005804:	e59b      	b.n	2000533e <tud_task_ext+0x226>
20005806:	e9cd 3202 	strd	r3, r2, [sp, #8]
2000580a:	9101      	str	r1, [sp, #4]
2000580c:	f7ff fb5c 	bl	20004ec8 <dcd_edpt_clear_stall>
20005810:	9b02      	ldr	r3, [sp, #8]
20005812:	9901      	ldr	r1, [sp, #4]
20005814:	eb0a 0343 	add.w	r3, sl, r3, lsl #1
20005818:	eb03 13d1 	add.w	r3, r3, r1, lsr #7
2000581c:	f893 1034 	ldrb.w	r1, [r3, #52]	@ 0x34
20005820:	9a03      	ldr	r2, [sp, #12]
20005822:	f362 0141 	bfi	r1, r2, #1, #1
20005826:	f883 1034 	strb.w	r1, [r3, #52]	@ 0x34
2000582a:	f893 1034 	ldrb.w	r1, [r3, #52]	@ 0x34
2000582e:	f362 0100 	bfi	r1, r2, #0, #1
20005832:	f883 1034 	strb.w	r1, [r3, #52]	@ 0x34
20005836:	e76e      	b.n	20005716 <tud_task_ext+0x5fe>
20005838:	2100      	movs	r1, #0
2000583a:	4658      	mov	r0, fp
2000583c:	9301      	str	r3, [sp, #4]
2000583e:	f7ff fa79 	bl	20004d34 <dcd_sof_enable>
20005842:	4658      	mov	r0, fp
20005844:	f7ff fb12 	bl	20004e6c <dcd_edpt_close_all>
20005848:	f89a 2002 	ldrb.w	r2, [sl, #2]
2000584c:	4658      	mov	r0, fp
2000584e:	9200      	str	r2, [sp, #0]
20005850:	f7ff fb8c 	bl	20004f6c <configuration_reset>
20005854:	9a00      	ldr	r2, [sp, #0]
20005856:	9b01      	ldr	r3, [sp, #4]
20005858:	f88a 2002 	strb.w	r2, [sl, #2]
2000585c:	e616      	b.n	2000548c <tud_task_ext+0x374>
2000585e:	f7ff fbd3 	bl	20005008 <tud_mount_cb>
20005862:	e770      	b.n	20005746 <tud_task_ext+0x62e>
20005864:	4658      	mov	r0, fp
20005866:	2301      	movs	r3, #1
20005868:	a908      	add	r1, sp, #32
2000586a:	f10d 021a 	add.w	r2, sp, #26
2000586e:	f88d 601a 	strb.w	r6, [sp, #26]
20005872:	f000 f925 	bl	20005ac0 <tud_control_xfer>
20005876:	e45c      	b.n	20005132 <tud_task_ext+0x1a>
20005878:	780b      	ldrb	r3, [r1, #0]
2000587a:	78c8      	ldrb	r0, [r1, #3]
2000587c:	4419      	add	r1, r3
2000587e:	784b      	ldrb	r3, [r1, #1]
20005880:	e631      	b.n	200054e6 <tud_task_ext+0x3ce>
20005882:	9b00      	ldr	r3, [sp, #0]
20005884:	4810      	ldr	r0, [pc, #64]	@ (200058c8 <tud_task_ext+0x7b0>)
20005886:	9203      	str	r2, [sp, #12]
20005888:	9100      	str	r1, [sp, #0]
2000588a:	f000 fe87 	bl	2000659c <tu_edpt_bind_driver>
2000588e:	4b0f      	ldr	r3, [pc, #60]	@ (200058cc <tud_task_ext+0x7b4>)
20005890:	9a03      	ldr	r2, [sp, #12]
20005892:	9900      	ldr	r1, [sp, #0]
20005894:	781b      	ldrb	r3, [r3, #0]
20005896:	4411      	add	r1, r2
20005898:	9a01      	ldr	r2, [sp, #4]
2000589a:	3301      	adds	r3, #1
2000589c:	4293      	cmp	r3, r2
2000589e:	f6bf ae19 	bge.w	200054d4 <tud_task_ext+0x3bc>
200058a2:	e771      	b.n	20005788 <tud_task_ext+0x670>
200058a4:	f8d3 c010 	ldr.w	ip, [r3, #16]
200058a8:	4b09      	ldr	r3, [pc, #36]	@ (200058d0 <tud_task_ext+0x7b8>)
200058aa:	459c      	cmp	ip, r3
200058ac:	bf08      	it	eq
200058ae:	2002      	moveq	r0, #2
200058b0:	e755      	b.n	2000575e <tud_task_ext+0x646>
200058b2:	f04f 23e0 	mov.w	r3, #3758153728	@ 0xe000e000
200058b6:	f8d3 3df0 	ldr.w	r3, [r3, #3568]	@ 0xdf0
200058ba:	07db      	lsls	r3, r3, #31
200058bc:	f57f ac39 	bpl.w	20005132 <tud_task_ext+0x1a>
200058c0:	be00      	bkpt	0x0000
200058c2:	e436      	b.n	20005132 <tud_task_ext+0x1a>
200058c4:	20008cf0 	.word	0x20008cf0
200058c8:	20009290 	.word	0x20009290
200058cc:	20019b65 	.word	0x20019b65
200058d0:	20005fc9 	.word	0x20005fc9

200058d4 <usbd_open_edpt_pair>:
200058d4:	e92d 4ff8 	stmdb	sp!, {r3, r4, r5, r6, r7, r8, r9, sl, fp, lr}
200058d8:	9f0a      	ldr	r7, [sp, #40]	@ 0x28
200058da:	2a00      	cmp	r2, #0
200058dc:	d040      	beq.n	20005960 <usbd_open_edpt_pair+0x8c>
200058de:	460c      	mov	r4, r1
200058e0:	461e      	mov	r6, r3
200058e2:	4615      	mov	r5, r2
200058e4:	f04f 0b00 	mov.w	fp, #0
200058e8:	f8df 9080 	ldr.w	r9, [pc, #128]	@ 2000596c <usbd_open_edpt_pair+0x98>
200058ec:	f8df 8080 	ldr.w	r8, [pc, #128]	@ 20005970 <usbd_open_edpt_pair+0x9c>
200058f0:	e016      	b.n	20005920 <usbd_open_edpt_pair+0x4c>
200058f2:	4620      	mov	r0, r4
200058f4:	f898 1002 	ldrb.w	r1, [r8, #2]
200058f8:	f899 a000 	ldrb.w	sl, [r9]
200058fc:	f000 fe1e 	bl	2000653c <tu_edpt_validate>
20005900:	b1d0      	cbz	r0, 20005938 <usbd_open_edpt_pair+0x64>
20005902:	4621      	mov	r1, r4
20005904:	4650      	mov	r0, sl
20005906:	f7ff fa31 	bl	20004d6c <dcd_edpt_open>
2000590a:	b1e0      	cbz	r0, 20005946 <usbd_open_edpt_pair+0x72>
2000590c:	78a3      	ldrb	r3, [r4, #2]
2000590e:	f10b 0b01 	add.w	fp, fp, #1
20005912:	09da      	lsrs	r2, r3, #7
20005914:	d120      	bne.n	20005958 <usbd_open_edpt_pair+0x84>
20005916:	45ab      	cmp	fp, r5
20005918:	703b      	strb	r3, [r7, #0]
2000591a:	d021      	beq.n	20005960 <usbd_open_edpt_pair+0x8c>
2000591c:	7823      	ldrb	r3, [r4, #0]
2000591e:	441c      	add	r4, r3
20005920:	7863      	ldrb	r3, [r4, #1]
20005922:	2b05      	cmp	r3, #5
20005924:	d10f      	bne.n	20005946 <usbd_open_edpt_pair+0x72>
20005926:	78e1      	ldrb	r1, [r4, #3]
20005928:	f001 0103 	and.w	r1, r1, #3
2000592c:	42b1      	cmp	r1, r6
2000592e:	d10a      	bne.n	20005946 <usbd_open_edpt_pair+0x72>
20005930:	78a3      	ldrb	r3, [r4, #2]
20005932:	f013 0f70 	tst.w	r3, #112	@ 0x70
20005936:	d0dc      	beq.n	200058f2 <usbd_open_edpt_pair+0x1e>
20005938:	f04f 23e0 	mov.w	r3, #3758153728	@ 0xe000e000
2000593c:	f8d3 3df0 	ldr.w	r3, [r3, #3568]	@ 0xdf0
20005940:	07da      	lsls	r2, r3, #31
20005942:	d500      	bpl.n	20005946 <usbd_open_edpt_pair+0x72>
20005944:	be00      	bkpt	0x0000
20005946:	f04f 23e0 	mov.w	r3, #3758153728	@ 0xe000e000
2000594a:	f8d3 3df0 	ldr.w	r3, [r3, #3568]	@ 0xdf0
2000594e:	07db      	lsls	r3, r3, #31
20005950:	d409      	bmi.n	20005966 <usbd_open_edpt_pair+0x92>
20005952:	2000      	movs	r0, #0
20005954:	e8bd 8ff8 	ldmia.w	sp!, {r3, r4, r5, r6, r7, r8, r9, sl, fp, pc}
20005958:	9a0b      	ldr	r2, [sp, #44]	@ 0x2c
2000595a:	45ab      	cmp	fp, r5
2000595c:	7013      	strb	r3, [r2, #0]
2000595e:	d1dd      	bne.n	2000591c <usbd_open_edpt_pair+0x48>
20005960:	2001      	movs	r0, #1
20005962:	e8bd 8ff8 	ldmia.w	sp!, {r3, r4, r5, r6, r7, r8, r9, sl, fp, pc}
20005966:	be00      	bkpt	0x0000
20005968:	e7f3      	b.n	20005952 <usbd_open_edpt_pair+0x7e>
2000596a:	bf00      	nop
2000596c:	20008cf0 	.word	0x20008cf0
20005970:	2000927c 	.word	0x2000927c

20005974 <usbd_edpt_open>:
20005974:	788b      	ldrb	r3, [r1, #2]
20005976:	f013 0f70 	tst.w	r3, #112	@ 0x70
2000597a:	d008      	beq.n	2000598e <usbd_edpt_open+0x1a>
2000597c:	f04f 23e0 	mov.w	r3, #3758153728	@ 0xe000e000
20005980:	f8d3 3df0 	ldr.w	r3, [r3, #3568]	@ 0xdf0
20005984:	07da      	lsls	r2, r3, #31
20005986:	d500      	bpl.n	2000598a <usbd_edpt_open+0x16>
20005988:	be00      	bkpt	0x0000
2000598a:	2000      	movs	r0, #0
2000598c:	4770      	bx	lr
2000598e:	b510      	push	{r4, lr}
20005990:	b082      	sub	sp, #8
20005992:	4608      	mov	r0, r1
20005994:	9101      	str	r1, [sp, #4]
20005996:	490c      	ldr	r1, [pc, #48]	@ (200059c8 <usbd_edpt_open+0x54>)
20005998:	4a0c      	ldr	r2, [pc, #48]	@ (200059cc <usbd_edpt_open+0x58>)
2000599a:	7889      	ldrb	r1, [r1, #2]
2000599c:	7814      	ldrb	r4, [r2, #0]
2000599e:	f000 fdcd 	bl	2000653c <tu_edpt_validate>
200059a2:	b948      	cbnz	r0, 200059b8 <usbd_edpt_open+0x44>
200059a4:	f04f 23e0 	mov.w	r3, #3758153728	@ 0xe000e000
200059a8:	f8d3 3df0 	ldr.w	r3, [r3, #3568]	@ 0xdf0
200059ac:	07db      	lsls	r3, r3, #31
200059ae:	d500      	bpl.n	200059b2 <usbd_edpt_open+0x3e>
200059b0:	be00      	bkpt	0x0000
200059b2:	2000      	movs	r0, #0
200059b4:	b002      	add	sp, #8
200059b6:	bd10      	pop	{r4, pc}
200059b8:	4620      	mov	r0, r4
200059ba:	9901      	ldr	r1, [sp, #4]
200059bc:	b002      	add	sp, #8
200059be:	e8bd 4010 	ldmia.w	sp!, {r4, lr}
200059c2:	f7ff b9d3 	b.w	20004d6c <dcd_edpt_open>
200059c6:	bf00      	nop
200059c8:	2000927c 	.word	0x2000927c
200059cc:	20008cf0 	.word	0x20008cf0

200059d0 <usbd_edpt_claim>:
200059d0:	460a      	mov	r2, r1
200059d2:	4b06      	ldr	r3, [pc, #24]	@ (200059ec <usbd_edpt_claim+0x1c>)
200059d4:	4806      	ldr	r0, [pc, #24]	@ (200059f0 <usbd_edpt_claim+0x20>)
200059d6:	6819      	ldr	r1, [r3, #0]
200059d8:	09d3      	lsrs	r3, r2, #7
200059da:	3334      	adds	r3, #52	@ 0x34
200059dc:	f002 027f 	and.w	r2, r2, #127	@ 0x7f
200059e0:	eb03 0342 	add.w	r3, r3, r2, lsl #1
200059e4:	4418      	add	r0, r3
200059e6:	f000 bd5d 	b.w	200064a4 <tu_edpt_claim>
200059ea:	bf00      	nop
200059ec:	200092d0 	.word	0x200092d0
200059f0:	2000927c 	.word	0x2000927c

200059f4 <usbd_edpt_release>:
200059f4:	460a      	mov	r2, r1
200059f6:	4b06      	ldr	r3, [pc, #24]	@ (20005a10 <usbd_edpt_release+0x1c>)
200059f8:	4806      	ldr	r0, [pc, #24]	@ (20005a14 <usbd_edpt_release+0x20>)
200059fa:	6819      	ldr	r1, [r3, #0]
200059fc:	09d3      	lsrs	r3, r2, #7
200059fe:	3334      	adds	r3, #52	@ 0x34
20005a00:	f002 027f 	and.w	r2, r2, #127	@ 0x7f
20005a04:	eb03 0342 	add.w	r3, r3, r2, lsl #1
20005a08:	4418      	add	r0, r3
20005a0a:	f000 bd7b 	b.w	20006504 <tu_edpt_release>
20005a0e:	bf00      	nop
20005a10:	200092d0 	.word	0x200092d0
20005a14:	2000927c 	.word	0x2000927c

20005a18 <usbd_edpt_xfer>:
20005a18:	b510      	push	{r4, lr}
20005a1a:	4819      	ldr	r0, [pc, #100]	@ (20005a80 <usbd_edpt_xfer+0x68>)
20005a1c:	f001 047f 	and.w	r4, r1, #127	@ 0x7f
20005a20:	eb00 0044 	add.w	r0, r0, r4, lsl #1
20005a24:	eb00 10d1 	add.w	r0, r0, r1, lsr #7
20005a28:	f890 c034 	ldrb.w	ip, [r0, #52]	@ 0x34
20005a2c:	f01c 0f01 	tst.w	ip, #1
20005a30:	d008      	beq.n	20005a44 <usbd_edpt_xfer+0x2c>
20005a32:	f04f 23e0 	mov.w	r3, #3758153728	@ 0xe000e000
20005a36:	f8d3 3df0 	ldr.w	r3, [r3, #3568]	@ 0xdf0
20005a3a:	07da      	lsls	r2, r3, #31
20005a3c:	d500      	bpl.n	20005a40 <usbd_edpt_xfer+0x28>
20005a3e:	be00      	bkpt	0x0000
20005a40:	2000      	movs	r0, #0
20005a42:	bd10      	pop	{r4, pc}
20005a44:	f100 0430 	add.w	r4, r0, #48	@ 0x30
20005a48:	f894 c004 	ldrb.w	ip, [r4, #4]
20005a4c:	480d      	ldr	r0, [pc, #52]	@ (20005a84 <usbd_edpt_xfer+0x6c>)
20005a4e:	f04c 0c01 	orr.w	ip, ip, #1
20005a52:	7800      	ldrb	r0, [r0, #0]
20005a54:	f884 c004 	strb.w	ip, [r4, #4]
20005a58:	f7ff fa0a 	bl	20004e70 <dcd_edpt_xfer>
20005a5c:	2800      	cmp	r0, #0
20005a5e:	d1f0      	bne.n	20005a42 <usbd_edpt_xfer+0x2a>
20005a60:	f04f 21e0 	mov.w	r1, #3758153728	@ 0xe000e000
20005a64:	7922      	ldrb	r2, [r4, #4]
20005a66:	f360 0200 	bfi	r2, r0, #0, #1
20005a6a:	7122      	strb	r2, [r4, #4]
20005a6c:	7922      	ldrb	r2, [r4, #4]
20005a6e:	f360 0282 	bfi	r2, r0, #2, #1
20005a72:	7122      	strb	r2, [r4, #4]
20005a74:	f8d1 3df0 	ldr.w	r3, [r1, #3568]	@ 0xdf0
20005a78:	07db      	lsls	r3, r3, #31
20005a7a:	d5e1      	bpl.n	20005a40 <usbd_edpt_xfer+0x28>
20005a7c:	be00      	bkpt	0x0000
20005a7e:	e7df      	b.n	20005a40 <usbd_edpt_xfer+0x28>
20005a80:	2000927c 	.word	0x2000927c
20005a84:	20008cf0 	.word	0x20008cf0

20005a88 <tud_control_status>:
20005a88:	f8df c030 	ldr.w	ip, [pc, #48]	@ 20005abc <tud_control_status+0x34>
20005a8c:	2300      	movs	r3, #0
20005a8e:	4662      	mov	r2, ip
20005a90:	b510      	push	{r4, lr}
20005a92:	468e      	mov	lr, r1
20005a94:	4604      	mov	r4, r0
20005a96:	6808      	ldr	r0, [r1, #0]
20005a98:	6849      	ldr	r1, [r1, #4]
20005a9a:	f8cc 300c 	str.w	r3, [ip, #12]
20005a9e:	c203      	stmia	r2!, {r0, r1}
20005aa0:	f89e 1000 	ldrb.w	r1, [lr]
20005aa4:	4620      	mov	r0, r4
20005aa6:	e8bd 4010 	ldmia.w	sp!, {r4, lr}
20005aaa:	f081 01ff 	eor.w	r1, r1, #255	@ 0xff
20005aae:	461a      	mov	r2, r3
20005ab0:	f001 0180 	and.w	r1, r1, #128	@ 0x80
20005ab4:	f8cc 3008 	str.w	r3, [ip, #8]
20005ab8:	f7ff bfae 	b.w	20005a18 <usbd_edpt_xfer>
20005abc:	20009200 	.word	0x20009200

20005ac0 <tud_control_xfer>:
20005ac0:	f8df c0ac 	ldr.w	ip, [pc, #172]	@ 20005b70 <tud_control_xfer+0xb0>
20005ac4:	b570      	push	{r4, r5, r6, lr}
20005ac6:	4615      	mov	r5, r2
20005ac8:	4662      	mov	r2, ip
20005aca:	2400      	movs	r4, #0
20005acc:	468e      	mov	lr, r1
20005ace:	4606      	mov	r6, r0
20005ad0:	6808      	ldr	r0, [r1, #0]
20005ad2:	6849      	ldr	r1, [r1, #4]
20005ad4:	b082      	sub	sp, #8
20005ad6:	c203      	stmia	r2!, {r0, r1}
20005ad8:	f8cc 5008 	str.w	r5, [ip, #8]
20005adc:	f8ac 400e 	strh.w	r4, [ip, #14]
20005ae0:	f8be 2006 	ldrh.w	r2, [lr, #6]
20005ae4:	4293      	cmp	r3, r2
20005ae6:	bf28      	it	cs
20005ae8:	4613      	movcs	r3, r2
20005aea:	f8ac 300c 	strh.w	r3, [ip, #12]
20005aee:	b18a      	cbz	r2, 20005b14 <tud_control_xfer+0x54>
20005af0:	b333      	cbz	r3, 20005b40 <tud_control_xfer+0x80>
20005af2:	b1dd      	cbz	r5, 20005b2c <tud_control_xfer+0x6c>
20005af4:	f99c 2000 	ldrsb.w	r2, [ip]
20005af8:	2b40      	cmp	r3, #64	@ 0x40
20005afa:	bf28      	it	cs
20005afc:	2340      	movcs	r3, #64	@ 0x40
20005afe:	2a00      	cmp	r2, #0
20005b00:	db29      	blt.n	20005b56 <tud_control_xfer+0x96>
20005b02:	4621      	mov	r1, r4
20005b04:	4630      	mov	r0, r6
20005b06:	4a19      	ldr	r2, [pc, #100]	@ (20005b6c <tud_control_xfer+0xac>)
20005b08:	f7ff ff86 	bl	20005a18 <usbd_edpt_xfer>
20005b0c:	b170      	cbz	r0, 20005b2c <tud_control_xfer+0x6c>
20005b0e:	2001      	movs	r0, #1
20005b10:	b002      	add	sp, #8
20005b12:	bd70      	pop	{r4, r5, r6, pc}
20005b14:	f89e 1000 	ldrb.w	r1, [lr]
20005b18:	4613      	mov	r3, r2
20005b1a:	f081 01ff 	eor.w	r1, r1, #255	@ 0xff
20005b1e:	4630      	mov	r0, r6
20005b20:	f001 0180 	and.w	r1, r1, #128	@ 0x80
20005b24:	f7ff ff78 	bl	20005a18 <usbd_edpt_xfer>
20005b28:	2800      	cmp	r0, #0
20005b2a:	d1f0      	bne.n	20005b0e <tud_control_xfer+0x4e>
20005b2c:	f04f 23e0 	mov.w	r3, #3758153728	@ 0xe000e000
20005b30:	f8d3 3df0 	ldr.w	r3, [r3, #3568]	@ 0xdf0
20005b34:	07db      	lsls	r3, r3, #31
20005b36:	d500      	bpl.n	20005b3a <tud_control_xfer+0x7a>
20005b38:	be00      	bkpt	0x0000
20005b3a:	2000      	movs	r0, #0
20005b3c:	b002      	add	sp, #8
20005b3e:	bd70      	pop	{r4, r5, r6, pc}
20005b40:	461a      	mov	r2, r3
20005b42:	f89c 1000 	ldrb.w	r1, [ip]
20005b46:	f001 0180 	and.w	r1, r1, #128	@ 0x80
20005b4a:	4630      	mov	r0, r6
20005b4c:	f7ff ff64 	bl	20005a18 <usbd_edpt_xfer>
20005b50:	2800      	cmp	r0, #0
20005b52:	d1dc      	bne.n	20005b0e <tud_control_xfer+0x4e>
20005b54:	e7ea      	b.n	20005b2c <tud_control_xfer+0x6c>
20005b56:	461a      	mov	r2, r3
20005b58:	4629      	mov	r1, r5
20005b5a:	4804      	ldr	r0, [pc, #16]	@ (20005b6c <tud_control_xfer+0xac>)
20005b5c:	9301      	str	r3, [sp, #4]
20005b5e:	f001 fb97 	bl	20007290 <memcpy>
20005b62:	2180      	movs	r1, #128	@ 0x80
20005b64:	4a01      	ldr	r2, [pc, #4]	@ (20005b6c <tud_control_xfer+0xac>)
20005b66:	9b01      	ldr	r3, [sp, #4]
20005b68:	e7ef      	b.n	20005b4a <tud_control_xfer+0x8a>
20005b6a:	bf00      	nop
20005b6c:	2000923c 	.word	0x2000923c
20005b70:	20009200 	.word	0x20009200

20005b74 <usbd_control_reset>:
20005b74:	2200      	movs	r2, #0
20005b76:	4b03      	ldr	r3, [pc, #12]	@ (20005b84 <usbd_control_reset+0x10>)
20005b78:	e9c3 2200 	strd	r2, r2, [r3]
20005b7c:	e9c3 2202 	strd	r2, r2, [r3, #8]
20005b80:	611a      	str	r2, [r3, #16]
20005b82:	4770      	bx	lr
20005b84:	20009200 	.word	0x20009200

20005b88 <usbd_control_set_complete_callback>:
20005b88:	4b01      	ldr	r3, [pc, #4]	@ (20005b90 <usbd_control_set_complete_callback+0x8>)
20005b8a:	6118      	str	r0, [r3, #16]
20005b8c:	4770      	bx	lr
20005b8e:	bf00      	nop
20005b90:	20009200 	.word	0x20009200

20005b94 <usbd_control_set_request>:
20005b94:	4601      	mov	r1, r0
20005b96:	4a05      	ldr	r2, [pc, #20]	@ (20005bac <usbd_control_set_request+0x18>)
20005b98:	f04f 0c00 	mov.w	ip, #0
20005b9c:	4613      	mov	r3, r2
20005b9e:	6800      	ldr	r0, [r0, #0]
20005ba0:	6849      	ldr	r1, [r1, #4]
20005ba2:	e9c2 cc02 	strd	ip, ip, [r2, #8]
20005ba6:	c303      	stmia	r3!, {r0, r1}
20005ba8:	4770      	bx	lr
20005baa:	bf00      	nop
20005bac:	20009200 	.word	0x20009200

20005bb0 <usbd_control_xfer_cb>:
20005bb0:	b530      	push	{r4, r5, lr}
20005bb2:	4c3e      	ldr	r4, [pc, #248]	@ (20005cac <usbd_control_xfer_cb+0xfc>)
20005bb4:	09c9      	lsrs	r1, r1, #7
20005bb6:	7822      	ldrb	r2, [r4, #0]
20005bb8:	4605      	mov	r5, r0
20005bba:	ebb1 1fd2 	cmp.w	r1, r2, lsr #7
20005bbe:	b083      	sub	sp, #12
20005bc0:	d017      	beq.n	20005bf2 <usbd_control_xfer_cb+0x42>
20005bc2:	b153      	cbz	r3, 20005bda <usbd_control_xfer_cb+0x2a>
20005bc4:	f04f 23e0 	mov.w	r3, #3758153728	@ 0xe000e000
20005bc8:	f8d3 3df0 	ldr.w	r3, [r3, #3568]	@ 0xdf0
20005bcc:	07db      	lsls	r3, r3, #31
20005bce:	d402      	bmi.n	20005bd6 <usbd_control_xfer_cb+0x26>
20005bd0:	2000      	movs	r0, #0
20005bd2:	b003      	add	sp, #12
20005bd4:	bd30      	pop	{r4, r5, pc}
20005bd6:	be00      	bkpt	0x0000
20005bd8:	e7fa      	b.n	20005bd0 <usbd_control_xfer_cb+0x20>
20005bda:	4621      	mov	r1, r4
20005bdc:	f7ff f8b8 	bl	20004d50 <dcd_edpt0_status_complete>
20005be0:	6923      	ldr	r3, [r4, #16]
20005be2:	b11b      	cbz	r3, 20005bec <usbd_control_xfer_cb+0x3c>
20005be4:	4622      	mov	r2, r4
20005be6:	2103      	movs	r1, #3
20005be8:	4628      	mov	r0, r5
20005bea:	4798      	blx	r3
20005bec:	2001      	movs	r0, #1
20005bee:	b003      	add	sp, #12
20005bf0:	bd30      	pop	{r4, r5, pc}
20005bf2:	f994 2000 	ldrsb.w	r2, [r4]
20005bf6:	2a00      	cmp	r2, #0
20005bf8:	db08      	blt.n	20005c0c <usbd_control_xfer_cb+0x5c>
20005bfa:	68a0      	ldr	r0, [r4, #8]
20005bfc:	2800      	cmp	r0, #0
20005bfe:	d0e7      	beq.n	20005bd0 <usbd_control_xfer_cb+0x20>
20005c00:	461a      	mov	r2, r3
20005c02:	492b      	ldr	r1, [pc, #172]	@ (20005cb0 <usbd_control_xfer_cb+0x100>)
20005c04:	9301      	str	r3, [sp, #4]
20005c06:	f001 fb43 	bl	20007290 <memcpy>
20005c0a:	9b01      	ldr	r3, [sp, #4]
20005c0c:	89e0      	ldrh	r0, [r4, #14]
20005c0e:	68a1      	ldr	r1, [r4, #8]
20005c10:	88e2      	ldrh	r2, [r4, #6]
20005c12:	4418      	add	r0, r3
20005c14:	b280      	uxth	r0, r0
20005c16:	4419      	add	r1, r3
20005c18:	4282      	cmp	r2, r0
20005c1a:	81e0      	strh	r0, [r4, #14]
20005c1c:	60a1      	str	r1, [r4, #8]
20005c1e:	d016      	beq.n	20005c4e <usbd_control_xfer_cb+0x9e>
20005c20:	2b3f      	cmp	r3, #63	@ 0x3f
20005c22:	d914      	bls.n	20005c4e <usbd_control_xfer_cb+0x9e>
20005c24:	89a2      	ldrh	r2, [r4, #12]
20005c26:	f994 4000 	ldrsb.w	r4, [r4]
20005c2a:	1a13      	subs	r3, r2, r0
20005c2c:	b29b      	uxth	r3, r3
20005c2e:	2b40      	cmp	r3, #64	@ 0x40
20005c30:	bf28      	it	cs
20005c32:	2340      	movcs	r3, #64	@ 0x40
20005c34:	2c00      	cmp	r4, #0
20005c36:	db28      	blt.n	20005c8a <usbd_control_xfer_cb+0xda>
20005c38:	4290      	cmp	r0, r2
20005c3a:	f04f 0100 	mov.w	r1, #0
20005c3e:	d032      	beq.n	20005ca6 <usbd_control_xfer_cb+0xf6>
20005c40:	4a1b      	ldr	r2, [pc, #108]	@ (20005cb0 <usbd_control_xfer_cb+0x100>)
20005c42:	4628      	mov	r0, r5
20005c44:	f7ff fee8 	bl	20005a18 <usbd_edpt_xfer>
20005c48:	2800      	cmp	r0, #0
20005c4a:	d1cf      	bne.n	20005bec <usbd_control_xfer_cb+0x3c>
20005c4c:	e7ba      	b.n	20005bc4 <usbd_control_xfer_cb+0x14>
20005c4e:	6923      	ldr	r3, [r4, #16]
20005c50:	b123      	cbz	r3, 20005c5c <usbd_control_xfer_cb+0xac>
20005c52:	2102      	movs	r1, #2
20005c54:	4628      	mov	r0, r5
20005c56:	4a15      	ldr	r2, [pc, #84]	@ (20005cac <usbd_control_xfer_cb+0xfc>)
20005c58:	4798      	blx	r3
20005c5a:	b168      	cbz	r0, 20005c78 <usbd_control_xfer_cb+0xc8>
20005c5c:	2300      	movs	r3, #0
20005c5e:	7821      	ldrb	r1, [r4, #0]
20005c60:	4628      	mov	r0, r5
20005c62:	f081 01ff 	eor.w	r1, r1, #255	@ 0xff
20005c66:	461a      	mov	r2, r3
20005c68:	f001 0180 	and.w	r1, r1, #128	@ 0x80
20005c6c:	f7ff fed4 	bl	20005a18 <usbd_edpt_xfer>
20005c70:	2800      	cmp	r0, #0
20005c72:	d0a7      	beq.n	20005bc4 <usbd_control_xfer_cb+0x14>
20005c74:	2001      	movs	r0, #1
20005c76:	e7ba      	b.n	20005bee <usbd_control_xfer_cb+0x3e>
20005c78:	4601      	mov	r1, r0
20005c7a:	4628      	mov	r0, r5
20005c7c:	f7ff f90c 	bl	20004e98 <dcd_edpt_stall>
20005c80:	2180      	movs	r1, #128	@ 0x80
20005c82:	4628      	mov	r0, r5
20005c84:	f7ff f908 	bl	20004e98 <dcd_edpt_stall>
20005c88:	e7b0      	b.n	20005bec <usbd_control_xfer_cb+0x3c>
20005c8a:	4290      	cmp	r0, r2
20005c8c:	d008      	beq.n	20005ca0 <usbd_control_xfer_cb+0xf0>
20005c8e:	461a      	mov	r2, r3
20005c90:	4807      	ldr	r0, [pc, #28]	@ (20005cb0 <usbd_control_xfer_cb+0x100>)
20005c92:	9301      	str	r3, [sp, #4]
20005c94:	f001 fafc 	bl	20007290 <memcpy>
20005c98:	2180      	movs	r1, #128	@ 0x80
20005c9a:	4a05      	ldr	r2, [pc, #20]	@ (20005cb0 <usbd_control_xfer_cb+0x100>)
20005c9c:	9b01      	ldr	r3, [sp, #4]
20005c9e:	e7d0      	b.n	20005c42 <usbd_control_xfer_cb+0x92>
20005ca0:	2180      	movs	r1, #128	@ 0x80
20005ca2:	2200      	movs	r2, #0
20005ca4:	e7cd      	b.n	20005c42 <usbd_control_xfer_cb+0x92>
20005ca6:	460a      	mov	r2, r1
20005ca8:	e7cb      	b.n	20005c42 <usbd_control_xfer_cb+0x92>
20005caa:	bf00      	nop
20005cac:	20009200 	.word	0x20009200
20005cb0:	2000923c 	.word	0x2000923c

20005cb4 <_prep_out_transaction.isra.0>:
20005cb4:	b530      	push	{r4, r5, lr}
20005cb6:	b083      	sub	sp, #12
20005cb8:	4604      	mov	r4, r0
20005cba:	f7ff f9ad 	bl	20005018 <tud_mounted>
20005cbe:	b908      	cbnz	r0, 20005cc4 <_prep_out_transaction.isra.0+0x10>
20005cc0:	b003      	add	sp, #12
20005cc2:	bd30      	pop	{r4, r5, pc}
20005cc4:	f7ff f9b0 	bl	20005028 <tud_suspended>
20005cc8:	2800      	cmp	r0, #0
20005cca:	d1f9      	bne.n	20005cc0 <_prep_out_transaction.isra.0+0xc>
20005ccc:	78e3      	ldrb	r3, [r4, #3]
20005cce:	2b00      	cmp	r3, #0
20005cd0:	d0f6      	beq.n	20005cc0 <_prep_out_transaction.isra.0+0xc>
20005cd2:	9001      	str	r0, [sp, #4]
20005cd4:	f104 0010 	add.w	r0, r4, #16
20005cd8:	f000 fdda 	bl	20006890 <tu_fifo_remaining>
20005cdc:	283f      	cmp	r0, #63	@ 0x3f
20005cde:	d9ef      	bls.n	20005cc0 <_prep_out_transaction.isra.0+0xc>
20005ce0:	9801      	ldr	r0, [sp, #4]
20005ce2:	78e1      	ldrb	r1, [r4, #3]
20005ce4:	f7ff fe74 	bl	200059d0 <usbd_edpt_claim>
20005ce8:	2800      	cmp	r0, #0
20005cea:	d0e9      	beq.n	20005cc0 <_prep_out_transaction.isra.0+0xc>
20005cec:	f104 0010 	add.w	r0, r4, #16
20005cf0:	f000 fdce 	bl	20006890 <tu_fifo_remaining>
20005cf4:	283f      	cmp	r0, #63	@ 0x3f
20005cf6:	78e1      	ldrb	r1, [r4, #3]
20005cf8:	d908      	bls.n	20005d0c <_prep_out_transaction.isra.0+0x58>
20005cfa:	2340      	movs	r3, #64	@ 0x40
20005cfc:	9801      	ldr	r0, [sp, #4]
20005cfe:	f104 02c8 	add.w	r2, r4, #200	@ 0xc8
20005d02:	b003      	add	sp, #12
20005d04:	e8bd 4030 	ldmia.w	sp!, {r4, r5, lr}
20005d08:	f7ff be86 	b.w	20005a18 <usbd_edpt_xfer>
20005d0c:	9801      	ldr	r0, [sp, #4]
20005d0e:	b003      	add	sp, #12
20005d10:	e8bd 4030 	ldmia.w	sp!, {r4, r5, lr}
20005d14:	f7ff be6e 	b.w	200059f4 <usbd_edpt_release>

20005d18 <tud_cdc_n_connected>:
20005d18:	b510      	push	{r4, lr}
20005d1a:	4604      	mov	r4, r0
20005d1c:	f7ff f97c 	bl	20005018 <tud_mounted>
20005d20:	b908      	cbnz	r0, 20005d26 <tud_cdc_n_connected+0xe>
20005d22:	2000      	movs	r0, #0
20005d24:	bd10      	pop	{r4, pc}
20005d26:	f7ff f97f 	bl	20005028 <tud_suspended>
20005d2a:	2800      	cmp	r0, #0
20005d2c:	d1f9      	bne.n	20005d22 <tud_cdc_n_connected+0xa>
20005d2e:	f44f 72a4 	mov.w	r2, #328	@ 0x148
20005d32:	4b03      	ldr	r3, [pc, #12]	@ (20005d40 <tud_cdc_n_connected+0x28>)
20005d34:	fb02 3304 	mla	r3, r2, r4, r3
20005d38:	7918      	ldrb	r0, [r3, #4]
20005d3a:	f000 0001 	and.w	r0, r0, #1
20005d3e:	bd10      	pop	{r4, pc}
20005d40:	20008d68 	.word	0x20008d68

20005d44 <tud_cdc_n_available>:
20005d44:	f44f 72a4 	mov.w	r2, #328	@ 0x148
20005d48:	b508      	push	{r3, lr}
20005d4a:	4b03      	ldr	r3, [pc, #12]	@ (20005d58 <tud_cdc_n_available+0x14>)
20005d4c:	fb02 3000 	mla	r0, r2, r0, r3
20005d50:	f000 fd84 	bl	2000685c <tu_fifo_count>
20005d54:	bd08      	pop	{r3, pc}
20005d56:	bf00      	nop
20005d58:	20008d78 	.word	0x20008d78

20005d5c <tud_cdc_n_read>:
20005d5c:	b5f0      	push	{r4, r5, r6, r7, lr}
20005d5e:	f64f 74ff 	movw	r4, #65535	@ 0xffff
20005d62:	f44f 73a4 	mov.w	r3, #328	@ 0x148
20005d66:	42a2      	cmp	r2, r4
20005d68:	bf28      	it	cs
20005d6a:	4622      	movcs	r2, r4
20005d6c:	fb03 f400 	mul.w	r4, r3, r0
20005d70:	4d1c      	ldr	r5, [pc, #112]	@ (20005de4 <tud_cdc_n_read+0x88>)
20005d72:	f104 0310 	add.w	r3, r4, #16
20005d76:	b083      	sub	sp, #12
20005d78:	1958      	adds	r0, r3, r5
20005d7a:	b292      	uxth	r2, r2
20005d7c:	195e      	adds	r6, r3, r5
20005d7e:	f000 fde7 	bl	20006950 <tu_fifo_read_n>
20005d82:	4607      	mov	r7, r0
20005d84:	f7ff f948 	bl	20005018 <tud_mounted>
20005d88:	b910      	cbnz	r0, 20005d90 <tud_cdc_n_read+0x34>
20005d8a:	4638      	mov	r0, r7
20005d8c:	b003      	add	sp, #12
20005d8e:	bdf0      	pop	{r4, r5, r6, r7, pc}
20005d90:	f7ff f94a 	bl	20005028 <tud_suspended>
20005d94:	4603      	mov	r3, r0
20005d96:	2800      	cmp	r0, #0
20005d98:	d1f7      	bne.n	20005d8a <tud_cdc_n_read+0x2e>
20005d9a:	192a      	adds	r2, r5, r4
20005d9c:	78d1      	ldrb	r1, [r2, #3]
20005d9e:	2900      	cmp	r1, #0
20005da0:	d0f3      	beq.n	20005d8a <tud_cdc_n_read+0x2e>
20005da2:	4630      	mov	r0, r6
20005da4:	e9cd 2300 	strd	r2, r3, [sp]
20005da8:	f000 fd72 	bl	20006890 <tu_fifo_remaining>
20005dac:	283f      	cmp	r0, #63	@ 0x3f
20005dae:	d9ec      	bls.n	20005d8a <tud_cdc_n_read+0x2e>
20005db0:	e9dd 2000 	ldrd	r2, r0, [sp]
20005db4:	78d1      	ldrb	r1, [r2, #3]
20005db6:	f7ff fe0b 	bl	200059d0 <usbd_edpt_claim>
20005dba:	2800      	cmp	r0, #0
20005dbc:	d0e5      	beq.n	20005d8a <tud_cdc_n_read+0x2e>
20005dbe:	4630      	mov	r0, r6
20005dc0:	f000 fd66 	bl	20006890 <tu_fifo_remaining>
20005dc4:	9a00      	ldr	r2, [sp, #0]
20005dc6:	283f      	cmp	r0, #63	@ 0x3f
20005dc8:	78d1      	ldrb	r1, [r2, #3]
20005dca:	d907      	bls.n	20005ddc <tud_cdc_n_read+0x80>
20005dcc:	f104 02c8 	add.w	r2, r4, #200	@ 0xc8
20005dd0:	2340      	movs	r3, #64	@ 0x40
20005dd2:	9801      	ldr	r0, [sp, #4]
20005dd4:	442a      	add	r2, r5
20005dd6:	f7ff fe1f 	bl	20005a18 <usbd_edpt_xfer>
20005dda:	e7d6      	b.n	20005d8a <tud_cdc_n_read+0x2e>
20005ddc:	9801      	ldr	r0, [sp, #4]
20005dde:	f7ff fe09 	bl	200059f4 <usbd_edpt_release>
20005de2:	e7d2      	b.n	20005d8a <tud_cdc_n_read+0x2e>
20005de4:	20008d68 	.word	0x20008d68

20005de8 <tud_cdc_n_write_flush>:
20005de8:	e92d 41f0 	stmdb	sp!, {r4, r5, r6, r7, r8, lr}
20005dec:	b082      	sub	sp, #8
20005dee:	4605      	mov	r5, r0
20005df0:	f7ff f912 	bl	20005018 <tud_mounted>
20005df4:	b918      	cbnz	r0, 20005dfe <tud_cdc_n_write_flush+0x16>
20005df6:	2000      	movs	r0, #0
20005df8:	b002      	add	sp, #8
20005dfa:	e8bd 81f0 	ldmia.w	sp!, {r4, r5, r6, r7, r8, pc}
20005dfe:	f7ff f913 	bl	20005028 <tud_suspended>
20005e02:	4604      	mov	r4, r0
20005e04:	2800      	cmp	r0, #0
20005e06:	d1f6      	bne.n	20005df6 <tud_cdc_n_write_flush+0xe>
20005e08:	f44f 73a4 	mov.w	r3, #328	@ 0x148
20005e0c:	fb03 f505 	mul.w	r5, r3, r5
20005e10:	4e19      	ldr	r6, [pc, #100]	@ (20005e78 <tud_cdc_n_write_flush+0x90>)
20005e12:	f105 0324 	add.w	r3, r5, #36	@ 0x24
20005e16:	199f      	adds	r7, r3, r6
20005e18:	4638      	mov	r0, r7
20005e1a:	f000 fd1f 	bl	2000685c <tu_fifo_count>
20005e1e:	2800      	cmp	r0, #0
20005e20:	d0e9      	beq.n	20005df6 <tud_cdc_n_write_flush+0xe>
20005e22:	1972      	adds	r2, r6, r5
20005e24:	4620      	mov	r0, r4
20005e26:	7891      	ldrb	r1, [r2, #2]
20005e28:	46a0      	mov	r8, r4
20005e2a:	4614      	mov	r4, r2
20005e2c:	f7ff fdd0 	bl	200059d0 <usbd_edpt_claim>
20005e30:	2800      	cmp	r0, #0
20005e32:	d0e0      	beq.n	20005df6 <tud_cdc_n_write_flush+0xe>
20005e34:	f505 7184 	add.w	r1, r5, #264	@ 0x108
20005e38:	4431      	add	r1, r6
20005e3a:	2240      	movs	r2, #64	@ 0x40
20005e3c:	4638      	mov	r0, r7
20005e3e:	9100      	str	r1, [sp, #0]
20005e40:	f000 fd86 	bl	20006950 <tu_fifo_read_n>
20005e44:	f894 c002 	ldrb.w	ip, [r4, #2]
20005e48:	4603      	mov	r3, r0
20005e4a:	b170      	cbz	r0, 20005e6a <tud_cdc_n_write_flush+0x82>
20005e4c:	9001      	str	r0, [sp, #4]
20005e4e:	4661      	mov	r1, ip
20005e50:	4640      	mov	r0, r8
20005e52:	9a00      	ldr	r2, [sp, #0]
20005e54:	f7ff fde0 	bl	20005a18 <usbd_edpt_xfer>
20005e58:	b958      	cbnz	r0, 20005e72 <tud_cdc_n_write_flush+0x8a>
20005e5a:	f04f 23e0 	mov.w	r3, #3758153728	@ 0xe000e000
20005e5e:	f8d3 3df0 	ldr.w	r3, [r3, #3568]	@ 0xdf0
20005e62:	07db      	lsls	r3, r3, #31
20005e64:	d5c7      	bpl.n	20005df6 <tud_cdc_n_write_flush+0xe>
20005e66:	be00      	bkpt	0x0000
20005e68:	e7c5      	b.n	20005df6 <tud_cdc_n_write_flush+0xe>
20005e6a:	4661      	mov	r1, ip
20005e6c:	f7ff fdc2 	bl	200059f4 <usbd_edpt_release>
20005e70:	e7c1      	b.n	20005df6 <tud_cdc_n_write_flush+0xe>
20005e72:	9801      	ldr	r0, [sp, #4]
20005e74:	e7c0      	b.n	20005df8 <tud_cdc_n_write_flush+0x10>
20005e76:	bf00      	nop
20005e78:	20008d68 	.word	0x20008d68

20005e7c <tud_cdc_n_write>:
20005e7c:	b570      	push	{r4, r5, r6, lr}
20005e7e:	4605      	mov	r5, r0
20005e80:	f64f 70ff 	movw	r0, #65535	@ 0xffff
20005e84:	f44f 73a4 	mov.w	r3, #328	@ 0x148
20005e88:	4282      	cmp	r2, r0
20005e8a:	bf28      	it	cs
20005e8c:	4602      	movcs	r2, r0
20005e8e:	4c0a      	ldr	r4, [pc, #40]	@ (20005eb8 <tud_cdc_n_write+0x3c>)
20005e90:	b292      	uxth	r2, r2
20005e92:	fb03 4405 	mla	r4, r3, r5, r4
20005e96:	4620      	mov	r0, r4
20005e98:	f000 fe1e 	bl	20006ad8 <tu_fifo_write_n>
20005e9c:	4606      	mov	r6, r0
20005e9e:	4620      	mov	r0, r4
20005ea0:	f000 fcdc 	bl	2000685c <tu_fifo_count>
20005ea4:	283f      	cmp	r0, #63	@ 0x3f
20005ea6:	d801      	bhi.n	20005eac <tud_cdc_n_write+0x30>
20005ea8:	4630      	mov	r0, r6
20005eaa:	bd70      	pop	{r4, r5, r6, pc}
20005eac:	4628      	mov	r0, r5
20005eae:	f7ff ff9b 	bl	20005de8 <tud_cdc_n_write_flush>
20005eb2:	4630      	mov	r0, r6
20005eb4:	bd70      	pop	{r4, r5, r6, pc}
20005eb6:	bf00      	nop
20005eb8:	20008d8c 	.word	0x20008d8c

20005ebc <tud_cdc_n_write_available>:
20005ebc:	f44f 72a4 	mov.w	r2, #328	@ 0x148
20005ec0:	b508      	push	{r3, lr}
20005ec2:	4b03      	ldr	r3, [pc, #12]	@ (20005ed0 <tud_cdc_n_write_available+0x14>)
20005ec4:	fb02 3000 	mla	r0, r2, r0, r3
20005ec8:	f000 fce2 	bl	20006890 <tu_fifo_remaining>
20005ecc:	bd08      	pop	{r3, pc}
20005ece:	bf00      	nop
20005ed0:	20008d8c 	.word	0x20008d8c

20005ed4 <cdcd_init>:
20005ed4:	b570      	push	{r4, r5, r6, lr}
20005ed6:	2400      	movs	r4, #0
20005ed8:	b082      	sub	sp, #8
20005eda:	f44f 72a4 	mov.w	r2, #328	@ 0x148
20005ede:	2100      	movs	r1, #0
20005ee0:	4817      	ldr	r0, [pc, #92]	@ (20005f40 <cdcd_init+0x6c>)
20005ee2:	f001 f979 	bl	200071d8 <memset>
20005ee6:	23ff      	movs	r3, #255	@ 0xff
20005ee8:	f44f 31e1 	mov.w	r1, #115200	@ 0x1c200
20005eec:	2208      	movs	r2, #8
20005eee:	4815      	ldr	r0, [pc, #84]	@ (20005f44 <cdcd_init+0x70>)
20005ef0:	7004      	strb	r4, [r0, #0]
20005ef2:	4813      	ldr	r0, [pc, #76]	@ (20005f40 <cdcd_init+0x6c>)
20005ef4:	9400      	str	r4, [sp, #0]
20005ef6:	4606      	mov	r6, r0
20005ef8:	7143      	strb	r3, [r0, #5]
20005efa:	6081      	str	r1, [r0, #8]
20005efc:	7382      	strb	r2, [r0, #14]
20005efe:	f100 0138 	add.w	r1, r0, #56	@ 0x38
20005f02:	2301      	movs	r3, #1
20005f04:	2240      	movs	r2, #64	@ 0x40
20005f06:	3010      	adds	r0, #16
20005f08:	f000 fc78 	bl	200067fc <tu_fifo_config>
20005f0c:	2301      	movs	r3, #1
20005f0e:	2240      	movs	r2, #64	@ 0x40
20005f10:	f106 0178 	add.w	r1, r6, #120	@ 0x78
20005f14:	9300      	str	r3, [sp, #0]
20005f16:	f106 05b8 	add.w	r5, r6, #184	@ 0xb8
20005f1a:	f106 0024 	add.w	r0, r6, #36	@ 0x24
20005f1e:	f000 fc6d 	bl	200067fc <tu_fifo_config>
20005f22:	4628      	mov	r0, r5
20005f24:	f7fb faa6 	bl	20001474 <mutex_init>
20005f28:	f106 00c0 	add.w	r0, r6, #192	@ 0xc0
20005f2c:	f7fb faa2 	bl	20001474 <mutex_init>
20005f30:	f106 00c0 	add.w	r0, r6, #192	@ 0xc0
20005f34:	e9c6 4507 	strd	r4, r5, [r6, #28]
20005f38:	e9c6 040c 	strd	r0, r4, [r6, #48]	@ 0x30
20005f3c:	b002      	add	sp, #8
20005f3e:	bd70      	pop	{r4, r5, r6, pc}
20005f40:	20008d68 	.word	0x20008d68
20005f44:	200091fc 	.word	0x200091fc

20005f48 <cdcd_deinit>:
20005f48:	4b0a      	ldr	r3, [pc, #40]	@ (20005f74 <cdcd_deinit+0x2c>)
20005f4a:	6b19      	ldr	r1, [r3, #48]	@ 0x30
20005f4c:	6a1a      	ldr	r2, [r3, #32]
20005f4e:	b161      	cbz	r1, 20005f6a <cdcd_deinit+0x22>
20005f50:	b13a      	cbz	r2, 20005f62 <cdcd_deinit+0x1a>
20005f52:	2200      	movs	r2, #0
20005f54:	e9c3 220c 	strd	r2, r2, [r3, #48]	@ 0x30
20005f58:	61da      	str	r2, [r3, #28]
20005f5a:	2200      	movs	r2, #0
20005f5c:	621a      	str	r2, [r3, #32]
20005f5e:	2001      	movs	r0, #1
20005f60:	4770      	bx	lr
20005f62:	2001      	movs	r0, #1
20005f64:	e9c3 220c 	strd	r2, r2, [r3, #48]	@ 0x30
20005f68:	4770      	bx	lr
20005f6a:	2a00      	cmp	r2, #0
20005f6c:	d0f7      	beq.n	20005f5e <cdcd_deinit+0x16>
20005f6e:	61d9      	str	r1, [r3, #28]
20005f70:	e7f3      	b.n	20005f5a <cdcd_deinit+0x12>
20005f72:	bf00      	nop
20005f74:	20008d68 	.word	0x20008d68

20005f78 <cdcd_reset>:
20005f78:	2200      	movs	r2, #0
20005f7a:	4910      	ldr	r1, [pc, #64]	@ (20005fbc <cdcd_reset+0x44>)
20005f7c:	b508      	push	{r3, lr}
20005f7e:	4810      	ldr	r0, [pc, #64]	@ (20005fc0 <cdcd_reset+0x48>)
20005f80:	780b      	ldrb	r3, [r1, #0]
20005f82:	6002      	str	r2, [r0, #0]
20005f84:	7102      	strb	r2, [r0, #4]
20005f86:	07da      	lsls	r2, r3, #31
20005f88:	d507      	bpl.n	20005f9a <cdcd_reset+0x22>
20005f8a:	079b      	lsls	r3, r3, #30
20005f8c:	d50c      	bpl.n	20005fa8 <cdcd_reset+0x30>
20005f8e:	e8bd 4008 	ldmia.w	sp!, {r3, lr}
20005f92:	2101      	movs	r1, #1
20005f94:	480b      	ldr	r0, [pc, #44]	@ (20005fc4 <cdcd_reset+0x4c>)
20005f96:	f000 be63 	b.w	20006c60 <tu_fifo_set_overwritable>
20005f9a:	3010      	adds	r0, #16
20005f9c:	f000 fe44 	bl	20006c28 <tu_fifo_clear>
20005fa0:	4906      	ldr	r1, [pc, #24]	@ (20005fbc <cdcd_reset+0x44>)
20005fa2:	780b      	ldrb	r3, [r1, #0]
20005fa4:	079b      	lsls	r3, r3, #30
20005fa6:	d4f2      	bmi.n	20005f8e <cdcd_reset+0x16>
20005fa8:	4806      	ldr	r0, [pc, #24]	@ (20005fc4 <cdcd_reset+0x4c>)
20005faa:	f000 fe3d 	bl	20006c28 <tu_fifo_clear>
20005fae:	e8bd 4008 	ldmia.w	sp!, {r3, lr}
20005fb2:	2101      	movs	r1, #1
20005fb4:	4803      	ldr	r0, [pc, #12]	@ (20005fc4 <cdcd_reset+0x4c>)
20005fb6:	f000 be53 	b.w	20006c60 <tu_fifo_set_overwritable>
20005fba:	bf00      	nop
20005fbc:	200091fc 	.word	0x200091fc
20005fc0:	20008d68 	.word	0x20008d68
20005fc4:	20008d8c 	.word	0x20008d8c

20005fc8 <cdcd_open>:
20005fc8:	b570      	push	{r4, r5, r6, lr}
20005fca:	794b      	ldrb	r3, [r1, #5]
20005fcc:	b084      	sub	sp, #16
20005fce:	2b02      	cmp	r3, #2
20005fd0:	d102      	bne.n	20005fd8 <cdcd_open+0x10>
20005fd2:	798b      	ldrb	r3, [r1, #6]
20005fd4:	2b02      	cmp	r3, #2
20005fd6:	d003      	beq.n	20005fe0 <cdcd_open+0x18>
20005fd8:	2400      	movs	r4, #0
20005fda:	4620      	mov	r0, r4
20005fdc:	b004      	add	sp, #16
20005fde:	bd70      	pop	{r4, r5, r6, pc}
20005fe0:	4b2a      	ldr	r3, [pc, #168]	@ (2000608c <cdcd_open+0xc4>)
20005fe2:	789b      	ldrb	r3, [r3, #2]
20005fe4:	b9e3      	cbnz	r3, 20006020 <cdcd_open+0x58>
20005fe6:	788b      	ldrb	r3, [r1, #2]
20005fe8:	4605      	mov	r5, r0
20005fea:	4828      	ldr	r0, [pc, #160]	@ (2000608c <cdcd_open+0xc4>)
20005fec:	7003      	strb	r3, [r0, #0]
20005fee:	780b      	ldrb	r3, [r1, #0]
20005ff0:	4419      	add	r1, r3
20005ff2:	f891 c001 	ldrb.w	ip, [r1, #1]
20005ff6:	f1bc 0f24 	cmp.w	ip, #36	@ 0x24
20005ffa:	bf08      	it	eq
20005ffc:	2409      	moveq	r4, #9
20005ffe:	d009      	beq.n	20006014 <cdcd_open+0x4c>
20006000:	e041      	b.n	20006086 <cdcd_open+0xbe>
20006002:	780b      	ldrb	r3, [r1, #0]
20006004:	4419      	add	r1, r3
20006006:	f891 c001 	ldrb.w	ip, [r1, #1]
2000600a:	4423      	add	r3, r4
2000600c:	f1bc 0f24 	cmp.w	ip, #36	@ 0x24
20006010:	b29c      	uxth	r4, r3
20006012:	d10d      	bne.n	20006030 <cdcd_open+0x68>
20006014:	42a2      	cmp	r2, r4
20006016:	d2f4      	bcs.n	20006002 <cdcd_open+0x3a>
20006018:	481c      	ldr	r0, [pc, #112]	@ (2000608c <cdcd_open+0xc4>)
2000601a:	f7ff fe4b 	bl	20005cb4 <_prep_out_transaction.isra.0>
2000601e:	e7dc      	b.n	20005fda <cdcd_open+0x12>
20006020:	f04f 23e0 	mov.w	r3, #3758153728	@ 0xe000e000
20006024:	f8d3 3df0 	ldr.w	r3, [r3, #3568]	@ 0xdf0
20006028:	07db      	lsls	r3, r3, #31
2000602a:	d5d5      	bpl.n	20005fd8 <cdcd_open+0x10>
2000602c:	be00      	bkpt	0x0000
2000602e:	e7d3      	b.n	20005fd8 <cdcd_open+0x10>
20006030:	4663      	mov	r3, ip
20006032:	f1bc 0f05 	cmp.w	ip, #5
20006036:	d016      	beq.n	20006066 <cdcd_open+0x9e>
20006038:	2b04      	cmp	r3, #4
2000603a:	d1ed      	bne.n	20006018 <cdcd_open+0x50>
2000603c:	794b      	ldrb	r3, [r1, #5]
2000603e:	2b0a      	cmp	r3, #10
20006040:	d1ea      	bne.n	20006018 <cdcd_open+0x50>
20006042:	4b13      	ldr	r3, [pc, #76]	@ (20006090 <cdcd_open+0xc8>)
20006044:	780a      	ldrb	r2, [r1, #0]
20006046:	9301      	str	r3, [sp, #4]
20006048:	3301      	adds	r3, #1
2000604a:	9300      	str	r3, [sp, #0]
2000604c:	2302      	movs	r3, #2
2000604e:	4616      	mov	r6, r2
20006050:	4411      	add	r1, r2
20006052:	4628      	mov	r0, r5
20006054:	461a      	mov	r2, r3
20006056:	f7ff fc3d 	bl	200058d4 <usbd_open_edpt_pair>
2000605a:	2800      	cmp	r0, #0
2000605c:	d0e0      	beq.n	20006020 <cdcd_open+0x58>
2000605e:	340e      	adds	r4, #14
20006060:	1933      	adds	r3, r6, r4
20006062:	b29c      	uxth	r4, r3
20006064:	e7d8      	b.n	20006018 <cdcd_open+0x50>
20006066:	4628      	mov	r0, r5
20006068:	9103      	str	r1, [sp, #12]
2000606a:	f7ff fc83 	bl	20005974 <usbd_edpt_open>
2000606e:	9903      	ldr	r1, [sp, #12]
20006070:	2800      	cmp	r0, #0
20006072:	d0d5      	beq.n	20006020 <cdcd_open+0x58>
20006074:	788b      	ldrb	r3, [r1, #2]
20006076:	4a05      	ldr	r2, [pc, #20]	@ (2000608c <cdcd_open+0xc4>)
20006078:	7053      	strb	r3, [r2, #1]
2000607a:	780b      	ldrb	r3, [r1, #0]
2000607c:	191a      	adds	r2, r3, r4
2000607e:	4419      	add	r1, r3
20006080:	784b      	ldrb	r3, [r1, #1]
20006082:	b294      	uxth	r4, r2
20006084:	e7d8      	b.n	20006038 <cdcd_open+0x70>
20006086:	4663      	mov	r3, ip
20006088:	2409      	movs	r4, #9
2000608a:	e7d2      	b.n	20006032 <cdcd_open+0x6a>
2000608c:	20008d68 	.word	0x20008d68
20006090:	20008d6a 	.word	0x20008d6a

20006094 <cdcd_control_xfer_cb>:
20006094:	7813      	ldrb	r3, [r2, #0]
20006096:	f003 0360 	and.w	r3, r3, #96	@ 0x60
2000609a:	2b20      	cmp	r3, #32
2000609c:	d113      	bne.n	200060c6 <cdcd_control_xfer_cb+0x32>
2000609e:	b510      	push	{r4, lr}
200060a0:	4b2b      	ldr	r3, [pc, #172]	@ (20006150 <cdcd_control_xfer_cb+0xbc>)
200060a2:	f8b2 c004 	ldrh.w	ip, [r2, #4]
200060a6:	f893 e000 	ldrb.w	lr, [r3]
200060aa:	b082      	sub	sp, #8
200060ac:	45e6      	cmp	lr, ip
200060ae:	d10c      	bne.n	200060ca <cdcd_control_xfer_cb+0x36>
200060b0:	f892 c001 	ldrb.w	ip, [r2, #1]
200060b4:	f1ac 0c20 	sub.w	ip, ip, #32
200060b8:	f1bc 0f03 	cmp.w	ip, #3
200060bc:	d805      	bhi.n	200060ca <cdcd_control_xfer_cb+0x36>
200060be:	e8df f00c 	tbb	[pc, ip]
200060c2:	1a0e      	.short	0x1a0e
200060c4:	0722      	.short	0x0722
200060c6:	2000      	movs	r0, #0
200060c8:	4770      	bx	lr
200060ca:	2000      	movs	r0, #0
200060cc:	b002      	add	sp, #8
200060ce:	bd10      	pop	{r4, pc}
200060d0:	2901      	cmp	r1, #1
200060d2:	d031      	beq.n	20006138 <cdcd_control_xfer_cb+0xa4>
200060d4:	2903      	cmp	r1, #3
200060d6:	d033      	beq.n	20006140 <cdcd_control_xfer_cb+0xac>
200060d8:	2001      	movs	r0, #1
200060da:	b002      	add	sp, #8
200060dc:	bd10      	pop	{r4, pc}
200060de:	2901      	cmp	r1, #1
200060e0:	d00b      	beq.n	200060fa <cdcd_control_xfer_cb+0x66>
200060e2:	2903      	cmp	r1, #3
200060e4:	d1f8      	bne.n	200060d8 <cdcd_control_xfer_cb+0x44>
200060e6:	4b1b      	ldr	r3, [pc, #108]	@ (20006154 <cdcd_control_xfer_cb+0xc0>)
200060e8:	2b00      	cmp	r3, #0
200060ea:	d0f5      	beq.n	200060d8 <cdcd_control_xfer_cb+0x44>
200060ec:	2000      	movs	r0, #0
200060ee:	491a      	ldr	r1, [pc, #104]	@ (20006158 <cdcd_control_xfer_cb+0xc4>)
200060f0:	f7fe fa80 	bl	200045f4 <tud_cdc_line_coding_cb>
200060f4:	e7f0      	b.n	200060d8 <cdcd_control_xfer_cb+0x44>
200060f6:	2901      	cmp	r1, #1
200060f8:	d1ee      	bne.n	200060d8 <cdcd_control_xfer_cb+0x44>
200060fa:	4611      	mov	r1, r2
200060fc:	2307      	movs	r3, #7
200060fe:	4a16      	ldr	r2, [pc, #88]	@ (20006158 <cdcd_control_xfer_cb+0xc4>)
20006100:	f7ff fcde 	bl	20005ac0 <tud_control_xfer>
20006104:	e7e8      	b.n	200060d8 <cdcd_control_xfer_cb+0x44>
20006106:	2901      	cmp	r1, #1
20006108:	d016      	beq.n	20006138 <cdcd_control_xfer_cb+0xa4>
2000610a:	2903      	cmp	r1, #3
2000610c:	d1e4      	bne.n	200060d8 <cdcd_control_xfer_cb+0x44>
2000610e:	8852      	ldrh	r2, [r2, #2]
20006110:	4812      	ldr	r0, [pc, #72]	@ (2000615c <cdcd_control_xfer_cb+0xc8>)
20006112:	f002 0401 	and.w	r4, r2, #1
20006116:	f084 0101 	eor.w	r1, r4, #1
2000611a:	711a      	strb	r2, [r3, #4]
2000611c:	9201      	str	r2, [sp, #4]
2000611e:	f000 fd9f 	bl	20006c60 <tu_fifo_set_overwritable>
20006122:	4b0f      	ldr	r3, [pc, #60]	@ (20006160 <cdcd_control_xfer_cb+0xcc>)
20006124:	2b00      	cmp	r3, #0
20006126:	d0d7      	beq.n	200060d8 <cdcd_control_xfer_cb+0x44>
20006128:	9a01      	ldr	r2, [sp, #4]
2000612a:	4621      	mov	r1, r4
2000612c:	2000      	movs	r0, #0
2000612e:	f3c2 0240 	ubfx	r2, r2, #1, #1
20006132:	f3af 8000 	nop.w
20006136:	e7cf      	b.n	200060d8 <cdcd_control_xfer_cb+0x44>
20006138:	4611      	mov	r1, r2
2000613a:	f7ff fca5 	bl	20005a88 <tud_control_status>
2000613e:	e7cb      	b.n	200060d8 <cdcd_control_xfer_cb+0x44>
20006140:	4b08      	ldr	r3, [pc, #32]	@ (20006164 <cdcd_control_xfer_cb+0xd0>)
20006142:	2b00      	cmp	r3, #0
20006144:	d0c8      	beq.n	200060d8 <cdcd_control_xfer_cb+0x44>
20006146:	2000      	movs	r0, #0
20006148:	8851      	ldrh	r1, [r2, #2]
2000614a:	f3af 8000 	nop.w
2000614e:	e7c3      	b.n	200060d8 <cdcd_control_xfer_cb+0x44>
20006150:	20008d68 	.word	0x20008d68
20006154:	200045f5 	.word	0x200045f5
20006158:	20008d70 	.word	0x20008d70
2000615c:	20008d8c 	.word	0x20008d8c
	...

20006168 <cdcd_xfer_cb>:
20006168:	e92d 41f0 	stmdb	sp!, {r4, r5, r6, r7, r8, lr}
2000616c:	4c36      	ldr	r4, [pc, #216]	@ (20006248 <cdcd_xfer_cb+0xe0>)
2000616e:	460d      	mov	r5, r1
20006170:	78e2      	ldrb	r2, [r4, #3]
20006172:	4607      	mov	r7, r0
20006174:	428a      	cmp	r2, r1
20006176:	461e      	mov	r6, r3
20006178:	b082      	sub	sp, #8
2000617a:	d02f      	beq.n	200061dc <cdcd_xfer_cb+0x74>
2000617c:	78a3      	ldrb	r3, [r4, #2]
2000617e:	428b      	cmp	r3, r1
20006180:	d009      	beq.n	20006196 <cdcd_xfer_cb+0x2e>
20006182:	f04f 23e0 	mov.w	r3, #3758153728	@ 0xe000e000
20006186:	f8d3 3df0 	ldr.w	r3, [r3, #3568]	@ 0xdf0
2000618a:	07db      	lsls	r3, r3, #31
2000618c:	d424      	bmi.n	200061d8 <cdcd_xfer_cb+0x70>
2000618e:	2000      	movs	r0, #0
20006190:	b002      	add	sp, #8
20006192:	e8bd 81f0 	ldmia.w	sp!, {r4, r5, r6, r7, r8, pc}
20006196:	4b2d      	ldr	r3, [pc, #180]	@ (2000624c <cdcd_xfer_cb+0xe4>)
20006198:	b113      	cbz	r3, 200061a0 <cdcd_xfer_cb+0x38>
2000619a:	2000      	movs	r0, #0
2000619c:	f3af 8000 	nop.w
200061a0:	2000      	movs	r0, #0
200061a2:	f7ff fe21 	bl	20005de8 <tud_cdc_n_write_flush>
200061a6:	2800      	cmp	r0, #0
200061a8:	d149      	bne.n	2000623e <cdcd_xfer_cb+0xd6>
200061aa:	4829      	ldr	r0, [pc, #164]	@ (20006250 <cdcd_xfer_cb+0xe8>)
200061ac:	f000 fb56 	bl	2000685c <tu_fifo_count>
200061b0:	2800      	cmp	r0, #0
200061b2:	d144      	bne.n	2000623e <cdcd_xfer_cb+0xd6>
200061b4:	2e00      	cmp	r6, #0
200061b6:	d042      	beq.n	2000623e <cdcd_xfer_cb+0xd6>
200061b8:	f016 053f 	ands.w	r5, r6, #63	@ 0x3f
200061bc:	d13f      	bne.n	2000623e <cdcd_xfer_cb+0xd6>
200061be:	4638      	mov	r0, r7
200061c0:	78a1      	ldrb	r1, [r4, #2]
200061c2:	f7ff fc05 	bl	200059d0 <usbd_edpt_claim>
200061c6:	2800      	cmp	r0, #0
200061c8:	d039      	beq.n	2000623e <cdcd_xfer_cb+0xd6>
200061ca:	462b      	mov	r3, r5
200061cc:	462a      	mov	r2, r5
200061ce:	4638      	mov	r0, r7
200061d0:	78a1      	ldrb	r1, [r4, #2]
200061d2:	f7ff fc21 	bl	20005a18 <usbd_edpt_xfer>
200061d6:	e032      	b.n	2000623e <cdcd_xfer_cb+0xd6>
200061d8:	be00      	bkpt	0x0000
200061da:	e7d8      	b.n	2000618e <cdcd_xfer_cb+0x26>
200061dc:	b29a      	uxth	r2, r3
200061de:	f104 01c8 	add.w	r1, r4, #200	@ 0xc8
200061e2:	f104 0010 	add.w	r0, r4, #16
200061e6:	f000 fc77 	bl	20006ad8 <tu_fifo_write_n>
200061ea:	4b1a      	ldr	r3, [pc, #104]	@ (20006254 <cdcd_xfer_cb+0xec>)
200061ec:	b1db      	cbz	r3, 20006226 <cdcd_xfer_cb+0xbe>
200061ee:	7962      	ldrb	r2, [r4, #5]
200061f0:	2aff      	cmp	r2, #255	@ 0xff
200061f2:	d018      	beq.n	20006226 <cdcd_xfer_cb+0xbe>
200061f4:	b1be      	cbz	r6, 20006226 <cdcd_xfer_cb+0xbe>
200061f6:	f104 03c7 	add.w	r3, r4, #199	@ 0xc7
200061fa:	eb03 0806 	add.w	r8, r3, r6
200061fe:	e002      	b.n	20006206 <cdcd_xfer_cb+0x9e>
20006200:	4543      	cmp	r3, r8
20006202:	d010      	beq.n	20006226 <cdcd_xfer_cb+0xbe>
20006204:	7962      	ldrb	r2, [r4, #5]
20006206:	f813 1f01 	ldrb.w	r1, [r3, #1]!
2000620a:	4291      	cmp	r1, r2
2000620c:	d1f8      	bne.n	20006200 <cdcd_xfer_cb+0x98>
2000620e:	4812      	ldr	r0, [pc, #72]	@ (20006258 <cdcd_xfer_cb+0xf0>)
20006210:	9301      	str	r3, [sp, #4]
20006212:	f000 fb33 	bl	2000687c <tu_fifo_empty>
20006216:	9b01      	ldr	r3, [sp, #4]
20006218:	2800      	cmp	r0, #0
2000621a:	d1f1      	bne.n	20006200 <cdcd_xfer_cb+0x98>
2000621c:	7961      	ldrb	r1, [r4, #5]
2000621e:	f3af 8000 	nop.w
20006222:	9b01      	ldr	r3, [sp, #4]
20006224:	e7ec      	b.n	20006200 <cdcd_xfer_cb+0x98>
20006226:	4b0d      	ldr	r3, [pc, #52]	@ (2000625c <cdcd_xfer_cb+0xf4>)
20006228:	b11b      	cbz	r3, 20006232 <cdcd_xfer_cb+0xca>
2000622a:	480b      	ldr	r0, [pc, #44]	@ (20006258 <cdcd_xfer_cb+0xf0>)
2000622c:	f000 fb26 	bl	2000687c <tu_fifo_empty>
20006230:	b138      	cbz	r0, 20006242 <cdcd_xfer_cb+0xda>
20006232:	4805      	ldr	r0, [pc, #20]	@ (20006248 <cdcd_xfer_cb+0xe0>)
20006234:	f7ff fd3e 	bl	20005cb4 <_prep_out_transaction.isra.0>
20006238:	78a3      	ldrb	r3, [r4, #2]
2000623a:	42ab      	cmp	r3, r5
2000623c:	d0ab      	beq.n	20006196 <cdcd_xfer_cb+0x2e>
2000623e:	2001      	movs	r0, #1
20006240:	e7a6      	b.n	20006190 <cdcd_xfer_cb+0x28>
20006242:	f3af 8000 	nop.w
20006246:	e7f4      	b.n	20006232 <cdcd_xfer_cb+0xca>
20006248:	20008d68 	.word	0x20008d68
2000624c:	00000000 	.word	0x00000000
20006250:	20008d8c 	.word	0x20008d8c
20006254:	00000000 	.word	0x00000000
20006258:	20008d78 	.word	0x20008d78
2000625c:	00000000 	.word	0x00000000

20006260 <vendord_init>:
20006260:	b570      	push	{r4, r5, r6, lr}
20006262:	f44f 7233 	mov.w	r2, #716	@ 0x2cc
20006266:	b084      	sub	sp, #16
20006268:	2100      	movs	r1, #0
2000626a:	4813      	ldr	r0, [pc, #76]	@ (200062b8 <vendord_init+0x58>)
2000626c:	f000 ffb4 	bl	200071d8 <memset>
20006270:	2540      	movs	r5, #64	@ 0x40
20006272:	2300      	movs	r3, #0
20006274:	f44f 7480 	mov.w	r4, #256	@ 0x100
20006278:	480f      	ldr	r0, [pc, #60]	@ (200062b8 <vendord_init+0x58>)
2000627a:	4619      	mov	r1, r3
2000627c:	1d02      	adds	r2, r0, #4
2000627e:	9202      	str	r2, [sp, #8]
20006280:	f500 72e6 	add.w	r2, r0, #460	@ 0x1cc
20006284:	4606      	mov	r6, r0
20006286:	e9cd 2400 	strd	r2, r4, [sp]
2000628a:	9503      	str	r5, [sp, #12]
2000628c:	461a      	mov	r2, r3
2000628e:	f500 70d4 	add.w	r0, r0, #424	@ 0x1a8
20006292:	f000 f9ad 	bl	200065f0 <tu_edpt_stream_init>
20006296:	2300      	movs	r3, #0
20006298:	f106 0144 	add.w	r1, r6, #68	@ 0x44
2000629c:	f106 00a8 	add.w	r0, r6, #168	@ 0xa8
200062a0:	e9cd 1502 	strd	r1, r5, [sp, #8]
200062a4:	9000      	str	r0, [sp, #0]
200062a6:	2201      	movs	r2, #1
200062a8:	4619      	mov	r1, r3
200062aa:	9401      	str	r4, [sp, #4]
200062ac:	f106 0084 	add.w	r0, r6, #132	@ 0x84
200062b0:	f000 f99e 	bl	200065f0 <tu_edpt_stream_init>
200062b4:	b004      	add	sp, #16
200062b6:	bd70      	pop	{r4, r5, r6, pc}
200062b8:	20009398 	.word	0x20009398

200062bc <vendord_deinit>:
200062bc:	b508      	push	{r3, lr}
200062be:	4804      	ldr	r0, [pc, #16]	@ (200062d0 <vendord_deinit+0x14>)
200062c0:	f000 f9c2 	bl	20006648 <tu_edpt_stream_deinit>
200062c4:	4803      	ldr	r0, [pc, #12]	@ (200062d4 <vendord_deinit+0x18>)
200062c6:	f000 f9bf 	bl	20006648 <tu_edpt_stream_deinit>
200062ca:	2001      	movs	r0, #1
200062cc:	bd08      	pop	{r3, pc}
200062ce:	bf00      	nop
200062d0:	20009540 	.word	0x20009540
200062d4:	2000941c 	.word	0x2000941c

200062d8 <vendord_reset>:
200062d8:	2300      	movs	r3, #0
200062da:	b510      	push	{r4, lr}
200062dc:	4c05      	ldr	r4, [pc, #20]	@ (200062f4 <vendord_reset+0x1c>)
200062de:	f504 70d8 	add.w	r0, r4, #432	@ 0x1b0
200062e2:	7023      	strb	r3, [r4, #0]
200062e4:	f000 fca0 	bl	20006c28 <tu_fifo_clear>
200062e8:	f104 008c 	add.w	r0, r4, #140	@ 0x8c
200062ec:	e8bd 4010 	ldmia.w	sp!, {r4, lr}
200062f0:	f000 bc9a 	b.w	20006c28 <tu_fifo_clear>
200062f4:	20009398 	.word	0x20009398

200062f8 <vendord_open>:
200062f8:	e92d 43f8 	stmdb	sp!, {r3, r4, r5, r6, r7, r8, r9, lr}
200062fc:	794b      	ldrb	r3, [r1, #5]
200062fe:	2bff      	cmp	r3, #255	@ 0xff
20006300:	d106      	bne.n	20006310 <vendord_open+0x18>
20006302:	4f36      	ldr	r7, [pc, #216]	@ (200063dc <vendord_open+0xe4>)
20006304:	f897 6085 	ldrb.w	r6, [r7, #133]	@ 0x85
20006308:	f897 31a9 	ldrb.w	r3, [r7, #425]	@ 0x1a9
2000630c:	431e      	orrs	r6, r3
2000630e:	d002      	beq.n	20006316 <vendord_open+0x1e>
20006310:	2000      	movs	r0, #0
20006312:	e8bd 83f8 	ldmia.w	sp!, {r3, r4, r5, r6, r7, r8, r9, pc}
20006316:	788b      	ldrb	r3, [r1, #2]
20006318:	780c      	ldrb	r4, [r1, #0]
2000631a:	703b      	strb	r3, [r7, #0]
2000631c:	790b      	ldrb	r3, [r1, #4]
2000631e:	4681      	mov	r9, r0
20006320:	4688      	mov	r8, r1
20006322:	440c      	add	r4, r1
20006324:	b3a3      	cbz	r3, 20006390 <vendord_open+0x98>
20006326:	18a5      	adds	r5, r4, r2
20006328:	e003      	b.n	20006332 <vendord_open+0x3a>
2000632a:	42ac      	cmp	r4, r5
2000632c:	d230      	bcs.n	20006390 <vendord_open+0x98>
2000632e:	7823      	ldrb	r3, [r4, #0]
20006330:	441c      	add	r4, r3
20006332:	7863      	ldrb	r3, [r4, #1]
20006334:	2b05      	cmp	r3, #5
20006336:	d1f8      	bne.n	2000632a <vendord_open+0x32>
20006338:	42ac      	cmp	r4, r5
2000633a:	d229      	bcs.n	20006390 <vendord_open+0x98>
2000633c:	4621      	mov	r1, r4
2000633e:	4648      	mov	r0, r9
20006340:	f7ff fb18 	bl	20005974 <usbd_edpt_open>
20006344:	2800      	cmp	r0, #0
20006346:	d041      	beq.n	200063cc <vendord_open+0xd4>
20006348:	78a3      	ldrb	r3, [r4, #2]
2000634a:	09db      	lsrs	r3, r3, #7
2000634c:	d125      	bne.n	2000639a <vendord_open+0xa2>
2000634e:	4824      	ldr	r0, [pc, #144]	@ (200063e0 <vendord_open+0xe8>)
20006350:	f000 fc6a 	bl	20006c28 <tu_fifo_clear>
20006354:	78a3      	ldrb	r3, [r4, #2]
20006356:	f897 21a8 	ldrb.w	r2, [r7, #424]	@ 0x1a8
2000635a:	f887 31a9 	strb.w	r3, [r7, #425]	@ 0x1a9
2000635e:	88a3      	ldrh	r3, [r4, #4]
20006360:	4648      	mov	r0, r9
20006362:	f3c3 030a 	ubfx	r3, r3, #0, #11
20006366:	f5a3 7300 	sub.w	r3, r3, #512	@ 0x200
2000636a:	fab3 f383 	clz	r3, r3
2000636e:	095b      	lsrs	r3, r3, #5
20006370:	f363 0241 	bfi	r2, r3, #1, #1
20006374:	491b      	ldr	r1, [pc, #108]	@ (200063e4 <vendord_open+0xec>)
20006376:	f887 21a8 	strb.w	r2, [r7, #424]	@ 0x1a8
2000637a:	f000 f9d7 	bl	2000672c <tu_edpt_stream_read_xfer>
2000637e:	b328      	cbz	r0, 200063cc <vendord_open+0xd4>
20006380:	7823      	ldrb	r3, [r4, #0]
20006382:	f898 2004 	ldrb.w	r2, [r8, #4]
20006386:	3601      	adds	r6, #1
20006388:	441c      	add	r4, r3
2000638a:	b2f3      	uxtb	r3, r6
2000638c:	429a      	cmp	r2, r3
2000638e:	d8d0      	bhi.n	20006332 <vendord_open+0x3a>
20006390:	eba4 0008 	sub.w	r0, r4, r8
20006394:	b280      	uxth	r0, r0
20006396:	e8bd 83f8 	ldmia.w	sp!, {r3, r4, r5, r6, r7, r8, r9, pc}
2000639a:	4813      	ldr	r0, [pc, #76]	@ (200063e8 <vendord_open+0xf0>)
2000639c:	f000 fc44 	bl	20006c28 <tu_fifo_clear>
200063a0:	78a3      	ldrb	r3, [r4, #2]
200063a2:	f897 2084 	ldrb.w	r2, [r7, #132]	@ 0x84
200063a6:	f887 3085 	strb.w	r3, [r7, #133]	@ 0x85
200063aa:	88a3      	ldrh	r3, [r4, #4]
200063ac:	490f      	ldr	r1, [pc, #60]	@ (200063ec <vendord_open+0xf4>)
200063ae:	f3c3 030a 	ubfx	r3, r3, #0, #11
200063b2:	f5a3 7300 	sub.w	r3, r3, #512	@ 0x200
200063b6:	fab3 f383 	clz	r3, r3
200063ba:	095b      	lsrs	r3, r3, #5
200063bc:	f363 0241 	bfi	r2, r3, #1, #1
200063c0:	2000      	movs	r0, #0
200063c2:	f887 2084 	strb.w	r2, [r7, #132]	@ 0x84
200063c6:	f000 f977 	bl	200066b8 <tu_edpt_stream_write_xfer>
200063ca:	e7d9      	b.n	20006380 <vendord_open+0x88>
200063cc:	f04f 23e0 	mov.w	r3, #3758153728	@ 0xe000e000
200063d0:	f8d3 3df0 	ldr.w	r3, [r3, #3568]	@ 0xdf0
200063d4:	07db      	lsls	r3, r3, #31
200063d6:	d59b      	bpl.n	20006310 <vendord_open+0x18>
200063d8:	be00      	bkpt	0x0000
200063da:	e799      	b.n	20006310 <vendord_open+0x18>
200063dc:	20009398 	.word	0x20009398
200063e0:	20009548 	.word	0x20009548
200063e4:	20009540 	.word	0x20009540
200063e8:	20009424 	.word	0x20009424
200063ec:	2000941c 	.word	0x2000941c

200063f0 <vendord_xfer_cb>:
200063f0:	b510      	push	{r4, lr}
200063f2:	f8df c090 	ldr.w	ip, [pc, #144]	@ 20006484 <vendord_xfer_cb+0x94>
200063f6:	4604      	mov	r4, r0
200063f8:	f89c 21a9 	ldrb.w	r2, [ip, #425]	@ 0x1a9
200063fc:	b082      	sub	sp, #8
200063fe:	428a      	cmp	r2, r1
20006400:	d016      	beq.n	20006430 <vendord_xfer_cb+0x40>
20006402:	f89c 2085 	ldrb.w	r2, [ip, #133]	@ 0x85
20006406:	428a      	cmp	r2, r1
20006408:	d10f      	bne.n	2000642a <vendord_xfer_cb+0x3a>
2000640a:	4a19      	ldr	r2, [pc, #100]	@ (20006470 <vendord_xfer_cb+0x80>)
2000640c:	b12a      	cbz	r2, 2000641a <vendord_xfer_cb+0x2a>
2000640e:	b299      	uxth	r1, r3
20006410:	2000      	movs	r0, #0
20006412:	9301      	str	r3, [sp, #4]
20006414:	f3af 8000 	nop.w
20006418:	9b01      	ldr	r3, [sp, #4]
2000641a:	4620      	mov	r0, r4
2000641c:	4915      	ldr	r1, [pc, #84]	@ (20006474 <vendord_xfer_cb+0x84>)
2000641e:	9301      	str	r3, [sp, #4]
20006420:	f000 f94a 	bl	200066b8 <tu_edpt_stream_write_xfer>
20006424:	b1e8      	cbz	r0, 20006462 <vendord_xfer_cb+0x72>
20006426:	2001      	movs	r0, #1
20006428:	e000      	b.n	2000642c <vendord_xfer_cb+0x3c>
2000642a:	2000      	movs	r0, #0
2000642c:	b002      	add	sp, #8
2000642e:	bd10      	pop	{r4, pc}
20006430:	f8bc 21b4 	ldrh.w	r2, [ip, #436]	@ 0x1b4
20006434:	b95a      	cbnz	r2, 2000644e <vendord_xfer_cb+0x5e>
20006436:	4a10      	ldr	r2, [pc, #64]	@ (20006478 <vendord_xfer_cb+0x88>)
20006438:	b122      	cbz	r2, 20006444 <vendord_xfer_cb+0x54>
2000643a:	2000      	movs	r0, #0
2000643c:	490f      	ldr	r1, [pc, #60]	@ (2000647c <vendord_xfer_cb+0x8c>)
2000643e:	b29a      	uxth	r2, r3
20006440:	f3af 8000 	nop.w
20006444:	4620      	mov	r0, r4
20006446:	490e      	ldr	r1, [pc, #56]	@ (20006480 <vendord_xfer_cb+0x90>)
20006448:	f000 f970 	bl	2000672c <tu_edpt_stream_read_xfer>
2000644c:	e7eb      	b.n	20006426 <vendord_xfer_cb+0x36>
2000644e:	b29a      	uxth	r2, r3
20006450:	f8dc 11ac 	ldr.w	r1, [ip, #428]	@ 0x1ac
20006454:	f50c 70d8 	add.w	r0, ip, #432	@ 0x1b0
20006458:	9301      	str	r3, [sp, #4]
2000645a:	f000 fb3d 	bl	20006ad8 <tu_fifo_write_n>
2000645e:	9b01      	ldr	r3, [sp, #4]
20006460:	e7e9      	b.n	20006436 <vendord_xfer_cb+0x46>
20006462:	4620      	mov	r0, r4
20006464:	9a01      	ldr	r2, [sp, #4]
20006466:	4903      	ldr	r1, [pc, #12]	@ (20006474 <vendord_xfer_cb+0x84>)
20006468:	f000 f8f0 	bl	2000664c <tu_edpt_stream_write_zlp_if_needed>
2000646c:	e7db      	b.n	20006426 <vendord_xfer_cb+0x36>
2000646e:	bf00      	nop
20006470:	00000000 	.word	0x00000000
20006474:	2000941c 	.word	0x2000941c
20006478:	00000000 	.word	0x00000000
2000647c:	2000939c 	.word	0x2000939c
20006480:	20009540 	.word	0x20009540
20006484:	20009398 	.word	0x20009398

20006488 <tusb_init>:
20006488:	b508      	push	{r3, lr}
2000648a:	2000      	movs	r0, #0
2000648c:	f7fe fdd4 	bl	20005038 <tud_init>
20006490:	b100      	cbz	r0, 20006494 <tusb_init+0xc>
20006492:	bd08      	pop	{r3, pc}
20006494:	f04f 23e0 	mov.w	r3, #3758153728	@ 0xe000e000
20006498:	f8d3 3df0 	ldr.w	r3, [r3, #3568]	@ 0xdf0
2000649c:	07db      	lsls	r3, r3, #31
2000649e:	d5f8      	bpl.n	20006492 <tusb_init+0xa>
200064a0:	be00      	bkpt	0x0000
200064a2:	bd08      	pop	{r3, pc}

200064a4 <tu_edpt_claim>:
200064a4:	7803      	ldrb	r3, [r0, #0]
200064a6:	f013 0301 	ands.w	r3, r3, #1
200064aa:	d11e      	bne.n	200064ea <tu_edpt_claim+0x46>
200064ac:	b530      	push	{r4, r5, lr}
200064ae:	4602      	mov	r2, r0
200064b0:	7800      	ldrb	r0, [r0, #0]
200064b2:	b083      	sub	sp, #12
200064b4:	4604      	mov	r4, r0
200064b6:	0740      	lsls	r0, r0, #29
200064b8:	d502      	bpl.n	200064c0 <tu_edpt_claim+0x1c>
200064ba:	4618      	mov	r0, r3
200064bc:	b003      	add	sp, #12
200064be:	bd30      	pop	{r4, r5, pc}
200064c0:	4608      	mov	r0, r1
200064c2:	460d      	mov	r5, r1
200064c4:	f04f 31ff 	mov.w	r1, #4294967295	@ 0xffffffff
200064c8:	9201      	str	r2, [sp, #4]
200064ca:	f001 f867 	bl	2000759c <mutex_enter_timeout_ms>
200064ce:	9a01      	ldr	r2, [sp, #4]
200064d0:	7813      	ldrb	r3, [r2, #0]
200064d2:	f013 0301 	ands.w	r3, r3, #1
200064d6:	d10b      	bne.n	200064f0 <tu_edpt_claim+0x4c>
200064d8:	7811      	ldrb	r1, [r2, #0]
200064da:	0749      	lsls	r1, r1, #29
200064dc:	d40a      	bmi.n	200064f4 <tu_edpt_claim+0x50>
200064de:	7811      	ldrb	r1, [r2, #0]
200064e0:	2301      	movs	r3, #1
200064e2:	f041 0104 	orr.w	r1, r1, #4
200064e6:	7011      	strb	r1, [r2, #0]
200064e8:	e004      	b.n	200064f4 <tu_edpt_claim+0x50>
200064ea:	2300      	movs	r3, #0
200064ec:	4618      	mov	r0, r3
200064ee:	4770      	bx	lr
200064f0:	f3c4 0380 	ubfx	r3, r4, #2, #1
200064f4:	4628      	mov	r0, r5
200064f6:	9301      	str	r3, [sp, #4]
200064f8:	f001 f86c 	bl	200075d4 <mutex_exit>
200064fc:	9b01      	ldr	r3, [sp, #4]
200064fe:	4618      	mov	r0, r3
20006500:	b003      	add	sp, #12
20006502:	bd30      	pop	{r4, r5, pc}

20006504 <tu_edpt_release>:
20006504:	b570      	push	{r4, r5, r6, lr}
20006506:	460d      	mov	r5, r1
20006508:	4604      	mov	r4, r0
2000650a:	f04f 31ff 	mov.w	r1, #4294967295	@ 0xffffffff
2000650e:	4628      	mov	r0, r5
20006510:	f001 f844 	bl	2000759c <mutex_enter_timeout_ms>
20006514:	7823      	ldrb	r3, [r4, #0]
20006516:	f3c3 0680 	ubfx	r6, r3, #2, #1
2000651a:	075b      	lsls	r3, r3, #29
2000651c:	d508      	bpl.n	20006530 <tu_edpt_release+0x2c>
2000651e:	7823      	ldrb	r3, [r4, #0]
20006520:	f013 0301 	ands.w	r3, r3, #1
20006524:	bf11      	iteee	ne
20006526:	2600      	movne	r6, #0
20006528:	7822      	ldrbeq	r2, [r4, #0]
2000652a:	f363 0282 	bfieq	r2, r3, #2, #1
2000652e:	7022      	strbeq	r2, [r4, #0]
20006530:	4628      	mov	r0, r5
20006532:	f001 f84f 	bl	200075d4 <mutex_exit>
20006536:	4630      	mov	r0, r6
20006538:	bd70      	pop	{r4, r5, r6, pc}
2000653a:	bf00      	nop

2000653c <tu_edpt_validate>:
2000653c:	78c3      	ldrb	r3, [r0, #3]
2000653e:	8882      	ldrh	r2, [r0, #4]
20006540:	f003 0003 	and.w	r0, r3, #3
20006544:	2802      	cmp	r0, #2
20006546:	f3c2 020a 	ubfx	r2, r2, #0, #11
2000654a:	d015      	beq.n	20006578 <tu_edpt_validate+0x3c>
2000654c:	2803      	cmp	r0, #3
2000654e:	d00a      	beq.n	20006566 <tu_edpt_validate+0x2a>
20006550:	2801      	cmp	r0, #1
20006552:	d11c      	bne.n	2000658e <tu_edpt_validate+0x52>
20006554:	2902      	cmp	r1, #2
20006556:	f240 33ff 	movw	r3, #1023	@ 0x3ff
2000655a:	bf08      	it	eq
2000655c:	f44f 6380 	moveq.w	r3, #1024	@ 0x400
20006560:	4293      	cmp	r3, r2
20006562:	d30d      	bcc.n	20006580 <tu_edpt_validate+0x44>
20006564:	4770      	bx	lr
20006566:	2902      	cmp	r1, #2
20006568:	bf14      	ite	ne
2000656a:	2340      	movne	r3, #64	@ 0x40
2000656c:	f44f 6380 	moveq.w	r3, #1024	@ 0x400
20006570:	4293      	cmp	r3, r2
20006572:	d305      	bcc.n	20006580 <tu_edpt_validate+0x44>
20006574:	2001      	movs	r0, #1
20006576:	4770      	bx	lr
20006578:	2902      	cmp	r1, #2
2000657a:	d00a      	beq.n	20006592 <tu_edpt_validate+0x56>
2000657c:	2a40      	cmp	r2, #64	@ 0x40
2000657e:	d9f9      	bls.n	20006574 <tu_edpt_validate+0x38>
20006580:	f04f 23e0 	mov.w	r3, #3758153728	@ 0xe000e000
20006584:	f8d3 3df0 	ldr.w	r3, [r3, #3568]	@ 0xdf0
20006588:	07db      	lsls	r3, r3, #31
2000658a:	d500      	bpl.n	2000658e <tu_edpt_validate+0x52>
2000658c:	be00      	bkpt	0x0000
2000658e:	2000      	movs	r0, #0
20006590:	4770      	bx	lr
20006592:	f5b2 7f00 	cmp.w	r2, #512	@ 0x200
20006596:	d0ed      	beq.n	20006574 <tu_edpt_validate+0x38>
20006598:	e7f2      	b.n	20006580 <tu_edpt_validate+0x44>
2000659a:	bf00      	nop

2000659c <tu_edpt_bind_driver>:
2000659c:	440a      	add	r2, r1
2000659e:	4291      	cmp	r1, r2
200065a0:	d225      	bcs.n	200065ee <tu_edpt_bind_driver+0x52>
200065a2:	f891 c001 	ldrb.w	ip, [r1, #1]
200065a6:	f1bc 0f05 	cmp.w	ip, #5
200065aa:	d005      	beq.n	200065b8 <tu_edpt_bind_driver+0x1c>
200065ac:	f891 c000 	ldrb.w	ip, [r1]
200065b0:	4461      	add	r1, ip
200065b2:	428a      	cmp	r2, r1
200065b4:	d8f5      	bhi.n	200065a2 <tu_edpt_bind_driver+0x6>
200065b6:	4770      	bx	lr
200065b8:	b500      	push	{lr}
200065ba:	f891 c002 	ldrb.w	ip, [r1, #2]
200065be:	f00c 0e7f 	and.w	lr, ip, #127	@ 0x7f
200065c2:	eb00 0e4e 	add.w	lr, r0, lr, lsl #1
200065c6:	ea4f 1cdc 	mov.w	ip, ip, lsr #7
200065ca:	f80e 300c 	strb.w	r3, [lr, ip]
200065ce:	f891 c000 	ldrb.w	ip, [r1]
200065d2:	4461      	add	r1, ip
200065d4:	428a      	cmp	r2, r1
200065d6:	d909      	bls.n	200065ec <tu_edpt_bind_driver+0x50>
200065d8:	f891 c001 	ldrb.w	ip, [r1, #1]
200065dc:	f1bc 0f05 	cmp.w	ip, #5
200065e0:	d0eb      	beq.n	200065ba <tu_edpt_bind_driver+0x1e>
200065e2:	f891 c000 	ldrb.w	ip, [r1]
200065e6:	4461      	add	r1, ip
200065e8:	428a      	cmp	r2, r1
200065ea:	d8f5      	bhi.n	200065d8 <tu_edpt_bind_driver+0x3c>
200065ec:	bd00      	pop	{pc}
200065ee:	4770      	bx	lr

200065f0 <tu_edpt_stream_init>:
200065f0:	b570      	push	{r4, r5, r6, lr}
200065f2:	b084      	sub	sp, #16
200065f4:	9300      	str	r3, [sp, #0]
200065f6:	f890 c000 	ldrb.w	ip, [r0]
200065fa:	4616      	mov	r6, r2
200065fc:	f361 0c00 	bfi	ip, r1, #0, #1
20006600:	f8bd 2024 	ldrh.w	r2, [sp, #36]	@ 0x24
20006604:	4604      	mov	r4, r0
20006606:	2301      	movs	r3, #1
20006608:	9908      	ldr	r1, [sp, #32]
2000660a:	f800 cb08 	strb.w	ip, [r0], #8
2000660e:	f8bd 502c 	ldrh.w	r5, [sp, #44]	@ 0x2c
20006612:	9203      	str	r2, [sp, #12]
20006614:	f000 f8f2 	bl	200067fc <tu_fifo_config>
20006618:	9b08      	ldr	r3, [sp, #32]
2000661a:	b10b      	cbz	r3, 20006620 <tu_edpt_stream_init+0x30>
2000661c:	9a03      	ldr	r2, [sp, #12]
2000661e:	b92a      	cbnz	r2, 2000662c <tu_edpt_stream_init+0x3c>
20006620:	2001      	movs	r0, #1
20006622:	9b0a      	ldr	r3, [sp, #40]	@ 0x28
20006624:	8065      	strh	r5, [r4, #2]
20006626:	6063      	str	r3, [r4, #4]
20006628:	b004      	add	sp, #16
2000662a:	bd70      	pop	{r4, r5, r6, pc}
2000662c:	f104 001c 	add.w	r0, r4, #28
20006630:	9003      	str	r0, [sp, #12]
20006632:	f7fa ff1f 	bl	20001474 <mutex_init>
20006636:	9803      	ldr	r0, [sp, #12]
20006638:	b91e      	cbnz	r6, 20006642 <tu_edpt_stream_init+0x52>
2000663a:	4633      	mov	r3, r6
2000663c:	e9c4 3005 	strd	r3, r0, [r4, #20]
20006640:	e7ee      	b.n	20006620 <tu_edpt_stream_init+0x30>
20006642:	4603      	mov	r3, r0
20006644:	2000      	movs	r0, #0
20006646:	e7f9      	b.n	2000663c <tu_edpt_stream_init+0x4c>

20006648 <tu_edpt_stream_deinit>:
20006648:	2001      	movs	r0, #1
2000664a:	4770      	bx	lr

2000664c <tu_edpt_stream_write_zlp_if_needed>:
2000664c:	b570      	push	{r4, r5, r6, lr}
2000664e:	4606      	mov	r6, r0
20006650:	4608      	mov	r0, r1
20006652:	f240 13ff 	movw	r3, #511	@ 0x1ff
20006656:	460c      	mov	r4, r1
20006658:	f810 1b08 	ldrb.w	r1, [r0], #8
2000665c:	b082      	sub	sp, #8
2000665e:	f011 0f02 	tst.w	r1, #2
20006662:	9201      	str	r2, [sp, #4]
20006664:	bf0c      	ite	eq
20006666:	253f      	moveq	r5, #63	@ 0x3f
20006668:	461d      	movne	r5, r3
2000666a:	f000 f8f7 	bl	2000685c <tu_fifo_count>
2000666e:	9a01      	ldr	r2, [sp, #4]
20006670:	b928      	cbnz	r0, 2000667e <tu_edpt_stream_write_zlp_if_needed+0x32>
20006672:	b122      	cbz	r2, 2000667e <tu_edpt_stream_write_zlp_if_needed+0x32>
20006674:	4215      	tst	r5, r2
20006676:	d102      	bne.n	2000667e <tu_edpt_stream_write_zlp_if_needed+0x32>
20006678:	7823      	ldrb	r3, [r4, #0]
2000667a:	07da      	lsls	r2, r3, #31
2000667c:	d502      	bpl.n	20006684 <tu_edpt_stream_write_zlp_if_needed+0x38>
2000667e:	2000      	movs	r0, #0
20006680:	b002      	add	sp, #8
20006682:	bd70      	pop	{r4, r5, r6, pc}
20006684:	4630      	mov	r0, r6
20006686:	7861      	ldrb	r1, [r4, #1]
20006688:	f7ff f9a2 	bl	200059d0 <usbd_edpt_claim>
2000668c:	2800      	cmp	r0, #0
2000668e:	d0f6      	beq.n	2000667e <tu_edpt_stream_write_zlp_if_needed+0x32>
20006690:	7823      	ldrb	r3, [r4, #0]
20006692:	f013 0301 	ands.w	r3, r3, #1
20006696:	d007      	beq.n	200066a8 <tu_edpt_stream_write_zlp_if_needed+0x5c>
20006698:	f04f 23e0 	mov.w	r3, #3758153728	@ 0xe000e000
2000669c:	f8d3 3df0 	ldr.w	r3, [r3, #3568]	@ 0xdf0
200066a0:	07db      	lsls	r3, r3, #31
200066a2:	d5ec      	bpl.n	2000667e <tu_edpt_stream_write_zlp_if_needed+0x32>
200066a4:	be00      	bkpt	0x0000
200066a6:	e7ea      	b.n	2000667e <tu_edpt_stream_write_zlp_if_needed+0x32>
200066a8:	461a      	mov	r2, r3
200066aa:	4630      	mov	r0, r6
200066ac:	7861      	ldrb	r1, [r4, #1]
200066ae:	f7ff f9b3 	bl	20005a18 <usbd_edpt_xfer>
200066b2:	2800      	cmp	r0, #0
200066b4:	d1e4      	bne.n	20006680 <tu_edpt_stream_write_zlp_if_needed+0x34>
200066b6:	e7ef      	b.n	20006698 <tu_edpt_stream_write_zlp_if_needed+0x4c>

200066b8 <tu_edpt_stream_write_xfer>:
200066b8:	b570      	push	{r4, r5, r6, lr}
200066ba:	4605      	mov	r5, r0
200066bc:	b082      	sub	sp, #8
200066be:	f101 0008 	add.w	r0, r1, #8
200066c2:	460c      	mov	r4, r1
200066c4:	f000 f8ca 	bl	2000685c <tu_fifo_count>
200066c8:	b110      	cbz	r0, 200066d0 <tu_edpt_stream_write_xfer+0x18>
200066ca:	7823      	ldrb	r3, [r4, #0]
200066cc:	07da      	lsls	r2, r3, #31
200066ce:	d502      	bpl.n	200066d6 <tu_edpt_stream_write_xfer+0x1e>
200066d0:	2000      	movs	r0, #0
200066d2:	b002      	add	sp, #8
200066d4:	bd70      	pop	{r4, r5, r6, pc}
200066d6:	4628      	mov	r0, r5
200066d8:	7861      	ldrb	r1, [r4, #1]
200066da:	f7ff f979 	bl	200059d0 <usbd_edpt_claim>
200066de:	2800      	cmp	r0, #0
200066e0:	d0f6      	beq.n	200066d0 <tu_edpt_stream_write_xfer+0x18>
200066e2:	8862      	ldrh	r2, [r4, #2]
200066e4:	6861      	ldr	r1, [r4, #4]
200066e6:	f104 0008 	add.w	r0, r4, #8
200066ea:	f000 f931 	bl	20006950 <tu_fifo_read_n>
200066ee:	7822      	ldrb	r2, [r4, #0]
200066f0:	4603      	mov	r3, r0
200066f2:	f002 0201 	and.w	r2, r2, #1
200066f6:	b140      	cbz	r0, 2000670a <tu_edpt_stream_write_xfer+0x52>
200066f8:	b172      	cbz	r2, 20006718 <tu_edpt_stream_write_xfer+0x60>
200066fa:	f04f 23e0 	mov.w	r3, #3758153728	@ 0xe000e000
200066fe:	f8d3 3df0 	ldr.w	r3, [r3, #3568]	@ 0xdf0
20006702:	07db      	lsls	r3, r3, #31
20006704:	d5e4      	bpl.n	200066d0 <tu_edpt_stream_write_xfer+0x18>
20006706:	be00      	bkpt	0x0000
20006708:	e7e2      	b.n	200066d0 <tu_edpt_stream_write_xfer+0x18>
2000670a:	2a00      	cmp	r2, #0
2000670c:	d1e0      	bne.n	200066d0 <tu_edpt_stream_write_xfer+0x18>
2000670e:	4628      	mov	r0, r5
20006710:	7861      	ldrb	r1, [r4, #1]
20006712:	f7ff f96f 	bl	200059f4 <usbd_edpt_release>
20006716:	e7db      	b.n	200066d0 <tu_edpt_stream_write_xfer+0x18>
20006718:	9001      	str	r0, [sp, #4]
2000671a:	6862      	ldr	r2, [r4, #4]
2000671c:	4628      	mov	r0, r5
2000671e:	7861      	ldrb	r1, [r4, #1]
20006720:	f7ff f97a 	bl	20005a18 <usbd_edpt_xfer>
20006724:	2800      	cmp	r0, #0
20006726:	d0e8      	beq.n	200066fa <tu_edpt_stream_write_xfer+0x42>
20006728:	9801      	ldr	r0, [sp, #4]
2000672a:	e7d2      	b.n	200066d2 <tu_edpt_stream_write_xfer+0x1a>

2000672c <tu_edpt_stream_read_xfer>:
2000672c:	e92d 41f0 	stmdb	sp!, {r4, r5, r6, r7, r8, lr}
20006730:	898a      	ldrh	r2, [r1, #12]
20006732:	460c      	mov	r4, r1
20006734:	4605      	mov	r5, r0
20006736:	780b      	ldrb	r3, [r1, #0]
20006738:	b082      	sub	sp, #8
2000673a:	b92a      	cbnz	r2, 20006748 <tu_edpt_stream_read_xfer+0x1c>
2000673c:	07de      	lsls	r6, r3, #31
2000673e:	d537      	bpl.n	200067b0 <tu_edpt_stream_read_xfer+0x84>
20006740:	2000      	movs	r0, #0
20006742:	b002      	add	sp, #8
20006744:	e8bd 81f0 	ldmia.w	sp!, {r4, r5, r6, r7, r8, pc}
20006748:	0799      	lsls	r1, r3, #30
2000674a:	f104 0008 	add.w	r0, r4, #8
2000674e:	bf47      	ittee	mi
20006750:	f44f 487e 	movmi.w	r8, #65024	@ 0xfe00
20006754:	f44f 7600 	movmi.w	r6, #512	@ 0x200
20006758:	f64f 78c0 	movwpl	r8, #65472	@ 0xffc0
2000675c:	2640      	movpl	r6, #64	@ 0x40
2000675e:	f000 f897 	bl	20006890 <tu_fifo_remaining>
20006762:	4286      	cmp	r6, r0
20006764:	f104 0708 	add.w	r7, r4, #8
20006768:	d8ea      	bhi.n	20006740 <tu_edpt_stream_read_xfer+0x14>
2000676a:	7823      	ldrb	r3, [r4, #0]
2000676c:	07da      	lsls	r2, r3, #31
2000676e:	d4e7      	bmi.n	20006740 <tu_edpt_stream_read_xfer+0x14>
20006770:	4628      	mov	r0, r5
20006772:	7861      	ldrb	r1, [r4, #1]
20006774:	f7ff f92c 	bl	200059d0 <usbd_edpt_claim>
20006778:	2800      	cmp	r0, #0
2000677a:	d0e1      	beq.n	20006740 <tu_edpt_stream_read_xfer+0x14>
2000677c:	4638      	mov	r0, r7
2000677e:	f000 f887 	bl	20006890 <tu_fifo_remaining>
20006782:	7823      	ldrb	r3, [r4, #0]
20006784:	4286      	cmp	r6, r0
20006786:	f003 0301 	and.w	r3, r3, #1
2000678a:	d82e      	bhi.n	200067ea <tu_edpt_stream_read_xfer+0xbe>
2000678c:	b9c3      	cbnz	r3, 200067c0 <tu_edpt_stream_read_xfer+0x94>
2000678e:	8863      	ldrh	r3, [r4, #2]
20006790:	ea08 0200 	and.w	r2, r8, r0
20006794:	4293      	cmp	r3, r2
20006796:	bf28      	it	cs
20006798:	4613      	movcs	r3, r2
2000679a:	7861      	ldrb	r1, [r4, #1]
2000679c:	2b00      	cmp	r3, #0
2000679e:	d02b      	beq.n	200067f8 <tu_edpt_stream_read_xfer+0xcc>
200067a0:	6862      	ldr	r2, [r4, #4]
200067a2:	4628      	mov	r0, r5
200067a4:	9301      	str	r3, [sp, #4]
200067a6:	f7ff f937 	bl	20005a18 <usbd_edpt_xfer>
200067aa:	b148      	cbz	r0, 200067c0 <tu_edpt_stream_read_xfer+0x94>
200067ac:	9801      	ldr	r0, [sp, #4]
200067ae:	e7c8      	b.n	20006742 <tu_edpt_stream_read_xfer+0x16>
200067b0:	7849      	ldrb	r1, [r1, #1]
200067b2:	f7ff f90d 	bl	200059d0 <usbd_edpt_claim>
200067b6:	2800      	cmp	r0, #0
200067b8:	d0c2      	beq.n	20006740 <tu_edpt_stream_read_xfer+0x14>
200067ba:	7823      	ldrb	r3, [r4, #0]
200067bc:	07d8      	lsls	r0, r3, #31
200067be:	d507      	bpl.n	200067d0 <tu_edpt_stream_read_xfer+0xa4>
200067c0:	f04f 23e0 	mov.w	r3, #3758153728	@ 0xe000e000
200067c4:	f8d3 3df0 	ldr.w	r3, [r3, #3568]	@ 0xdf0
200067c8:	07db      	lsls	r3, r3, #31
200067ca:	d5b9      	bpl.n	20006740 <tu_edpt_stream_read_xfer+0x14>
200067cc:	be00      	bkpt	0x0000
200067ce:	e7b7      	b.n	20006740 <tu_edpt_stream_read_xfer+0x14>
200067d0:	8863      	ldrh	r3, [r4, #2]
200067d2:	7861      	ldrb	r1, [r4, #1]
200067d4:	b13b      	cbz	r3, 200067e6 <tu_edpt_stream_read_xfer+0xba>
200067d6:	6862      	ldr	r2, [r4, #4]
200067d8:	4628      	mov	r0, r5
200067da:	f7ff f91d 	bl	20005a18 <usbd_edpt_xfer>
200067de:	2800      	cmp	r0, #0
200067e0:	d0ee      	beq.n	200067c0 <tu_edpt_stream_read_xfer+0x94>
200067e2:	8860      	ldrh	r0, [r4, #2]
200067e4:	e7ad      	b.n	20006742 <tu_edpt_stream_read_xfer+0x16>
200067e6:	461a      	mov	r2, r3
200067e8:	e7f6      	b.n	200067d8 <tu_edpt_stream_read_xfer+0xac>
200067ea:	2b00      	cmp	r3, #0
200067ec:	d1a8      	bne.n	20006740 <tu_edpt_stream_read_xfer+0x14>
200067ee:	4628      	mov	r0, r5
200067f0:	7861      	ldrb	r1, [r4, #1]
200067f2:	f7ff f8ff 	bl	200059f4 <usbd_edpt_release>
200067f6:	e7a3      	b.n	20006740 <tu_edpt_stream_read_xfer+0x14>
200067f8:	461a      	mov	r2, r3
200067fa:	e7d2      	b.n	200067a2 <tu_edpt_stream_read_xfer+0x76>

200067fc <tu_fifo_config>:
200067fc:	e92d 41f0 	stmdb	sp!, {r4, r5, r6, r7, r8, lr}
20006800:	f5b2 4f00 	cmp.w	r2, #32768	@ 0x8000
20006804:	f89d 5018 	ldrb.w	r5, [sp, #24]
20006808:	d824      	bhi.n	20006854 <tu_fifo_config+0x58>
2000680a:	4604      	mov	r4, r0
2000680c:	68c0      	ldr	r0, [r0, #12]
2000680e:	4698      	mov	r8, r3
20006810:	460f      	mov	r7, r1
20006812:	4616      	mov	r6, r2
20006814:	b118      	cbz	r0, 2000681e <tu_fifo_config+0x22>
20006816:	f04f 31ff 	mov.w	r1, #4294967295	@ 0xffffffff
2000681a:	f000 febf 	bl	2000759c <mutex_enter_timeout_ms>
2000681e:	6920      	ldr	r0, [r4, #16]
20006820:	b118      	cbz	r0, 2000682a <tu_fifo_config+0x2e>
20006822:	f04f 31ff 	mov.w	r1, #4294967295	@ 0xffffffff
20006826:	f000 feb9 	bl	2000759c <mutex_enter_timeout_ms>
2000682a:	2200      	movs	r2, #0
2000682c:	f3c8 030e 	ubfx	r3, r8, #0, #15
20006830:	68e0      	ldr	r0, [r4, #12]
20006832:	ea43 33c5 	orr.w	r3, r3, r5, lsl #15
20006836:	8162      	strh	r2, [r4, #10]
20006838:	6027      	str	r7, [r4, #0]
2000683a:	80a6      	strh	r6, [r4, #4]
2000683c:	80e3      	strh	r3, [r4, #6]
2000683e:	8122      	strh	r2, [r4, #8]
20006840:	b108      	cbz	r0, 20006846 <tu_fifo_config+0x4a>
20006842:	f000 fec7 	bl	200075d4 <mutex_exit>
20006846:	6920      	ldr	r0, [r4, #16]
20006848:	b108      	cbz	r0, 2000684e <tu_fifo_config+0x52>
2000684a:	f000 fec3 	bl	200075d4 <mutex_exit>
2000684e:	2001      	movs	r0, #1
20006850:	e8bd 81f0 	ldmia.w	sp!, {r4, r5, r6, r7, r8, pc}
20006854:	2000      	movs	r0, #0
20006856:	e8bd 81f0 	ldmia.w	sp!, {r4, r5, r6, r7, r8, pc}
2000685a:	bf00      	nop

2000685c <tu_fifo_count>:
2000685c:	8903      	ldrh	r3, [r0, #8]
2000685e:	8942      	ldrh	r2, [r0, #10]
20006860:	b29b      	uxth	r3, r3
20006862:	b292      	uxth	r2, r2
20006864:	8880      	ldrh	r0, [r0, #4]
20006866:	4293      	cmp	r3, r2
20006868:	bf36      	itet	cc
2000686a:	ebc2 0240 	rsbcc	r2, r2, r0, lsl #1
2000686e:	1a9b      	subcs	r3, r3, r2
20006870:	189b      	addcc	r3, r3, r2
20006872:	b29b      	uxth	r3, r3
20006874:	4298      	cmp	r0, r3
20006876:	bf28      	it	cs
20006878:	4618      	movcs	r0, r3
2000687a:	4770      	bx	lr

2000687c <tu_fifo_empty>:
2000687c:	8902      	ldrh	r2, [r0, #8]
2000687e:	8943      	ldrh	r3, [r0, #10]
20006880:	b290      	uxth	r0, r2
20006882:	b29b      	uxth	r3, r3
20006884:	1ac0      	subs	r0, r0, r3
20006886:	fab0 f080 	clz	r0, r0
2000688a:	0940      	lsrs	r0, r0, #5
2000688c:	4770      	bx	lr
2000688e:	bf00      	nop

20006890 <tu_fifo_remaining>:
20006890:	8903      	ldrh	r3, [r0, #8]
20006892:	8942      	ldrh	r2, [r0, #10]
20006894:	b29b      	uxth	r3, r3
20006896:	8880      	ldrh	r0, [r0, #4]
20006898:	b292      	uxth	r2, r2
2000689a:	4293      	cmp	r3, r2
2000689c:	bf36      	itet	cc
2000689e:	ebc2 0240 	rsbcc	r2, r2, r0, lsl #1
200068a2:	1a9b      	subcs	r3, r3, r2
200068a4:	189b      	addcc	r3, r3, r2
200068a6:	b29b      	uxth	r3, r3
200068a8:	4298      	cmp	r0, r3
200068aa:	bf86      	itte	hi
200068ac:	1ac0      	subhi	r0, r0, r3
200068ae:	b280      	uxthhi	r0, r0
200068b0:	2000      	movls	r0, #0
200068b2:	4770      	bx	lr

200068b4 <tu_fifo_read>:
200068b4:	b530      	push	{r4, r5, lr}
200068b6:	4604      	mov	r4, r0
200068b8:	6900      	ldr	r0, [r0, #16]
200068ba:	460d      	mov	r5, r1
200068bc:	b083      	sub	sp, #12
200068be:	b118      	cbz	r0, 200068c8 <tu_fifo_read+0x14>
200068c0:	f04f 31ff 	mov.w	r1, #4294967295	@ 0xffffffff
200068c4:	f000 fe6a 	bl	2000759c <mutex_enter_timeout_ms>
200068c8:	8922      	ldrh	r2, [r4, #8]
200068ca:	8961      	ldrh	r1, [r4, #10]
200068cc:	b292      	uxth	r2, r2
200068ce:	b289      	uxth	r1, r1
200068d0:	88a3      	ldrh	r3, [r4, #4]
200068d2:	428a      	cmp	r2, r1
200068d4:	bf36      	itet	cc
200068d6:	ebc1 0043 	rsbcc	r0, r1, r3, lsl #1
200068da:	1a50      	subcs	r0, r2, r1
200068dc:	1880      	addcc	r0, r0, r2
200068de:	b280      	uxth	r0, r0
200068e0:	b368      	cbz	r0, 2000693e <tu_fifo_read+0x8a>
200068e2:	4283      	cmp	r3, r0
200068e4:	d209      	bcs.n	200068fa <tu_fifo_read+0x46>
200068e6:	429a      	cmp	r2, r3
200068e8:	bf2c      	ite	cs
200068ea:	1ad2      	subcs	r2, r2, r3
200068ec:	18d2      	addcc	r2, r2, r3
200068ee:	b291      	uxth	r1, r2
200068f0:	428b      	cmp	r3, r1
200068f2:	8161      	strh	r1, [r4, #10]
200068f4:	d803      	bhi.n	200068fe <tu_fifo_read+0x4a>
200068f6:	1ac9      	subs	r1, r1, r3
200068f8:	b289      	uxth	r1, r1
200068fa:	428b      	cmp	r3, r1
200068fc:	d9fb      	bls.n	200068f6 <tu_fifo_read+0x42>
200068fe:	88e2      	ldrh	r2, [r4, #6]
20006900:	6823      	ldr	r3, [r4, #0]
20006902:	f3c2 020e 	ubfx	r2, r2, #0, #15
20006906:	fb02 3101 	mla	r1, r2, r1, r3
2000690a:	4628      	mov	r0, r5
2000690c:	f000 fcc0 	bl	20007290 <memcpy>
20006910:	8962      	ldrh	r2, [r4, #10]
20006912:	88a3      	ldrh	r3, [r4, #4]
20006914:	b292      	uxth	r2, r2
20006916:	1c51      	adds	r1, r2, #1
20006918:	b289      	uxth	r1, r1
2000691a:	428a      	cmp	r2, r1
2000691c:	f04f 0201 	mov.w	r2, #1
20006920:	d910      	bls.n	20006944 <tu_fifo_read+0x90>
20006922:	2100      	movs	r1, #0
20006924:	fa03 f002 	lsl.w	r0, r3, r2
20006928:	1a09      	subs	r1, r1, r0
2000692a:	6920      	ldr	r0, [r4, #16]
2000692c:	8161      	strh	r1, [r4, #10]
2000692e:	b118      	cbz	r0, 20006938 <tu_fifo_read+0x84>
20006930:	9201      	str	r2, [sp, #4]
20006932:	f000 fe4f 	bl	200075d4 <mutex_exit>
20006936:	9a01      	ldr	r2, [sp, #4]
20006938:	4610      	mov	r0, r2
2000693a:	b003      	add	sp, #12
2000693c:	bd30      	pop	{r4, r5, pc}
2000693e:	4602      	mov	r2, r0
20006940:	8961      	ldrh	r1, [r4, #10]
20006942:	b289      	uxth	r1, r1
20006944:	ebb1 0f43 	cmp.w	r1, r3, lsl #1
20006948:	ea4f 0043 	mov.w	r0, r3, lsl #1
2000694c:	dbed      	blt.n	2000692a <tu_fifo_read+0x76>
2000694e:	e7eb      	b.n	20006928 <tu_fifo_read+0x74>

20006950 <tu_fifo_read_n>:
20006950:	e92d 41f0 	stmdb	sp!, {r4, r5, r6, r7, r8, lr}
20006954:	4605      	mov	r5, r0
20006956:	6900      	ldr	r0, [r0, #16]
20006958:	4688      	mov	r8, r1
2000695a:	b082      	sub	sp, #8
2000695c:	b128      	cbz	r0, 2000696a <tu_fifo_read_n+0x1a>
2000695e:	f04f 31ff 	mov.w	r1, #4294967295	@ 0xffffffff
20006962:	9200      	str	r2, [sp, #0]
20006964:	f000 fe1a 	bl	2000759c <mutex_enter_timeout_ms>
20006968:	9a00      	ldr	r2, [sp, #0]
2000696a:	8929      	ldrh	r1, [r5, #8]
2000696c:	896b      	ldrh	r3, [r5, #10]
2000696e:	b289      	uxth	r1, r1
20006970:	b29b      	uxth	r3, r3
20006972:	88ac      	ldrh	r4, [r5, #4]
20006974:	4299      	cmp	r1, r3
20006976:	bf36      	itet	cc
20006978:	ebc3 0644 	rsbcc	r6, r3, r4, lsl #1
2000697c:	1ace      	subcs	r6, r1, r3
2000697e:	1876      	addcc	r6, r6, r1
20006980:	b2b6      	uxth	r6, r6
20006982:	2e00      	cmp	r6, #0
20006984:	d04b      	beq.n	20006a1e <tu_fifo_read_n+0xce>
20006986:	42b4      	cmp	r4, r6
20006988:	d341      	bcc.n	20006a0e <tu_fifo_read_n+0xbe>
2000698a:	42b2      	cmp	r2, r6
2000698c:	bf28      	it	cs
2000698e:	4632      	movcs	r2, r6
20006990:	429c      	cmp	r4, r3
20006992:	b296      	uxth	r6, r2
20006994:	d803      	bhi.n	2000699e <tu_fifo_read_n+0x4e>
20006996:	1b1b      	subs	r3, r3, r4
20006998:	b29b      	uxth	r3, r3
2000699a:	429c      	cmp	r4, r3
2000699c:	d9fb      	bls.n	20006996 <tu_fifo_read_n+0x46>
2000699e:	f8b5 c006 	ldrh.w	ip, [r5, #6]
200069a2:	1ae0      	subs	r0, r4, r3
200069a4:	6829      	ldr	r1, [r5, #0]
200069a6:	b280      	uxth	r0, r0
200069a8:	f3cc 020e 	ubfx	r2, ip, #0, #15
200069ac:	4286      	cmp	r6, r0
200069ae:	4617      	mov	r7, r2
200069b0:	fb02 1103 	mla	r1, r2, r3, r1
200069b4:	d925      	bls.n	20006a02 <tu_fifo_read_n+0xb2>
200069b6:	fb10 f202 	smulbb	r2, r0, r2
200069ba:	4640      	mov	r0, r8
200069bc:	b292      	uxth	r2, r2
200069be:	9301      	str	r3, [sp, #4]
200069c0:	9200      	str	r2, [sp, #0]
200069c2:	f000 fc65 	bl	20007290 <memcpy>
200069c6:	9b01      	ldr	r3, [sp, #4]
200069c8:	9a00      	ldr	r2, [sp, #0]
200069ca:	1b34      	subs	r4, r6, r4
200069cc:	4423      	add	r3, r4
200069ce:	eb08 0002 	add.w	r0, r8, r2
200069d2:	fb13 f207 	smulbb	r2, r3, r7
200069d6:	6829      	ldr	r1, [r5, #0]
200069d8:	b292      	uxth	r2, r2
200069da:	f000 fc59 	bl	20007290 <memcpy>
200069de:	896a      	ldrh	r2, [r5, #10]
200069e0:	88ac      	ldrh	r4, [r5, #4]
200069e2:	b292      	uxth	r2, r2
200069e4:	1993      	adds	r3, r2, r6
200069e6:	b29b      	uxth	r3, r3
200069e8:	429a      	cmp	r2, r3
200069ea:	d91a      	bls.n	20006a22 <tu_fifo_read_n+0xd2>
200069ec:	0062      	lsls	r2, r4, #1
200069ee:	1a9b      	subs	r3, r3, r2
200069f0:	6928      	ldr	r0, [r5, #16]
200069f2:	816b      	strh	r3, [r5, #10]
200069f4:	b108      	cbz	r0, 200069fa <tu_fifo_read_n+0xaa>
200069f6:	f000 fded 	bl	200075d4 <mutex_exit>
200069fa:	4630      	mov	r0, r6
200069fc:	b002      	add	sp, #8
200069fe:	e8bd 81f0 	ldmia.w	sp!, {r4, r5, r6, r7, r8, pc}
20006a02:	4640      	mov	r0, r8
20006a04:	fb06 f202 	mul.w	r2, r6, r2
20006a08:	f000 fc42 	bl	20007290 <memcpy>
20006a0c:	e7e7      	b.n	200069de <tu_fifo_read_n+0x8e>
20006a0e:	42a1      	cmp	r1, r4
20006a10:	bf2c      	ite	cs
20006a12:	1b09      	subcs	r1, r1, r4
20006a14:	1909      	addcc	r1, r1, r4
20006a16:	b28b      	uxth	r3, r1
20006a18:	4626      	mov	r6, r4
20006a1a:	816b      	strh	r3, [r5, #10]
20006a1c:	e7b5      	b.n	2000698a <tu_fifo_read_n+0x3a>
20006a1e:	896b      	ldrh	r3, [r5, #10]
20006a20:	b29b      	uxth	r3, r3
20006a22:	ebb3 0f44 	cmp.w	r3, r4, lsl #1
20006a26:	ea4f 0244 	mov.w	r2, r4, lsl #1
20006a2a:	dbe1      	blt.n	200069f0 <tu_fifo_read_n+0xa0>
20006a2c:	e7df      	b.n	200069ee <tu_fifo_read_n+0x9e>
20006a2e:	bf00      	nop

20006a30 <tu_fifo_write>:
20006a30:	b570      	push	{r4, r5, r6, lr}
20006a32:	4604      	mov	r4, r0
20006a34:	68c0      	ldr	r0, [r0, #12]
20006a36:	460e      	mov	r6, r1
20006a38:	b082      	sub	sp, #8
20006a3a:	b118      	cbz	r0, 20006a44 <tu_fifo_write+0x14>
20006a3c:	f04f 31ff 	mov.w	r1, #4294967295	@ 0xffffffff
20006a40:	f000 fdac 	bl	2000759c <mutex_enter_timeout_ms>
20006a44:	8925      	ldrh	r5, [r4, #8]
20006a46:	8923      	ldrh	r3, [r4, #8]
20006a48:	8961      	ldrh	r1, [r4, #10]
20006a4a:	b29b      	uxth	r3, r3
20006a4c:	b289      	uxth	r1, r1
20006a4e:	88a2      	ldrh	r2, [r4, #4]
20006a50:	428b      	cmp	r3, r1
20006a52:	bf36      	itet	cc
20006a54:	ebc1 0142 	rsbcc	r1, r1, r2, lsl #1
20006a58:	1a5b      	subcs	r3, r3, r1
20006a5a:	185b      	addcc	r3, r3, r1
20006a5c:	b29b      	uxth	r3, r3
20006a5e:	429a      	cmp	r2, r3
20006a60:	b2ad      	uxth	r5, r5
20006a62:	d80b      	bhi.n	20006a7c <tu_fifo_write+0x4c>
20006a64:	79e1      	ldrb	r1, [r4, #7]
20006a66:	09c9      	lsrs	r1, r1, #7
20006a68:	d108      	bne.n	20006a7c <tu_fifo_write+0x4c>
20006a6a:	68e0      	ldr	r0, [r4, #12]
20006a6c:	b118      	cbz	r0, 20006a76 <tu_fifo_write+0x46>
20006a6e:	9101      	str	r1, [sp, #4]
20006a70:	f000 fdb0 	bl	200075d4 <mutex_exit>
20006a74:	9901      	ldr	r1, [sp, #4]
20006a76:	4608      	mov	r0, r1
20006a78:	b002      	add	sp, #8
20006a7a:	bd70      	pop	{r4, r5, r6, pc}
20006a7c:	4295      	cmp	r5, r2
20006a7e:	bf28      	it	cs
20006a80:	462b      	movcs	r3, r5
20006a82:	d317      	bcc.n	20006ab4 <tu_fifo_write+0x84>
20006a84:	1a9b      	subs	r3, r3, r2
20006a86:	b29b      	uxth	r3, r3
20006a88:	4293      	cmp	r3, r2
20006a8a:	d2fb      	bcs.n	20006a84 <tu_fifo_write+0x54>
20006a8c:	88e2      	ldrh	r2, [r4, #6]
20006a8e:	6820      	ldr	r0, [r4, #0]
20006a90:	f3c2 020e 	ubfx	r2, r2, #0, #15
20006a94:	fb02 0003 	mla	r0, r2, r3, r0
20006a98:	4631      	mov	r1, r6
20006a9a:	f000 fbf9 	bl	20007290 <memcpy>
20006a9e:	1c6b      	adds	r3, r5, #1
20006aa0:	b29b      	uxth	r3, r3
20006aa2:	429d      	cmp	r5, r3
20006aa4:	88a2      	ldrh	r2, [r4, #4]
20006aa6:	d911      	bls.n	20006acc <tu_fifo_write+0x9c>
20006aa8:	2300      	movs	r3, #0
20006aaa:	0051      	lsls	r1, r2, #1
20006aac:	1a5b      	subs	r3, r3, r1
20006aae:	2101      	movs	r1, #1
20006ab0:	8123      	strh	r3, [r4, #8]
20006ab2:	e7da      	b.n	20006a6a <tu_fifo_write+0x3a>
20006ab4:	88e2      	ldrh	r2, [r4, #6]
20006ab6:	6820      	ldr	r0, [r4, #0]
20006ab8:	f3c2 020e 	ubfx	r2, r2, #0, #15
20006abc:	fb05 0002 	mla	r0, r5, r2, r0
20006ac0:	4631      	mov	r1, r6
20006ac2:	f000 fbe5 	bl	20007290 <memcpy>
20006ac6:	3501      	adds	r5, #1
20006ac8:	88a2      	ldrh	r2, [r4, #4]
20006aca:	b2ab      	uxth	r3, r5
20006acc:	ebb3 0f42 	cmp.w	r3, r2, lsl #1
20006ad0:	ea4f 0142 	mov.w	r1, r2, lsl #1
20006ad4:	dbeb      	blt.n	20006aae <tu_fifo_write+0x7e>
20006ad6:	e7e9      	b.n	20006aac <tu_fifo_write+0x7c>

20006ad8 <tu_fifo_write_n>:
20006ad8:	e92d 47f0 	stmdb	sp!, {r4, r5, r6, r7, r8, r9, sl, lr}
20006adc:	4615      	mov	r5, r2
20006ade:	b082      	sub	sp, #8
20006ae0:	2a00      	cmp	r2, #0
20006ae2:	d04a      	beq.n	20006b7a <tu_fifo_write_n+0xa2>
20006ae4:	4604      	mov	r4, r0
20006ae6:	68c0      	ldr	r0, [r0, #12]
20006ae8:	4688      	mov	r8, r1
20006aea:	b118      	cbz	r0, 20006af4 <tu_fifo_write_n+0x1c>
20006aec:	f04f 31ff 	mov.w	r1, #4294967295	@ 0xffffffff
20006af0:	f000 fd54 	bl	2000759c <mutex_enter_timeout_ms>
20006af4:	79e1      	ldrb	r1, [r4, #7]
20006af6:	8926      	ldrh	r6, [r4, #8]
20006af8:	8963      	ldrh	r3, [r4, #10]
20006afa:	09c9      	lsrs	r1, r1, #7
20006afc:	88a2      	ldrh	r2, [r4, #4]
20006afe:	b2b6      	uxth	r6, r6
20006b00:	b29b      	uxth	r3, r3
20006b02:	d13e      	bne.n	20006b82 <tu_fifo_write_n+0xaa>
20006b04:	429e      	cmp	r6, r3
20006b06:	bf36      	itet	cc
20006b08:	ebc3 0342 	rsbcc	r3, r3, r2, lsl #1
20006b0c:	1af3      	subcs	r3, r6, r3
20006b0e:	199b      	addcc	r3, r3, r6
20006b10:	b29b      	uxth	r3, r3
20006b12:	4293      	cmp	r3, r2
20006b14:	d253      	bcs.n	20006bbe <tu_fifo_write_n+0xe6>
20006b16:	1ad3      	subs	r3, r2, r3
20006b18:	b29b      	uxth	r3, r3
20006b1a:	42ab      	cmp	r3, r5
20006b1c:	bf28      	it	cs
20006b1e:	462b      	movcs	r3, r5
20006b20:	b29d      	uxth	r5, r3
20006b22:	1973      	adds	r3, r6, r5
20006b24:	f8b4 c006 	ldrh.w	ip, [r4, #6]
20006b28:	fa1f f983 	uxth.w	r9, r3
20006b2c:	eba5 0a02 	sub.w	sl, r5, r2
20006b30:	4296      	cmp	r6, r2
20006b32:	4633      	mov	r3, r6
20006b34:	d303      	bcc.n	20006b3e <tu_fifo_write_n+0x66>
20006b36:	1a9b      	subs	r3, r3, r2
20006b38:	b29b      	uxth	r3, r3
20006b3a:	4293      	cmp	r3, r2
20006b3c:	d2fb      	bcs.n	20006b36 <tu_fifo_write_n+0x5e>
20006b3e:	1ad2      	subs	r2, r2, r3
20006b40:	b291      	uxth	r1, r2
20006b42:	6820      	ldr	r0, [r4, #0]
20006b44:	f3cc 020e 	ubfx	r2, ip, #0, #15
20006b48:	42a9      	cmp	r1, r5
20006b4a:	4617      	mov	r7, r2
20006b4c:	fb02 0003 	mla	r0, r2, r3, r0
20006b50:	d352      	bcc.n	20006bf8 <tu_fifo_write_n+0x120>
20006b52:	4641      	mov	r1, r8
20006b54:	fb05 f202 	mul.w	r2, r5, r2
20006b58:	f000 fb9a 	bl	20007290 <memcpy>
20006b5c:	88a3      	ldrh	r3, [r4, #4]
20006b5e:	454e      	cmp	r6, r9
20006b60:	ea4f 0243 	mov.w	r2, r3, lsl #1
20006b64:	d802      	bhi.n	20006b6c <tu_fifo_write_n+0x94>
20006b66:	ebb9 0f43 	cmp.w	r9, r3, lsl #1
20006b6a:	db01      	blt.n	20006b70 <tu_fifo_write_n+0x98>
20006b6c:	eba9 0902 	sub.w	r9, r9, r2
20006b70:	68e0      	ldr	r0, [r4, #12]
20006b72:	462a      	mov	r2, r5
20006b74:	f8a4 9008 	strh.w	r9, [r4, #8]
20006b78:	bb28      	cbnz	r0, 20006bc6 <tu_fifo_write_n+0xee>
20006b7a:	4610      	mov	r0, r2
20006b7c:	b002      	add	sp, #8
20006b7e:	e8bd 87f0 	ldmia.w	sp!, {r4, r5, r6, r7, r8, r9, sl, pc}
20006b82:	4295      	cmp	r5, r2
20006b84:	d227      	bcs.n	20006bd6 <tu_fifo_write_n+0xfe>
20006b86:	429e      	cmp	r6, r3
20006b88:	bf36      	itet	cc
20006b8a:	ebc3 0142 	rsbcc	r1, r3, r2, lsl #1
20006b8e:	1af1      	subcs	r1, r6, r3
20006b90:	1989      	addcc	r1, r1, r6
20006b92:	b289      	uxth	r1, r1
20006b94:	0050      	lsls	r0, r2, #1
20006b96:	4429      	add	r1, r5
20006b98:	1aaf      	subs	r7, r5, r2
20006b9a:	4281      	cmp	r1, r0
20006b9c:	46ba      	mov	sl, r7
20006b9e:	db08      	blt.n	20006bb2 <tu_fifo_write_n+0xda>
20006ba0:	1899      	adds	r1, r3, r2
20006ba2:	b289      	uxth	r1, r1
20006ba4:	1b4e      	subs	r6, r1, r5
20006ba6:	b2b6      	uxth	r6, r6
20006ba8:	42b3      	cmp	r3, r6
20006baa:	4689      	mov	r9, r1
20006bac:	d938      	bls.n	20006c20 <tu_fifo_write_n+0x148>
20006bae:	1a30      	subs	r0, r6, r0
20006bb0:	b286      	uxth	r6, r0
20006bb2:	19ab      	adds	r3, r5, r6
20006bb4:	fa1f f983 	uxth.w	r9, r3
20006bb8:	f8b4 c006 	ldrh.w	ip, [r4, #6]
20006bbc:	e7b8      	b.n	20006b30 <tu_fifo_write_n+0x58>
20006bbe:	2200      	movs	r2, #0
20006bc0:	68e0      	ldr	r0, [r4, #12]
20006bc2:	2800      	cmp	r0, #0
20006bc4:	d0d9      	beq.n	20006b7a <tu_fifo_write_n+0xa2>
20006bc6:	9200      	str	r2, [sp, #0]
20006bc8:	f000 fd04 	bl	200075d4 <mutex_exit>
20006bcc:	9a00      	ldr	r2, [sp, #0]
20006bce:	4610      	mov	r0, r2
20006bd0:	b002      	add	sp, #8
20006bd2:	e8bd 87f0 	ldmia.w	sp!, {r4, r5, r6, r7, r8, r9, sl, pc}
20006bd6:	2a00      	cmp	r2, #0
20006bd8:	d0f2      	beq.n	20006bc0 <tu_fifo_write_n+0xe8>
20006bda:	f8b4 c006 	ldrh.w	ip, [r4, #6]
20006bde:	1aad      	subs	r5, r5, r2
20006be0:	1899      	adds	r1, r3, r2
20006be2:	461e      	mov	r6, r3
20006be4:	f3cc 030e 	ubfx	r3, ip, #0, #15
20006be8:	fb03 8805 	mla	r8, r3, r5, r8
20006bec:	f04f 0a00 	mov.w	sl, #0
20006bf0:	4615      	mov	r5, r2
20006bf2:	fa1f f981 	uxth.w	r9, r1
20006bf6:	e79b      	b.n	20006b30 <tu_fifo_write_n+0x58>
20006bf8:	fb11 f202 	smulbb	r2, r1, r2
20006bfc:	4641      	mov	r1, r8
20006bfe:	b292      	uxth	r2, r2
20006c00:	9301      	str	r3, [sp, #4]
20006c02:	9200      	str	r2, [sp, #0]
20006c04:	f000 fb44 	bl	20007290 <memcpy>
20006c08:	9b01      	ldr	r3, [sp, #4]
20006c0a:	9a00      	ldr	r2, [sp, #0]
20006c0c:	4453      	add	r3, sl
20006c0e:	fb13 f307 	smulbb	r3, r3, r7
20006c12:	eb08 0102 	add.w	r1, r8, r2
20006c16:	6820      	ldr	r0, [r4, #0]
20006c18:	b29a      	uxth	r2, r3
20006c1a:	f000 fb39 	bl	20007290 <memcpy>
20006c1e:	e79d      	b.n	20006b5c <tu_fifo_write_n+0x84>
20006c20:	42b0      	cmp	r0, r6
20006c22:	ddc4      	ble.n	20006bae <tu_fifo_write_n+0xd6>
20006c24:	e7c8      	b.n	20006bb8 <tu_fifo_write_n+0xe0>
20006c26:	bf00      	nop

20006c28 <tu_fifo_clear>:
20006c28:	b510      	push	{r4, lr}
20006c2a:	4604      	mov	r4, r0
20006c2c:	68c0      	ldr	r0, [r0, #12]
20006c2e:	b118      	cbz	r0, 20006c38 <tu_fifo_clear+0x10>
20006c30:	f04f 31ff 	mov.w	r1, #4294967295	@ 0xffffffff
20006c34:	f000 fcb2 	bl	2000759c <mutex_enter_timeout_ms>
20006c38:	6920      	ldr	r0, [r4, #16]
20006c3a:	b118      	cbz	r0, 20006c44 <tu_fifo_clear+0x1c>
20006c3c:	f04f 31ff 	mov.w	r1, #4294967295	@ 0xffffffff
20006c40:	f000 fcac 	bl	2000759c <mutex_enter_timeout_ms>
20006c44:	2300      	movs	r3, #0
20006c46:	68e0      	ldr	r0, [r4, #12]
20006c48:	8163      	strh	r3, [r4, #10]
20006c4a:	8123      	strh	r3, [r4, #8]
20006c4c:	b108      	cbz	r0, 20006c52 <tu_fifo_clear+0x2a>
20006c4e:	f000 fcc1 	bl	200075d4 <mutex_exit>
20006c52:	6920      	ldr	r0, [r4, #16]
20006c54:	b108      	cbz	r0, 20006c5a <tu_fifo_clear+0x32>
20006c56:	f000 fcbd 	bl	200075d4 <mutex_exit>
20006c5a:	2001      	movs	r0, #1
20006c5c:	bd10      	pop	{r4, pc}
20006c5e:	bf00      	nop

20006c60 <tu_fifo_set_overwritable>:
20006c60:	b538      	push	{r3, r4, r5, lr}
20006c62:	4604      	mov	r4, r0
20006c64:	68c0      	ldr	r0, [r0, #12]
20006c66:	460d      	mov	r5, r1
20006c68:	b118      	cbz	r0, 20006c72 <tu_fifo_set_overwritable+0x12>
20006c6a:	f04f 31ff 	mov.w	r1, #4294967295	@ 0xffffffff
20006c6e:	f000 fc95 	bl	2000759c <mutex_enter_timeout_ms>
20006c72:	6920      	ldr	r0, [r4, #16]
20006c74:	b118      	cbz	r0, 20006c7e <tu_fifo_set_overwritable+0x1e>
20006c76:	f04f 31ff 	mov.w	r1, #4294967295	@ 0xffffffff
20006c7a:	f000 fc8f 	bl	2000759c <mutex_enter_timeout_ms>
20006c7e:	79e3      	ldrb	r3, [r4, #7]
20006c80:	68e0      	ldr	r0, [r4, #12]
20006c82:	f365 13c7 	bfi	r3, r5, #7, #1
20006c86:	71e3      	strb	r3, [r4, #7]
20006c88:	b108      	cbz	r0, 20006c8e <tu_fifo_set_overwritable+0x2e>
20006c8a:	f000 fca3 	bl	200075d4 <mutex_exit>
20006c8e:	6920      	ldr	r0, [r4, #16]
20006c90:	b108      	cbz	r0, 20006c96 <tu_fifo_set_overwritable+0x36>
20006c92:	f000 fc9f 	bl	200075d4 <mutex_exit>
20006c96:	2001      	movs	r0, #1
20006c98:	bd38      	pop	{r3, r4, r5, pc}
20006c9a:	bf00      	nop

20006c9c <core1_trampoline>:
20006c9c:	bd03      	pop	{r0, r1, pc}
20006c9e:	bf00      	nop

20006ca0 <core1_wrapper>:
20006ca0:	b510      	push	{r4, lr}
20006ca2:	4604      	mov	r4, r0
20006ca4:	4608      	mov	r0, r1
20006ca6:	f7fb fd09 	bl	200026bc <runtime_init_per_core_install_stack_guard>
20006caa:	f7fb fc21 	bl	200024f0 <runtime_run_per_core_initializers>
20006cae:	4623      	mov	r3, r4
20006cb0:	e8bd 4010 	ldmia.w	sp!, {r4, lr}
20006cb4:	4718      	bx	r3
20006cb6:	bf00      	nop

20006cb8 <multicore_launch_core1_raw>:
20006cb8:	b570      	push	{r4, r5, r6, lr}
20006cba:	4605      	mov	r5, r0
20006cbc:	b088      	sub	sp, #32
20006cbe:	2019      	movs	r0, #25
20006cc0:	460c      	mov	r4, r1
20006cc2:	9201      	str	r2, [sp, #4]
20006cc4:	f7fa f9ac 	bl	20001020 <irq_is_enabled>
20006cc8:	2100      	movs	r1, #0
20006cca:	4606      	mov	r6, r0
20006ccc:	2019      	movs	r0, #25
20006cce:	f7fa f991 	bl	20000ff4 <irq_set_enabled>
20006cd2:	2300      	movs	r3, #0
20006cd4:	4619      	mov	r1, r3
20006cd6:	9a01      	ldr	r2, [sp, #4]
20006cd8:	e9cd 3302 	strd	r3, r3, [sp, #8]
20006cdc:	9205      	str	r2, [sp, #20]
20006cde:	2201      	movs	r2, #1
20006ce0:	f04f 4350 	mov.w	r3, #3489660928	@ 0xd0000000
20006ce4:	4608      	mov	r0, r1
20006ce6:	9406      	str	r4, [sp, #24]
20006ce8:	9507      	str	r5, [sp, #28]
20006cea:	9204      	str	r2, [sp, #16]
20006cec:	b1a1      	cbz	r1, 20006d18 <multicore_launch_core1_raw+0x60>
20006cee:	6d1a      	ldr	r2, [r3, #80]	@ 0x50
20006cf0:	0795      	lsls	r5, r2, #30
20006cf2:	d5fc      	bpl.n	20006cee <multicore_launch_core1_raw+0x36>
20006cf4:	6559      	str	r1, [r3, #84]	@ 0x54
20006cf6:	bf40      	sev
20006cf8:	6d1a      	ldr	r2, [r3, #80]	@ 0x50
20006cfa:	07d4      	lsls	r4, r2, #31
20006cfc:	d403      	bmi.n	20006d06 <multicore_launch_core1_raw+0x4e>
20006cfe:	bf20      	wfe
20006d00:	6d1a      	ldr	r2, [r3, #80]	@ 0x50
20006d02:	07d2      	lsls	r2, r2, #31
20006d04:	d5fb      	bpl.n	20006cfe <multicore_launch_core1_raw+0x46>
20006d06:	6d9a      	ldr	r2, [r3, #88]	@ 0x58
20006d08:	428a      	cmp	r2, r1
20006d0a:	d00a      	beq.n	20006d22 <multicore_launch_core1_raw+0x6a>
20006d0c:	2000      	movs	r0, #0
20006d0e:	eb0d 0280 	add.w	r2, sp, r0, lsl #2
20006d12:	6891      	ldr	r1, [r2, #8]
20006d14:	e7ea      	b.n	20006cec <multicore_launch_core1_raw+0x34>
20006d16:	6d9a      	ldr	r2, [r3, #88]	@ 0x58
20006d18:	6d1a      	ldr	r2, [r3, #80]	@ 0x50
20006d1a:	07d2      	lsls	r2, r2, #31
20006d1c:	d4fb      	bmi.n	20006d16 <multicore_launch_core1_raw+0x5e>
20006d1e:	bf40      	sev
20006d20:	e7e5      	b.n	20006cee <multicore_launch_core1_raw+0x36>
20006d22:	3001      	adds	r0, #1
20006d24:	2806      	cmp	r0, #6
20006d26:	d1f2      	bne.n	20006d0e <multicore_launch_core1_raw+0x56>
20006d28:	4631      	mov	r1, r6
20006d2a:	2019      	movs	r0, #25
20006d2c:	b008      	add	sp, #32
20006d2e:	e8bd 4070 	ldmia.w	sp!, {r4, r5, r6, lr}
20006d32:	f7fa b95f 	b.w	20000ff4 <irq_set_enabled>
20006d36:	bf00      	nop

20006d38 <multicore_launch_core1>:
20006d38:	4b0c      	ldr	r3, [pc, #48]	@ (20006d6c <multicore_launch_core1+0x34>)
20006d3a:	4a0d      	ldr	r2, [pc, #52]	@ (20006d70 <multicore_launch_core1+0x38>)
20006d3c:	4293      	cmp	r3, r2
20006d3e:	d30e      	bcc.n	20006d5e <multicore_launch_core1+0x26>
20006d40:	469c      	mov	ip, r3
20006d42:	f603 7194 	addw	r1, r3, #3988	@ 0xf94
20006d46:	4a0b      	ldr	r2, [pc, #44]	@ (20006d74 <multicore_launch_core1+0x3c>)
20006d48:	6892      	ldr	r2, [r2, #8]
20006d4a:	f8cc 0f94 	str.w	r0, [ip, #3988]	@ 0xf94
20006d4e:	480a      	ldr	r0, [pc, #40]	@ (20006d78 <multicore_launch_core1+0x40>)
20006d50:	f8cc 3f98 	str.w	r3, [ip, #3992]	@ 0xf98
20006d54:	f8cc 0f9c 	str.w	r0, [ip, #3996]	@ 0xf9c
20006d58:	4808      	ldr	r0, [pc, #32]	@ (20006d7c <multicore_launch_core1+0x44>)
20006d5a:	f7ff bfad 	b.w	20006cb8 <multicore_launch_core1_raw>
20006d5e:	f04f 33ff 	mov.w	r3, #4294967295	@ 0xffffffff
20006d62:	f640 7193 	movw	r1, #3987	@ 0xf93
20006d66:	469c      	mov	ip, r3
20006d68:	e7ed      	b.n	20006d46 <multicore_launch_core1+0xe>
20006d6a:	bf00      	nop
20006d6c:	20080060 	.word	0x20080060
20006d70:	20080000 	.word	0x20080000
20006d74:	e000ed00 	.word	0xe000ed00
20006d78:	20006ca1 	.word	0x20006ca1
20006d7c:	20006c9d 	.word	0x20006c9d

20006d80 <__NVIC_SystemReset>:
20006d80:	f3bf 8f4f 	dsb	sy
20006d84:	4905      	ldr	r1, [pc, #20]	@ (20006d9c <__NVIC_SystemReset+0x1c>)
20006d86:	4b06      	ldr	r3, [pc, #24]	@ (20006da0 <__NVIC_SystemReset+0x20>)
20006d88:	68ca      	ldr	r2, [r1, #12]
20006d8a:	f402 62e0 	and.w	r2, r2, #1792	@ 0x700
20006d8e:	4313      	orrs	r3, r2
20006d90:	60cb      	str	r3, [r1, #12]
20006d92:	f3bf 8f4f 	dsb	sy
20006d96:	bf00      	nop
20006d98:	e7fd      	b.n	20006d96 <__NVIC_SystemReset+0x16>
20006d9a:	bf00      	nop
20006d9c:	e000ed00 	.word	0xe000ed00
20006da0:	05fa0004 	.word	0x05fa0004

20006da4 <crc7.constprop.0>:
20006da4:	2100      	movs	r1, #0
20006da6:	f8df c01c 	ldr.w	ip, [pc, #28]	@ 20006dc4 <crc7.constprop.0+0x20>
20006daa:	1e42      	subs	r2, r0, #1
20006dac:	3073      	adds	r0, #115	@ 0x73
20006dae:	f812 3f01 	ldrb.w	r3, [r2, #1]!
20006db2:	ea83 0341 	eor.w	r3, r3, r1, lsl #1
20006db6:	4290      	cmp	r0, r2
20006db8:	f81c 1003 	ldrb.w	r1, [ip, r3]
20006dbc:	d1f7      	bne.n	20006dae <crc7.constprop.0+0xa>
20006dbe:	4608      	mov	r0, r1
20006dc0:	4770      	bx	lr
20006dc2:	bf00      	nop
20006dc4:	20008a04 	.word	0x20008a04

20006dc8 <Hardfault_HandlerC>:
20006dc8:	4605      	mov	r5, r0
20006dca:	4c14      	ldr	r4, [pc, #80]	@ (20006e1c <Hardfault_HandlerC+0x54>)
20006dcc:	b508      	push	{r3, lr}
20006dce:	2278      	movs	r2, #120	@ 0x78
20006dd0:	2100      	movs	r1, #0
20006dd2:	4620      	mov	r0, r4
20006dd4:	f000 fa00 	bl	200071d8 <memset>
20006dd8:	4911      	ldr	r1, [pc, #68]	@ (20006e20 <Hardfault_HandlerC+0x58>)
20006dda:	4b12      	ldr	r3, [pc, #72]	@ (20006e24 <Hardfault_HandlerC+0x5c>)
20006ddc:	6021      	str	r1, [r4, #0]
20006dde:	e9d3 2300 	ldrd	r2, r3, [r3]
20006de2:	e9c4 2302 	strd	r2, r3, [r4, #8]
20006de6:	682b      	ldr	r3, [r5, #0]
20006de8:	4620      	mov	r0, r4
20006dea:	6123      	str	r3, [r4, #16]
20006dec:	686b      	ldr	r3, [r5, #4]
20006dee:	6163      	str	r3, [r4, #20]
20006df0:	68ab      	ldr	r3, [r5, #8]
20006df2:	61a3      	str	r3, [r4, #24]
20006df4:	68eb      	ldr	r3, [r5, #12]
20006df6:	61e3      	str	r3, [r4, #28]
20006df8:	692b      	ldr	r3, [r5, #16]
20006dfa:	6223      	str	r3, [r4, #32]
20006dfc:	696b      	ldr	r3, [r5, #20]
20006dfe:	6263      	str	r3, [r4, #36]	@ 0x24
20006e00:	69ab      	ldr	r3, [r5, #24]
20006e02:	62a3      	str	r3, [r4, #40]	@ 0x28
20006e04:	69eb      	ldr	r3, [r5, #28]
20006e06:	62e3      	str	r3, [r4, #44]	@ 0x2c
20006e08:	f7ff ffcc 	bl	20006da4 <crc7.constprop.0>
20006e0c:	f884 0074 	strb.w	r0, [r4, #116]	@ 0x74
20006e10:	f3bf 8f4f 	dsb	sy
20006e14:	be00      	bkpt	0x0000
20006e16:	f7ff ffb3 	bl	20006d80 <__NVIC_SystemReset>
20006e1a:	bf00      	nop
20006e1c:	20000110 	.word	0x20000110
20006e20:	cafebabe 	.word	0xcafebabe
20006e24:	20009030 	.word	0x20009030

20006e28 <HardFault_Handler>:
20006e28:	2004      	movs	r0, #4
20006e2a:	ea5f 010e 	movs.w	r1, lr
20006e2e:	4208      	tst	r0, r1
20006e30:	d002      	beq.n	20006e38 <_MSP3>
20006e32:	f3ef 8009 	mrs	r0, PSP
20006e36:	e001      	b.n	20006e3c <_HALT3>

20006e38 <_MSP3>:
20006e38:	f3ef 8008 	mrs	r0, MSP

20006e3c <_HALT3>:
20006e3c:	6941      	ldr	r1, [r0, #20]
20006e3e:	f7ff bfc3 	b.w	20006dc8 <Hardfault_HandlerC>
20006e42:	bf00      	nop

20006e44 <SystemInit>:
20006e44:	b508      	push	{r3, lr}
20006e46:	2005      	movs	r0, #5
20006e48:	f7fb f898 	bl	20001f7c <clock_get_hz>
20006e4c:	4b01      	ldr	r3, [pc, #4]	@ (20006e54 <SystemInit+0x10>)
20006e4e:	6018      	str	r0, [r3, #0]
20006e50:	bd08      	pop	{r3, pc}
20006e52:	bf00      	nop
20006e54:	2000905c 	.word	0x2000905c

20006e58 <__aeabi_uldivmod>:
20006e58:	b953      	cbnz	r3, 20006e70 <__aeabi_uldivmod+0x18>
20006e5a:	b94a      	cbnz	r2, 20006e70 <__aeabi_uldivmod+0x18>
20006e5c:	2900      	cmp	r1, #0
20006e5e:	bf08      	it	eq
20006e60:	2800      	cmpeq	r0, #0
20006e62:	bf1c      	itt	ne
20006e64:	f04f 31ff 	movne.w	r1, #4294967295	@ 0xffffffff
20006e68:	f04f 30ff 	movne.w	r0, #4294967295	@ 0xffffffff
20006e6c:	f000 b9ac 	b.w	200071c8 <__aeabi_idiv0>
20006e70:	f1ad 0c08 	sub.w	ip, sp, #8
20006e74:	e96d ce04 	strd	ip, lr, [sp, #-16]!
20006e78:	f000 f806 	bl	20006e88 <__udivmoddi4>
20006e7c:	f8dd e004 	ldr.w	lr, [sp, #4]
20006e80:	e9dd 2302 	ldrd	r2, r3, [sp, #8]
20006e84:	b004      	add	sp, #16
20006e86:	4770      	bx	lr

20006e88 <__udivmoddi4>:
20006e88:	e92d 47f0 	stmdb	sp!, {r4, r5, r6, r7, r8, r9, sl, lr}
20006e8c:	4606      	mov	r6, r0
20006e8e:	b082      	sub	sp, #8
20006e90:	4617      	mov	r7, r2
20006e92:	4608      	mov	r0, r1
20006e94:	9a0a      	ldr	r2, [sp, #40]	@ 0x28
20006e96:	46b4      	mov	ip, r6
20006e98:	460d      	mov	r5, r1
20006e9a:	2b00      	cmp	r3, #0
20006e9c:	d14d      	bne.n	20006f3a <__udivmoddi4+0xb2>
20006e9e:	428f      	cmp	r7, r1
20006ea0:	46be      	mov	lr, r7
20006ea2:	d965      	bls.n	20006f70 <__udivmoddi4+0xe8>
20006ea4:	fab7 f187 	clz	r1, r7
20006ea8:	b149      	cbz	r1, 20006ebe <__udivmoddi4+0x36>
20006eaa:	f1c1 0320 	rsb	r3, r1, #32
20006eae:	408d      	lsls	r5, r1
20006eb0:	fa07 fe01 	lsl.w	lr, r7, r1
20006eb4:	fa06 fc01 	lsl.w	ip, r6, r1
20006eb8:	fa26 f303 	lsr.w	r3, r6, r3
20006ebc:	431d      	orrs	r5, r3
20006ebe:	ea4f 461e 	mov.w	r6, lr, lsr #16
20006ec2:	fa1f f08e 	uxth.w	r0, lr
20006ec6:	ea4f 431c 	mov.w	r3, ip, lsr #16
20006eca:	fbb5 f4f6 	udiv	r4, r5, r6
20006ece:	fb06 5514 	mls	r5, r6, r4, r5
20006ed2:	ea43 4305 	orr.w	r3, r3, r5, lsl #16
20006ed6:	fb04 f500 	mul.w	r5, r4, r0
20006eda:	429d      	cmp	r5, r3
20006edc:	d906      	bls.n	20006eec <__udivmoddi4+0x64>
20006ede:	eb1e 0303 	adds.w	r3, lr, r3
20006ee2:	d202      	bcs.n	20006eea <__udivmoddi4+0x62>
20006ee4:	429d      	cmp	r5, r3
20006ee6:	f200 814c 	bhi.w	20007182 <__udivmoddi4+0x2fa>
20006eea:	3c01      	subs	r4, #1
20006eec:	1b5b      	subs	r3, r3, r5
20006eee:	fa1f fc8c 	uxth.w	ip, ip
20006ef2:	fbb3 f5f6 	udiv	r5, r3, r6
20006ef6:	fb06 3315 	mls	r3, r6, r5, r3
20006efa:	fb05 f000 	mul.w	r0, r5, r0
20006efe:	ea4c 4c03 	orr.w	ip, ip, r3, lsl #16
20006f02:	4560      	cmp	r0, ip
20006f04:	d90a      	bls.n	20006f1c <__udivmoddi4+0x94>
20006f06:	eb1e 0c0c 	adds.w	ip, lr, ip
20006f0a:	bf2c      	ite	cs
20006f0c:	2301      	movcs	r3, #1
20006f0e:	2300      	movcc	r3, #0
20006f10:	4560      	cmp	r0, ip
20006f12:	d902      	bls.n	20006f1a <__udivmoddi4+0x92>
20006f14:	2b00      	cmp	r3, #0
20006f16:	f000 8137 	beq.w	20007188 <__udivmoddi4+0x300>
20006f1a:	3d01      	subs	r5, #1
20006f1c:	ebac 0c00 	sub.w	ip, ip, r0
20006f20:	ea45 4004 	orr.w	r0, r5, r4, lsl #16
20006f24:	2400      	movs	r4, #0
20006f26:	b122      	cbz	r2, 20006f32 <__udivmoddi4+0xaa>
20006f28:	fa2c f301 	lsr.w	r3, ip, r1
20006f2c:	2100      	movs	r1, #0
20006f2e:	e9c2 3100 	strd	r3, r1, [r2]
20006f32:	4621      	mov	r1, r4
20006f34:	b002      	add	sp, #8
20006f36:	e8bd 87f0 	ldmia.w	sp!, {r4, r5, r6, r7, r8, r9, sl, pc}
20006f3a:	428b      	cmp	r3, r1
20006f3c:	d908      	bls.n	20006f50 <__udivmoddi4+0xc8>
20006f3e:	b10a      	cbz	r2, 20006f44 <__udivmoddi4+0xbc>
20006f40:	e9c2 6100 	strd	r6, r1, [r2]
20006f44:	2400      	movs	r4, #0
20006f46:	4620      	mov	r0, r4
20006f48:	4621      	mov	r1, r4
20006f4a:	b002      	add	sp, #8
20006f4c:	e8bd 87f0 	ldmia.w	sp!, {r4, r5, r6, r7, r8, r9, sl, pc}
20006f50:	fab3 f483 	clz	r4, r3
20006f54:	2c00      	cmp	r4, #0
20006f56:	d14d      	bne.n	20006ff4 <__udivmoddi4+0x16c>
20006f58:	428b      	cmp	r3, r1
20006f5a:	f0c0 8105 	bcc.w	20007168 <__udivmoddi4+0x2e0>
20006f5e:	42b7      	cmp	r7, r6
20006f60:	f240 8102 	bls.w	20007168 <__udivmoddi4+0x2e0>
20006f64:	4620      	mov	r0, r4
20006f66:	2a00      	cmp	r2, #0
20006f68:	d0e3      	beq.n	20006f32 <__udivmoddi4+0xaa>
20006f6a:	e9c2 c500 	strd	ip, r5, [r2]
20006f6e:	e7e0      	b.n	20006f32 <__udivmoddi4+0xaa>
20006f70:	2f00      	cmp	r7, #0
20006f72:	f000 80a2 	beq.w	200070ba <__udivmoddi4+0x232>
20006f76:	4619      	mov	r1, r3
20006f78:	fab7 f387 	clz	r3, r7
20006f7c:	2b00      	cmp	r3, #0
20006f7e:	f040 80b4 	bne.w	200070ea <__udivmoddi4+0x262>
20006f82:	1bc3      	subs	r3, r0, r7
20006f84:	fa1f f88e 	uxth.w	r8, lr
20006f88:	0c3f      	lsrs	r7, r7, #16
20006f8a:	2401      	movs	r4, #1
20006f8c:	ea4f 401c 	mov.w	r0, ip, lsr #16
20006f90:	fbb3 f5f7 	udiv	r5, r3, r7
20006f94:	fb07 3315 	mls	r3, r7, r5, r3
20006f98:	ea40 4303 	orr.w	r3, r0, r3, lsl #16
20006f9c:	fb08 f005 	mul.w	r0, r8, r5
20006fa0:	4298      	cmp	r0, r3
20006fa2:	d90a      	bls.n	20006fba <__udivmoddi4+0x132>
20006fa4:	eb1e 0303 	adds.w	r3, lr, r3
20006fa8:	bf2c      	ite	cs
20006faa:	2601      	movcs	r6, #1
20006fac:	2600      	movcc	r6, #0
20006fae:	4298      	cmp	r0, r3
20006fb0:	d902      	bls.n	20006fb8 <__udivmoddi4+0x130>
20006fb2:	2e00      	cmp	r6, #0
20006fb4:	f000 80e2 	beq.w	2000717c <__udivmoddi4+0x2f4>
20006fb8:	3d01      	subs	r5, #1
20006fba:	1a1b      	subs	r3, r3, r0
20006fbc:	fa1f fc8c 	uxth.w	ip, ip
20006fc0:	fbb3 f0f7 	udiv	r0, r3, r7
20006fc4:	fb07 3310 	mls	r3, r7, r0, r3
20006fc8:	ea4c 4c03 	orr.w	ip, ip, r3, lsl #16
20006fcc:	fb08 f300 	mul.w	r3, r8, r0
20006fd0:	4563      	cmp	r3, ip
20006fd2:	d90a      	bls.n	20006fea <__udivmoddi4+0x162>
20006fd4:	eb1e 0c0c 	adds.w	ip, lr, ip
20006fd8:	bf2c      	ite	cs
20006fda:	2601      	movcs	r6, #1
20006fdc:	2600      	movcc	r6, #0
20006fde:	4563      	cmp	r3, ip
20006fe0:	d902      	bls.n	20006fe8 <__udivmoddi4+0x160>
20006fe2:	2e00      	cmp	r6, #0
20006fe4:	f000 80c7 	beq.w	20007176 <__udivmoddi4+0x2ee>
20006fe8:	3801      	subs	r0, #1
20006fea:	ebac 0c03 	sub.w	ip, ip, r3
20006fee:	ea40 4005 	orr.w	r0, r0, r5, lsl #16
20006ff2:	e798      	b.n	20006f26 <__udivmoddi4+0x9e>
20006ff4:	f1c4 0820 	rsb	r8, r4, #32
20006ff8:	40a3      	lsls	r3, r4
20006ffa:	fa06 fa04 	lsl.w	sl, r6, r4
20006ffe:	40a1      	lsls	r1, r4
20007000:	fa27 fc08 	lsr.w	ip, r7, r8
20007004:	fa20 f008 	lsr.w	r0, r0, r8
20007008:	fa07 f904 	lsl.w	r9, r7, r4
2000700c:	ea4c 0c03 	orr.w	ip, ip, r3
20007010:	fa26 f308 	lsr.w	r3, r6, r8
20007014:	ea4f 461c 	mov.w	r6, ip, lsr #16
20007018:	430b      	orrs	r3, r1
2000701a:	fa1f fe8c 	uxth.w	lr, ip
2000701e:	0c19      	lsrs	r1, r3, #16
20007020:	fbb0 f7f6 	udiv	r7, r0, r6
20007024:	fb06 0017 	mls	r0, r6, r7, r0
20007028:	ea41 4100 	orr.w	r1, r1, r0, lsl #16
2000702c:	fb07 f00e 	mul.w	r0, r7, lr
20007030:	4288      	cmp	r0, r1
20007032:	d90a      	bls.n	2000704a <__udivmoddi4+0x1c2>
20007034:	eb1c 0101 	adds.w	r1, ip, r1
20007038:	bf2c      	ite	cs
2000703a:	2501      	movcs	r5, #1
2000703c:	2500      	movcc	r5, #0
2000703e:	4288      	cmp	r0, r1
20007040:	d902      	bls.n	20007048 <__udivmoddi4+0x1c0>
20007042:	2d00      	cmp	r5, #0
20007044:	f000 80b2 	beq.w	200071ac <__udivmoddi4+0x324>
20007048:	3f01      	subs	r7, #1
2000704a:	1a09      	subs	r1, r1, r0
2000704c:	b29b      	uxth	r3, r3
2000704e:	fbb1 f0f6 	udiv	r0, r1, r6
20007052:	fb06 1110 	mls	r1, r6, r0, r1
20007056:	fb00 fe0e 	mul.w	lr, r0, lr
2000705a:	ea43 4301 	orr.w	r3, r3, r1, lsl #16
2000705e:	459e      	cmp	lr, r3
20007060:	d90a      	bls.n	20007078 <__udivmoddi4+0x1f0>
20007062:	eb1c 0303 	adds.w	r3, ip, r3
20007066:	bf2c      	ite	cs
20007068:	2101      	movcs	r1, #1
2000706a:	2100      	movcc	r1, #0
2000706c:	459e      	cmp	lr, r3
2000706e:	d902      	bls.n	20007076 <__udivmoddi4+0x1ee>
20007070:	2900      	cmp	r1, #0
20007072:	f000 809e 	beq.w	200071b2 <__udivmoddi4+0x32a>
20007076:	3801      	subs	r0, #1
20007078:	ea40 4007 	orr.w	r0, r0, r7, lsl #16
2000707c:	eba3 030e 	sub.w	r3, r3, lr
20007080:	fba0 e109 	umull	lr, r1, r0, r9
20007084:	428b      	cmp	r3, r1
20007086:	4676      	mov	r6, lr
20007088:	460f      	mov	r7, r1
2000708a:	d302      	bcc.n	20007092 <__udivmoddi4+0x20a>
2000708c:	d107      	bne.n	2000709e <__udivmoddi4+0x216>
2000708e:	45f2      	cmp	sl, lr
20007090:	d205      	bcs.n	2000709e <__udivmoddi4+0x216>
20007092:	ebbe 0609 	subs.w	r6, lr, r9
20007096:	eb61 010c 	sbc.w	r1, r1, ip
2000709a:	3801      	subs	r0, #1
2000709c:	460f      	mov	r7, r1
2000709e:	b152      	cbz	r2, 200070b6 <__udivmoddi4+0x22e>
200070a0:	ebba 0106 	subs.w	r1, sl, r6
200070a4:	eb63 0307 	sbc.w	r3, r3, r7
200070a8:	fa03 f508 	lsl.w	r5, r3, r8
200070ac:	40e1      	lsrs	r1, r4
200070ae:	40e3      	lsrs	r3, r4
200070b0:	430d      	orrs	r5, r1
200070b2:	e9c2 5300 	strd	r5, r3, [r2]
200070b6:	2400      	movs	r4, #0
200070b8:	e73b      	b.n	20006f32 <__udivmoddi4+0xaa>
200070ba:	0873      	lsrs	r3, r6, #1
200070bc:	46b8      	mov	r8, r7
200070be:	0849      	lsrs	r1, r1, #1
200070c0:	9701      	str	r7, [sp, #4]
200070c2:	ea43 73c0 	orr.w	r3, r3, r0, lsl #31
200070c6:	ea4f 7cc6 	mov.w	ip, r6, lsl #31
200070ca:	0c1c      	lsrs	r4, r3, #16
200070cc:	b29b      	uxth	r3, r3
200070ce:	ea44 4401 	orr.w	r4, r4, r1, lsl #16
200070d2:	ea43 4304 	orr.w	r3, r3, r4, lsl #16
200070d6:	fbb4 f4f7 	udiv	r4, r4, r7
200070da:	fbb1 f5f7 	udiv	r5, r1, r7
200070de:	211f      	movs	r1, #31
200070e0:	9801      	ldr	r0, [sp, #4]
200070e2:	ea44 4405 	orr.w	r4, r4, r5, lsl #16
200070e6:	1a1b      	subs	r3, r3, r0
200070e8:	e750      	b.n	20006f8c <__udivmoddi4+0x104>
200070ea:	4619      	mov	r1, r3
200070ec:	fa07 fe03 	lsl.w	lr, r7, r3
200070f0:	f1c3 0320 	rsb	r3, r3, #32
200070f4:	fa00 f401 	lsl.w	r4, r0, r1
200070f8:	ea4f 471e 	mov.w	r7, lr, lsr #16
200070fc:	40d8      	lsrs	r0, r3
200070fe:	fa26 f303 	lsr.w	r3, r6, r3
20007102:	fa1f f88e 	uxth.w	r8, lr
20007106:	fa06 fc01 	lsl.w	ip, r6, r1
2000710a:	4323      	orrs	r3, r4
2000710c:	fbb0 f5f7 	udiv	r5, r0, r7
20007110:	0c1c      	lsrs	r4, r3, #16
20007112:	fb07 0015 	mls	r0, r7, r5, r0
20007116:	ea44 4000 	orr.w	r0, r4, r0, lsl #16
2000711a:	fb05 f408 	mul.w	r4, r5, r8
2000711e:	4284      	cmp	r4, r0
20007120:	d94a      	bls.n	200071b8 <__udivmoddi4+0x330>
20007122:	eb1e 0000 	adds.w	r0, lr, r0
20007126:	bf2c      	ite	cs
20007128:	2601      	movcs	r6, #1
2000712a:	2600      	movcc	r6, #0
2000712c:	4284      	cmp	r4, r0
2000712e:	d900      	bls.n	20007132 <__udivmoddi4+0x2aa>
20007130:	b38e      	cbz	r6, 20007196 <__udivmoddi4+0x30e>
20007132:	1b00      	subs	r0, r0, r4
20007134:	3d01      	subs	r5, #1
20007136:	fbb0 f4f7 	udiv	r4, r0, r7
2000713a:	fb04 f608 	mul.w	r6, r4, r8
2000713e:	46a1      	mov	r9, r4
20007140:	9601      	str	r6, [sp, #4]
20007142:	fb07 0019 	mls	r0, r7, r9, r0
20007146:	b29b      	uxth	r3, r3
20007148:	9e01      	ldr	r6, [sp, #4]
2000714a:	ea43 4300 	orr.w	r3, r3, r0, lsl #16
2000714e:	42b3      	cmp	r3, r6
20007150:	d2c6      	bcs.n	200070e0 <__udivmoddi4+0x258>
20007152:	eb1e 0303 	adds.w	r3, lr, r3
20007156:	bf2c      	ite	cs
20007158:	2001      	movcs	r0, #1
2000715a:	2000      	movcc	r0, #0
2000715c:	42b3      	cmp	r3, r6
2000715e:	d200      	bcs.n	20007162 <__udivmoddi4+0x2da>
20007160:	b1a8      	cbz	r0, 2000718e <__udivmoddi4+0x306>
20007162:	f109 34ff 	add.w	r4, r9, #4294967295	@ 0xffffffff
20007166:	e7bb      	b.n	200070e0 <__udivmoddi4+0x258>
20007168:	ebb6 0c07 	subs.w	ip, r6, r7
2000716c:	eb60 0303 	sbc.w	r3, r0, r3
20007170:	2001      	movs	r0, #1
20007172:	461d      	mov	r5, r3
20007174:	e6f7      	b.n	20006f66 <__udivmoddi4+0xde>
20007176:	44f4      	add	ip, lr
20007178:	3802      	subs	r0, #2
2000717a:	e736      	b.n	20006fea <__udivmoddi4+0x162>
2000717c:	3d02      	subs	r5, #2
2000717e:	4473      	add	r3, lr
20007180:	e71b      	b.n	20006fba <__udivmoddi4+0x132>
20007182:	3c02      	subs	r4, #2
20007184:	4473      	add	r3, lr
20007186:	e6b1      	b.n	20006eec <__udivmoddi4+0x64>
20007188:	44f4      	add	ip, lr
2000718a:	3d02      	subs	r5, #2
2000718c:	e6c6      	b.n	20006f1c <__udivmoddi4+0x94>
2000718e:	f1a9 0402 	sub.w	r4, r9, #2
20007192:	4473      	add	r3, lr
20007194:	e7a4      	b.n	200070e0 <__udivmoddi4+0x258>
20007196:	ebae 0404 	sub.w	r4, lr, r4
2000719a:	3d02      	subs	r5, #2
2000719c:	4420      	add	r0, r4
2000719e:	fbb0 f4f7 	udiv	r4, r0, r7
200071a2:	fb04 f608 	mul.w	r6, r4, r8
200071a6:	46a1      	mov	r9, r4
200071a8:	9601      	str	r6, [sp, #4]
200071aa:	e7ca      	b.n	20007142 <__udivmoddi4+0x2ba>
200071ac:	3f02      	subs	r7, #2
200071ae:	4461      	add	r1, ip
200071b0:	e74b      	b.n	2000704a <__udivmoddi4+0x1c2>
200071b2:	3802      	subs	r0, #2
200071b4:	4463      	add	r3, ip
200071b6:	e75f      	b.n	20007078 <__udivmoddi4+0x1f0>
200071b8:	1b00      	subs	r0, r0, r4
200071ba:	fbb0 f4f7 	udiv	r4, r0, r7
200071be:	fb04 f608 	mul.w	r6, r4, r8
200071c2:	46a1      	mov	r9, r4
200071c4:	9601      	str	r6, [sp, #4]
200071c6:	e7bc      	b.n	20007142 <__udivmoddi4+0x2ba>

200071c8 <__aeabi_idiv0>:
200071c8:	4770      	bx	lr
200071ca:	bf00      	nop

200071cc <atexit>:
200071cc:	2300      	movs	r3, #0
200071ce:	4601      	mov	r1, r0
200071d0:	461a      	mov	r2, r3
200071d2:	4618      	mov	r0, r3
200071d4:	f000 b900 	b.w	200073d8 <__register_exitproc>

200071d8 <memset>:
200071d8:	b530      	push	{r4, r5, lr}
200071da:	0784      	lsls	r4, r0, #30
200071dc:	4686      	mov	lr, r0
200071de:	4603      	mov	r3, r0
200071e0:	d006      	beq.n	200071f0 <memset+0x18>
200071e2:	b3a2      	cbz	r2, 2000724e <memset+0x76>
200071e4:	f803 1b01 	strb.w	r1, [r3], #1
200071e8:	0798      	lsls	r0, r3, #30
200071ea:	f102 32ff 	add.w	r2, r2, #4294967295	@ 0xffffffff
200071ee:	d1f8      	bne.n	200071e2 <memset+0xa>
200071f0:	2a03      	cmp	r2, #3
200071f2:	d926      	bls.n	20007242 <memset+0x6a>
200071f4:	fa5f fc81 	uxtb.w	ip, r1
200071f8:	2a0f      	cmp	r2, #15
200071fa:	eb0c 2c0c 	add.w	ip, ip, ip, lsl #8
200071fe:	eb0c 400c 	add.w	r0, ip, ip, lsl #16
20007202:	d92a      	bls.n	2000725a <memset+0x82>
20007204:	f022 0c0f 	bic.w	ip, r2, #15
20007208:	449c      	add	ip, r3
2000720a:	e9c3 0000 	strd	r0, r0, [r3]
2000720e:	e9c3 0002 	strd	r0, r0, [r3, #8]
20007212:	3310      	adds	r3, #16
20007214:	4563      	cmp	r3, ip
20007216:	d1f8      	bne.n	2000720a <memset+0x32>
20007218:	f012 0f0c 	tst.w	r2, #12
2000721c:	f002 050f 	and.w	r5, r2, #15
20007220:	d017      	beq.n	20007252 <memset+0x7a>
20007222:	ea4f 0c95 	mov.w	ip, r5, lsr #2
20007226:	461a      	mov	r2, r3
20007228:	f10c 34ff 	add.w	r4, ip, #4294967295	@ 0xffffffff
2000722c:	eb03 0c8c 	add.w	ip, r3, ip, lsl #2
20007230:	f842 0b04 	str.w	r0, [r2], #4
20007234:	4562      	cmp	r2, ip
20007236:	d1fb      	bne.n	20007230 <memset+0x58>
20007238:	3304      	adds	r3, #4
2000723a:	f005 0203 	and.w	r2, r5, #3
2000723e:	eb03 0384 	add.w	r3, r3, r4, lsl #2
20007242:	b122      	cbz	r2, 2000724e <memset+0x76>
20007244:	441a      	add	r2, r3
20007246:	f803 1b01 	strb.w	r1, [r3], #1
2000724a:	429a      	cmp	r2, r3
2000724c:	d1fb      	bne.n	20007246 <memset+0x6e>
2000724e:	4670      	mov	r0, lr
20007250:	bd30      	pop	{r4, r5, pc}
20007252:	462a      	mov	r2, r5
20007254:	2a00      	cmp	r2, #0
20007256:	d1f5      	bne.n	20007244 <memset+0x6c>
20007258:	e7f9      	b.n	2000724e <memset+0x76>
2000725a:	4615      	mov	r5, r2
2000725c:	e7e1      	b.n	20007222 <memset+0x4a>
2000725e:	bf00      	nop

20007260 <__libc_fini_array>:
20007260:	b538      	push	{r3, r4, r5, lr}
20007262:	4d07      	ldr	r5, [pc, #28]	@ (20007280 <__libc_fini_array+0x20>)
20007264:	4c07      	ldr	r4, [pc, #28]	@ (20007284 <__libc_fini_array+0x24>)
20007266:	1b2c      	subs	r4, r5, r4
20007268:	10a4      	asrs	r4, r4, #2
2000726a:	d005      	beq.n	20007278 <__libc_fini_array+0x18>
2000726c:	3c01      	subs	r4, #1
2000726e:	f855 3d04 	ldr.w	r3, [r5, #-4]!
20007272:	4798      	blx	r3
20007274:	2c00      	cmp	r4, #0
20007276:	d1f9      	bne.n	2000726c <__libc_fini_array+0xc>
20007278:	e8bd 4038 	ldmia.w	sp!, {r3, r4, r5, lr}
2000727c:	f000 b8f8 	b.w	20007470 <_fini>
20007280:	20008d68 	.word	0x20008d68
20007284:	20008d68 	.word	0x20008d68

20007288 <__retarget_lock_acquire_recursive>:
20007288:	4770      	bx	lr
2000728a:	bf00      	nop

2000728c <__retarget_lock_release_recursive>:
2000728c:	4770      	bx	lr
2000728e:	bf00      	nop

20007290 <memcpy>:
20007290:	4684      	mov	ip, r0
20007292:	ea41 0300 	orr.w	r3, r1, r0
20007296:	f013 0303 	ands.w	r3, r3, #3
2000729a:	d149      	bne.n	20007330 <memcpy+0xa0>
2000729c:	3a40      	subs	r2, #64	@ 0x40
2000729e:	d323      	bcc.n	200072e8 <memcpy+0x58>
200072a0:	680b      	ldr	r3, [r1, #0]
200072a2:	6003      	str	r3, [r0, #0]
200072a4:	684b      	ldr	r3, [r1, #4]
200072a6:	6043      	str	r3, [r0, #4]
200072a8:	688b      	ldr	r3, [r1, #8]
200072aa:	6083      	str	r3, [r0, #8]
200072ac:	68cb      	ldr	r3, [r1, #12]
200072ae:	60c3      	str	r3, [r0, #12]
200072b0:	690b      	ldr	r3, [r1, #16]
200072b2:	6103      	str	r3, [r0, #16]
200072b4:	694b      	ldr	r3, [r1, #20]
200072b6:	6143      	str	r3, [r0, #20]
200072b8:	698b      	ldr	r3, [r1, #24]
200072ba:	6183      	str	r3, [r0, #24]
200072bc:	69cb      	ldr	r3, [r1, #28]
200072be:	61c3      	str	r3, [r0, #28]
200072c0:	6a0b      	ldr	r3, [r1, #32]
200072c2:	6203      	str	r3, [r0, #32]
200072c4:	6a4b      	ldr	r3, [r1, #36]	@ 0x24
200072c6:	6243      	str	r3, [r0, #36]	@ 0x24
200072c8:	6a8b      	ldr	r3, [r1, #40]	@ 0x28
200072ca:	6283      	str	r3, [r0, #40]	@ 0x28
200072cc:	6acb      	ldr	r3, [r1, #44]	@ 0x2c
200072ce:	62c3      	str	r3, [r0, #44]	@ 0x2c
200072d0:	6b0b      	ldr	r3, [r1, #48]	@ 0x30
200072d2:	6303      	str	r3, [r0, #48]	@ 0x30
200072d4:	6b4b      	ldr	r3, [r1, #52]	@ 0x34
200072d6:	6343      	str	r3, [r0, #52]	@ 0x34
200072d8:	6b8b      	ldr	r3, [r1, #56]	@ 0x38
200072da:	6383      	str	r3, [r0, #56]	@ 0x38
200072dc:	6bcb      	ldr	r3, [r1, #60]	@ 0x3c
200072de:	63c3      	str	r3, [r0, #60]	@ 0x3c
200072e0:	3040      	adds	r0, #64	@ 0x40
200072e2:	3140      	adds	r1, #64	@ 0x40
200072e4:	3a40      	subs	r2, #64	@ 0x40
200072e6:	d2db      	bcs.n	200072a0 <memcpy+0x10>
200072e8:	3230      	adds	r2, #48	@ 0x30
200072ea:	d30b      	bcc.n	20007304 <memcpy+0x74>
200072ec:	680b      	ldr	r3, [r1, #0]
200072ee:	6003      	str	r3, [r0, #0]
200072f0:	684b      	ldr	r3, [r1, #4]
200072f2:	6043      	str	r3, [r0, #4]
200072f4:	688b      	ldr	r3, [r1, #8]
200072f6:	6083      	str	r3, [r0, #8]
200072f8:	68cb      	ldr	r3, [r1, #12]
200072fa:	60c3      	str	r3, [r0, #12]
200072fc:	3010      	adds	r0, #16
200072fe:	3110      	adds	r1, #16
20007300:	3a10      	subs	r2, #16
20007302:	d2f3      	bcs.n	200072ec <memcpy+0x5c>
20007304:	320c      	adds	r2, #12
20007306:	d305      	bcc.n	20007314 <memcpy+0x84>
20007308:	f851 3b04 	ldr.w	r3, [r1], #4
2000730c:	f840 3b04 	str.w	r3, [r0], #4
20007310:	3a04      	subs	r2, #4
20007312:	d2f9      	bcs.n	20007308 <memcpy+0x78>
20007314:	3204      	adds	r2, #4
20007316:	d008      	beq.n	2000732a <memcpy+0x9a>
20007318:	07d2      	lsls	r2, r2, #31
2000731a:	bf1c      	itt	ne
2000731c:	f811 3b01 	ldrbne.w	r3, [r1], #1
20007320:	f800 3b01 	strbne.w	r3, [r0], #1
20007324:	d301      	bcc.n	2000732a <memcpy+0x9a>
20007326:	880b      	ldrh	r3, [r1, #0]
20007328:	8003      	strh	r3, [r0, #0]
2000732a:	4660      	mov	r0, ip
2000732c:	4770      	bx	lr
2000732e:	bf00      	nop
20007330:	2a08      	cmp	r2, #8
20007332:	d313      	bcc.n	2000735c <memcpy+0xcc>
20007334:	078b      	lsls	r3, r1, #30
20007336:	d0b1      	beq.n	2000729c <memcpy+0xc>
20007338:	f010 0303 	ands.w	r3, r0, #3
2000733c:	d0ae      	beq.n	2000729c <memcpy+0xc>
2000733e:	f1c3 0304 	rsb	r3, r3, #4
20007342:	1ad2      	subs	r2, r2, r3
20007344:	07db      	lsls	r3, r3, #31
20007346:	bf1c      	itt	ne
20007348:	f811 3b01 	ldrbne.w	r3, [r1], #1
2000734c:	f800 3b01 	strbne.w	r3, [r0], #1
20007350:	d3a4      	bcc.n	2000729c <memcpy+0xc>
20007352:	f831 3b02 	ldrh.w	r3, [r1], #2
20007356:	f820 3b02 	strh.w	r3, [r0], #2
2000735a:	e79f      	b.n	2000729c <memcpy+0xc>
2000735c:	3a04      	subs	r2, #4
2000735e:	d3d9      	bcc.n	20007314 <memcpy+0x84>
20007360:	3a01      	subs	r2, #1
20007362:	f811 3b01 	ldrb.w	r3, [r1], #1
20007366:	f800 3b01 	strb.w	r3, [r0], #1
2000736a:	d2f9      	bcs.n	20007360 <memcpy+0xd0>
2000736c:	780b      	ldrb	r3, [r1, #0]
2000736e:	7003      	strb	r3, [r0, #0]
20007370:	784b      	ldrb	r3, [r1, #1]
20007372:	7043      	strb	r3, [r0, #1]
20007374:	788b      	ldrb	r3, [r1, #2]
20007376:	7083      	strb	r3, [r0, #2]
20007378:	4660      	mov	r0, ip
2000737a:	4770      	bx	lr

2000737c <strlen>:
2000737c:	f020 0103 	bic.w	r1, r0, #3
20007380:	f010 0003 	ands.w	r0, r0, #3
20007384:	f1c0 0000 	rsb	r0, r0, #0
20007388:	f851 3b04 	ldr.w	r3, [r1], #4
2000738c:	f100 0c04 	add.w	ip, r0, #4
20007390:	ea4f 0ccc 	mov.w	ip, ip, lsl #3
20007394:	f06f 0200 	mvn.w	r2, #0
20007398:	bf1c      	itt	ne
2000739a:	fa22 f20c 	lsrne.w	r2, r2, ip
2000739e:	4313      	orrne	r3, r2
200073a0:	f04f 0c01 	mov.w	ip, #1
200073a4:	ea4c 2c0c 	orr.w	ip, ip, ip, lsl #8
200073a8:	ea4c 4c0c 	orr.w	ip, ip, ip, lsl #16
200073ac:	eba3 020c 	sub.w	r2, r3, ip
200073b0:	ea22 0203 	bic.w	r2, r2, r3
200073b4:	ea12 12cc 	ands.w	r2, r2, ip, lsl #7
200073b8:	bf04      	itt	eq
200073ba:	f851 3b04 	ldreq.w	r3, [r1], #4
200073be:	3004      	addeq	r0, #4
200073c0:	d0f4      	beq.n	200073ac <strlen+0x30>
200073c2:	f1c2 0100 	rsb	r1, r2, #0
200073c6:	ea02 0201 	and.w	r2, r2, r1
200073ca:	fab2 f282 	clz	r2, r2
200073ce:	f1c2 021f 	rsb	r2, r2, #31
200073d2:	eb00 00d2 	add.w	r0, r0, r2, lsr #3
200073d6:	4770      	bx	lr

200073d8 <__register_exitproc>:
200073d8:	b5f0      	push	{r4, r5, r6, r7, lr}
200073da:	4c1d      	ldr	r4, [pc, #116]	@ (20007450 <__register_exitproc+0x78>)
200073dc:	b083      	sub	sp, #12
200073de:	4605      	mov	r5, r0
200073e0:	4616      	mov	r6, r2
200073e2:	6820      	ldr	r0, [r4, #0]
200073e4:	461f      	mov	r7, r3
200073e6:	9101      	str	r1, [sp, #4]
200073e8:	f7ff ff4e 	bl	20007288 <__retarget_lock_acquire_recursive>
200073ec:	4a19      	ldr	r2, [pc, #100]	@ (20007454 <__register_exitproc+0x7c>)
200073ee:	9901      	ldr	r1, [sp, #4]
200073f0:	6813      	ldr	r3, [r2, #0]
200073f2:	b32b      	cbz	r3, 20007440 <__register_exitproc+0x68>
200073f4:	685a      	ldr	r2, [r3, #4]
200073f6:	6820      	ldr	r0, [r4, #0]
200073f8:	2a1f      	cmp	r2, #31
200073fa:	dc24      	bgt.n	20007446 <__register_exitproc+0x6e>
200073fc:	b94d      	cbnz	r5, 20007412 <__register_exitproc+0x3a>
200073fe:	1c54      	adds	r4, r2, #1
20007400:	3202      	adds	r2, #2
20007402:	605c      	str	r4, [r3, #4]
20007404:	f843 1022 	str.w	r1, [r3, r2, lsl #2]
20007408:	f7ff ff40 	bl	2000728c <__retarget_lock_release_recursive>
2000740c:	2000      	movs	r0, #0
2000740e:	b003      	add	sp, #12
20007410:	bdf0      	pop	{r4, r5, r6, r7, pc}
20007412:	eb03 0e82 	add.w	lr, r3, r2, lsl #2
20007416:	2401      	movs	r4, #1
20007418:	2d02      	cmp	r5, #2
2000741a:	f8ce 6088 	str.w	r6, [lr, #136]	@ 0x88
2000741e:	fa04 f402 	lsl.w	r4, r4, r2
20007422:	f8d3 6188 	ldr.w	r6, [r3, #392]	@ 0x188
20007426:	ea46 0c04 	orr.w	ip, r6, r4
2000742a:	f8c3 c188 	str.w	ip, [r3, #392]	@ 0x188
2000742e:	f8ce 7108 	str.w	r7, [lr, #264]	@ 0x108
20007432:	d1e4      	bne.n	200073fe <__register_exitproc+0x26>
20007434:	f8d3 518c 	ldr.w	r5, [r3, #396]	@ 0x18c
20007438:	4325      	orrs	r5, r4
2000743a:	f8c3 518c 	str.w	r5, [r3, #396]	@ 0x18c
2000743e:	e7de      	b.n	200073fe <__register_exitproc+0x26>
20007440:	4b05      	ldr	r3, [pc, #20]	@ (20007458 <__register_exitproc+0x80>)
20007442:	6013      	str	r3, [r2, #0]
20007444:	e7d6      	b.n	200073f4 <__register_exitproc+0x1c>
20007446:	f7ff ff21 	bl	2000728c <__retarget_lock_release_recursive>
2000744a:	f04f 30ff 	mov.w	r0, #4294967295	@ 0xffffffff
2000744e:	e7de      	b.n	2000740e <__register_exitproc+0x36>
20007450:	20008cf4 	.word	0x20008cf4
20007454:	20009060 	.word	0x20009060
20007458:	20009064 	.word	0x20009064

2000745c <register_fini>:
2000745c:	4b02      	ldr	r3, [pc, #8]	@ (20007468 <register_fini+0xc>)
2000745e:	b113      	cbz	r3, 20007466 <register_fini+0xa>
20007460:	4802      	ldr	r0, [pc, #8]	@ (2000746c <register_fini+0x10>)
20007462:	f7ff beb3 	b.w	200071cc <atexit>
20007466:	4770      	bx	lr
20007468:	00000000 	.word	0x00000000
2000746c:	20007261 	.word	0x20007261

20007470 <_fini>:
20007470:	b5f8      	push	{r3, r4, r5, r6, r7, lr}
20007472:	bf00      	nop

Disassembly of section .data:

20007478 <mutex_try_enter>:
20007478:	4603      	mov	r3, r0
2000747a:	b500      	push	{lr}
2000747c:	6802      	ldr	r2, [r0, #0]
2000747e:	f3ef 8c10 	mrs	ip, PRIMASK
20007482:	b672      	cpsid	i
20007484:	e8d2 efcf 	ldaexb	lr, [r2]
20007488:	2001      	movs	r0, #1
2000748a:	f1be 0f00 	cmp.w	lr, #0
2000748e:	d1f9      	bne.n	20007484 <mutex_try_enter+0xc>
20007490:	e8c2 0f4e 	strexb	lr, r0, [r2]
20007494:	f1be 0f00 	cmp.w	lr, #0
20007498:	d1f4      	bne.n	20007484 <mutex_try_enter+0xc>
2000749a:	f3bf 8f5f 	dmb	sy
2000749e:	f993 2004 	ldrsb.w	r2, [r3, #4]
200074a2:	2a00      	cmp	r2, #0
200074a4:	db09      	blt.n	200074ba <mutex_try_enter+0x42>
200074a6:	b101      	cbz	r1, 200074aa <mutex_try_enter+0x32>
200074a8:	600a      	str	r2, [r1, #0]
200074aa:	2000      	movs	r0, #0
200074ac:	2200      	movs	r2, #0
200074ae:	681b      	ldr	r3, [r3, #0]
200074b0:	e8c3 2f8f 	stlb	r2, [r3]
200074b4:	f38c 8810 	msr	PRIMASK, ip
200074b8:	bd00      	pop	{pc}
200074ba:	f04f 4250 	mov.w	r2, #3489660928	@ 0xd0000000
200074be:	6812      	ldr	r2, [r2, #0]
200074c0:	2001      	movs	r0, #1
200074c2:	711a      	strb	r2, [r3, #4]
200074c4:	e7f2      	b.n	200074ac <mutex_try_enter+0x34>
200074c6:	bf00      	nop

200074c8 <mutex_enter_block_until>:
200074c8:	f04f 4150 	mov.w	r1, #3489660928	@ 0xd0000000
200074cc:	e92d 41f0 	stmdb	sp!, {r4, r5, r6, r7, r8, lr}
200074d0:	461f      	mov	r7, r3
200074d2:	680b      	ldr	r3, [r1, #0]
200074d4:	4604      	mov	r4, r0
200074d6:	4616      	mov	r6, r2
200074d8:	2500      	movs	r5, #0
200074da:	4698      	mov	r8, r3
200074dc:	e008      	b.n	200074f0 <mutex_enter_block_until+0x28>
200074de:	e8c3 5f8f 	stlb	r5, [r3]
200074e2:	f382 8810 	msr	PRIMASK, r2
200074e6:	4630      	mov	r0, r6
200074e8:	4639      	mov	r1, r7
200074ea:	f7fa fbf7 	bl	20001cdc <best_effort_wfe_or_timeout>
200074ee:	b9e8      	cbnz	r0, 2000752c <mutex_enter_block_until+0x64>
200074f0:	6823      	ldr	r3, [r4, #0]
200074f2:	f3ef 8210 	mrs	r2, PRIMASK
200074f6:	b672      	cpsid	i
200074f8:	e8d3 0fcf 	ldaexb	r0, [r3]
200074fc:	2101      	movs	r1, #1
200074fe:	2800      	cmp	r0, #0
20007500:	d1fa      	bne.n	200074f8 <mutex_enter_block_until+0x30>
20007502:	e8c3 1f40 	strexb	r0, r1, [r3]
20007506:	2800      	cmp	r0, #0
20007508:	d1f6      	bne.n	200074f8 <mutex_enter_block_until+0x30>
2000750a:	f3bf 8f5f 	dmb	sy
2000750e:	f994 1004 	ldrsb.w	r1, [r4, #4]
20007512:	6823      	ldr	r3, [r4, #0]
20007514:	2900      	cmp	r1, #0
20007516:	dae2      	bge.n	200074de <mutex_enter_block_until+0x16>
20007518:	2100      	movs	r1, #0
2000751a:	f884 8004 	strb.w	r8, [r4, #4]
2000751e:	e8c3 1f8f 	stlb	r1, [r3]
20007522:	f382 8810 	msr	PRIMASK, r2
20007526:	2001      	movs	r0, #1
20007528:	e8bd 81f0 	ldmia.w	sp!, {r4, r5, r6, r7, r8, pc}
2000752c:	2000      	movs	r0, #0
2000752e:	e8bd 81f0 	ldmia.w	sp!, {r4, r5, r6, r7, r8, pc}
20007532:	bf00      	nop

20007534 <mutex_try_enter_block_until>:
20007534:	b510      	push	{r4, lr}
20007536:	6801      	ldr	r1, [r0, #0]
20007538:	f3ef 8e10 	mrs	lr, PRIMASK
2000753c:	b672      	cpsid	i
2000753e:	e8d1 cfcf 	ldaexb	ip, [r1]
20007542:	2401      	movs	r4, #1
20007544:	f1bc 0f00 	cmp.w	ip, #0
20007548:	d1f9      	bne.n	2000753e <mutex_try_enter_block_until+0xa>
2000754a:	e8c1 4f4c 	strexb	ip, r4, [r1]
2000754e:	f1bc 0f00 	cmp.w	ip, #0
20007552:	d1f4      	bne.n	2000753e <mutex_try_enter_block_until+0xa>
20007554:	f3bf 8f5f 	dmb	sy
20007558:	f990 c004 	ldrsb.w	ip, [r0, #4]
2000755c:	6804      	ldr	r4, [r0, #0]
2000755e:	f1bc 0f00 	cmp.w	ip, #0
20007562:	db10      	blt.n	20007586 <mutex_try_enter_block_until+0x52>
20007564:	2100      	movs	r1, #0
20007566:	e8c4 1f8f 	stlb	r1, [r4]
2000756a:	f38e 8810 	msr	PRIMASK, lr
2000756e:	f04f 4450 	mov.w	r4, #3489660928	@ 0xd0000000
20007572:	f994 4000 	ldrsb.w	r4, [r4]
20007576:	4564      	cmp	r4, ip
20007578:	d101      	bne.n	2000757e <mutex_try_enter_block_until+0x4a>
2000757a:	4608      	mov	r0, r1
2000757c:	bd10      	pop	{r4, pc}
2000757e:	e8bd 4010 	ldmia.w	sp!, {r4, lr}
20007582:	f7ff bfa1 	b.w	200074c8 <mutex_enter_block_until>
20007586:	f04f 4250 	mov.w	r2, #3489660928	@ 0xd0000000
2000758a:	6812      	ldr	r2, [r2, #0]
2000758c:	2300      	movs	r3, #0
2000758e:	7102      	strb	r2, [r0, #4]
20007590:	e8c4 3f8f 	stlb	r3, [r4]
20007594:	f38e 8810 	msr	PRIMASK, lr
20007598:	2001      	movs	r0, #1
2000759a:	bd10      	pop	{r4, pc}

2000759c <mutex_enter_timeout_ms>:
2000759c:	b570      	push	{r4, r5, r6, lr}
2000759e:	4605      	mov	r5, r0
200075a0:	460c      	mov	r4, r1
200075a2:	f7fa fc31 	bl	20001e08 <time_us_64>
200075a6:	4602      	mov	r2, r0
200075a8:	460b      	mov	r3, r1
200075aa:	f44f 707a 	mov.w	r0, #1000	@ 0x3e8
200075ae:	f04f 3eff 	mov.w	lr, #4294967295	@ 0xffffffff
200075b2:	f06f 4c00 	mvn.w	ip, #2147483648	@ 0x80000000
200075b6:	fbe4 2300 	umlal	r2, r3, r4, r0
200075ba:	4596      	cmp	lr, r2
200075bc:	eb7c 0103 	sbcs.w	r1, ip, r3
200075c0:	bf38      	it	cc
200075c2:	4672      	movcc	r2, lr
200075c4:	4628      	mov	r0, r5
200075c6:	e8bd 4070 	ldmia.w	sp!, {r4, r5, r6, lr}
200075ca:	bf38      	it	cc
200075cc:	4663      	movcc	r3, ip
200075ce:	f7ff bf7b 	b.w	200074c8 <mutex_enter_block_until>
200075d2:	bf00      	nop

200075d4 <mutex_exit>:
200075d4:	6803      	ldr	r3, [r0, #0]
200075d6:	f3ef 8210 	mrs	r2, PRIMASK
200075da:	b672      	cpsid	i
200075dc:	e8d3 cfcf 	ldaexb	ip, [r3]
200075e0:	2101      	movs	r1, #1
200075e2:	f1bc 0f00 	cmp.w	ip, #0
200075e6:	d1f9      	bne.n	200075dc <mutex_exit+0x8>
200075e8:	e8c3 1f4c 	strexb	ip, r1, [r3]
200075ec:	f1bc 0f00 	cmp.w	ip, #0
200075f0:	d1f4      	bne.n	200075dc <mutex_exit+0x8>
200075f2:	f3bf 8f5f 	dmb	sy
200075f6:	f04f 0cff 	mov.w	ip, #255	@ 0xff
200075fa:	2300      	movs	r3, #0
200075fc:	6801      	ldr	r1, [r0, #0]
200075fe:	f880 c004 	strb.w	ip, [r0, #4]
20007602:	e8c1 3f8f 	stlb	r3, [r1]
20007606:	f382 8810 	msr	PRIMASK, r2
2000760a:	bf40      	sev
2000760c:	4770      	bx	lr
2000760e:	bf00      	nop

20007610 <reset_non_control_endpoints>:
20007610:	2100      	movs	r1, #0
20007612:	b508      	push	{r3, lr}
20007614:	4b13      	ldr	r3, [pc, #76]	@ (20007664 <reset_non_control_endpoints+0x54>)
20007616:	f44f 7270 	mov.w	r2, #960	@ 0x3c0
2000761a:	6099      	str	r1, [r3, #8]
2000761c:	4812      	ldr	r0, [pc, #72]	@ (20007668 <reset_non_control_endpoints+0x58>)
2000761e:	60d9      	str	r1, [r3, #12]
20007620:	6119      	str	r1, [r3, #16]
20007622:	6159      	str	r1, [r3, #20]
20007624:	6199      	str	r1, [r3, #24]
20007626:	61d9      	str	r1, [r3, #28]
20007628:	6219      	str	r1, [r3, #32]
2000762a:	6259      	str	r1, [r3, #36]	@ 0x24
2000762c:	6299      	str	r1, [r3, #40]	@ 0x28
2000762e:	62d9      	str	r1, [r3, #44]	@ 0x2c
20007630:	6319      	str	r1, [r3, #48]	@ 0x30
20007632:	6359      	str	r1, [r3, #52]	@ 0x34
20007634:	6399      	str	r1, [r3, #56]	@ 0x38
20007636:	63d9      	str	r1, [r3, #60]	@ 0x3c
20007638:	6419      	str	r1, [r3, #64]	@ 0x40
2000763a:	6459      	str	r1, [r3, #68]	@ 0x44
2000763c:	6499      	str	r1, [r3, #72]	@ 0x48
2000763e:	64d9      	str	r1, [r3, #76]	@ 0x4c
20007640:	6519      	str	r1, [r3, #80]	@ 0x50
20007642:	6559      	str	r1, [r3, #84]	@ 0x54
20007644:	6599      	str	r1, [r3, #88]	@ 0x58
20007646:	65d9      	str	r1, [r3, #92]	@ 0x5c
20007648:	6619      	str	r1, [r3, #96]	@ 0x60
2000764a:	6659      	str	r1, [r3, #100]	@ 0x64
2000764c:	6699      	str	r1, [r3, #104]	@ 0x68
2000764e:	66d9      	str	r1, [r3, #108]	@ 0x6c
20007650:	6719      	str	r1, [r3, #112]	@ 0x70
20007652:	6759      	str	r1, [r3, #116]	@ 0x74
20007654:	6799      	str	r1, [r3, #120]	@ 0x78
20007656:	67d9      	str	r1, [r3, #124]	@ 0x7c
20007658:	f7ff fdbe 	bl	200071d8 <memset>
2000765c:	4b03      	ldr	r3, [pc, #12]	@ (2000766c <reset_non_control_endpoints+0x5c>)
2000765e:	4a04      	ldr	r2, [pc, #16]	@ (20007670 <reset_non_control_endpoints+0x60>)
20007660:	601a      	str	r2, [r3, #0]
20007662:	bd08      	pop	{r3, pc}
20007664:	50100000 	.word	0x50100000
20007668:	20009710 	.word	0x20009710
2000766c:	20009ae4 	.word	0x20009ae4
20007670:	50100180 	.word	0x50100180

20007674 <hw_handle_buff_status>:
20007674:	e92d 47f0 	stmdb	sp!, {r4, r5, r6, r7, r8, r9, sl, lr}
20007678:	4b1f      	ldr	r3, [pc, #124]	@ (200076f8 <hw_handle_buff_status+0x84>)
2000767a:	b084      	sub	sp, #16
2000767c:	f8d3 a058 	ldr.w	sl, [r3, #88]	@ 0x58
20007680:	f1ba 0f00 	cmp.w	sl, #0
20007684:	d020      	beq.n	200076c8 <hw_handle_buff_status+0x54>
20007686:	2400      	movs	r4, #0
20007688:	2501      	movs	r5, #1
2000768a:	46a1      	mov	r9, r4
2000768c:	f8df 8070 	ldr.w	r8, [pc, #112]	@ 20007700 <hw_handle_buff_status+0x8c>
20007690:	4f1a      	ldr	r7, [pc, #104]	@ (200076fc <hw_handle_buff_status+0x88>)
20007692:	e005      	b.n	200076a0 <hw_handle_buff_status+0x2c>
20007694:	3401      	adds	r4, #1
20007696:	b2e4      	uxtb	r4, r4
20007698:	2c20      	cmp	r4, #32
2000769a:	ea4f 0545 	mov.w	r5, r5, lsl #1
2000769e:	d013      	beq.n	200076c8 <hw_handle_buff_status+0x54>
200076a0:	ea1a 0f05 	tst.w	sl, r5
200076a4:	d0f6      	beq.n	20007694 <hw_handle_buff_status+0x20>
200076a6:	43e3      	mvns	r3, r4
200076a8:	f004 06fe 	and.w	r6, r4, #254	@ 0xfe
200076ac:	f003 0301 	and.w	r3, r3, #1
200076b0:	441e      	add	r6, r3
200076b2:	eb07 1646 	add.w	r6, r7, r6, lsl #5
200076b6:	4630      	mov	r0, r6
200076b8:	f8c8 5058 	str.w	r5, [r8, #88]	@ 0x58
200076bc:	f000 fc1c 	bl	20007ef8 <hw_endpoint_xfer_continue>
200076c0:	b928      	cbnz	r0, 200076ce <hw_handle_buff_status+0x5a>
200076c2:	ea3a 0a05 	bics.w	sl, sl, r5
200076c6:	d1e5      	bne.n	20007694 <hw_handle_buff_status+0x20>
200076c8:	b004      	add	sp, #16
200076ca:	e8bd 87f0 	ldmia.w	sp!, {r4, r5, r6, r7, r8, r9, sl, pc}
200076ce:	78b3      	ldrb	r3, [r6, #2]
200076d0:	f8cd 9006 	str.w	r9, [sp, #6]
200076d4:	f88d 3008 	strb.w	r3, [sp, #8]
200076d8:	f44f 63e0 	mov.w	r3, #1792	@ 0x700
200076dc:	f8ad 3004 	strh.w	r3, [sp, #4]
200076e0:	8af3      	ldrh	r3, [r6, #22]
200076e2:	a801      	add	r0, sp, #4
200076e4:	2101      	movs	r1, #1
200076e6:	f8ad 900a 	strh.w	r9, [sp, #10]
200076ea:	9303      	str	r3, [sp, #12]
200076ec:	f000 fc22 	bl	20007f34 <dcd_event_handler>
200076f0:	4630      	mov	r0, r6
200076f2:	f000 fba5 	bl	20007e40 <hw_endpoint_reset_transfer>
200076f6:	e7e4      	b.n	200076c2 <hw_handle_buff_status+0x4e>
200076f8:	50110000 	.word	0x50110000
200076fc:	200096d0 	.word	0x200096d0
20007700:	50113000 	.word	0x50113000

20007704 <dcd_rp2040_irq>:
20007704:	b570      	push	{r4, r5, r6, lr}
20007706:	4bbe      	ldr	r3, [pc, #760]	@ (20007a00 <dcd_rp2040_irq+0x2fc>)
20007708:	b086      	sub	sp, #24
2000770a:	f8d3 4098 	ldr.w	r4, [r3, #152]	@ 0x98
2000770e:	f414 3500 	ands.w	r5, r4, #131072	@ 0x20000
20007712:	d07b      	beq.n	2000780c <dcd_rp2040_irq+0x108>
20007714:	4abb      	ldr	r2, [pc, #748]	@ (20007a04 <dcd_rp2040_irq+0x300>)
20007716:	4bbc      	ldr	r3, [pc, #752]	@ (20007a08 <dcd_rp2040_irq+0x304>)
20007718:	6a90      	ldr	r0, [r2, #40]	@ 0x28
2000771a:	f893 203b 	ldrb.w	r2, [r3, #59]	@ 0x3b
2000771e:	49bb      	ldr	r1, [pc, #748]	@ (20007a0c <dcd_rp2040_irq+0x308>)
20007720:	2a02      	cmp	r2, #2
20007722:	6008      	str	r0, [r1, #0]
20007724:	f000 80fe 	beq.w	20007924 <dcd_rp2040_irq+0x220>
20007728:	2500      	movs	r5, #0
2000772a:	f893 207b 	ldrb.w	r2, [r3, #123]	@ 0x7b
2000772e:	2a02      	cmp	r2, #2
20007730:	f000 81ca 	beq.w	20007ac8 <dcd_rp2040_irq+0x3c4>
20007734:	f893 20bb 	ldrb.w	r2, [r3, #187]	@ 0xbb
20007738:	2a02      	cmp	r2, #2
2000773a:	f000 81ba 	beq.w	20007ab2 <dcd_rp2040_irq+0x3ae>
2000773e:	f893 20fb 	ldrb.w	r2, [r3, #251]	@ 0xfb
20007742:	2a02      	cmp	r2, #2
20007744:	f000 81aa 	beq.w	20007a9c <dcd_rp2040_irq+0x398>
20007748:	f893 213b 	ldrb.w	r2, [r3, #315]	@ 0x13b
2000774c:	2a02      	cmp	r2, #2
2000774e:	f000 8199 	beq.w	20007a84 <dcd_rp2040_irq+0x380>
20007752:	f893 217b 	ldrb.w	r2, [r3, #379]	@ 0x17b
20007756:	2a02      	cmp	r2, #2
20007758:	f000 8189 	beq.w	20007a6e <dcd_rp2040_irq+0x36a>
2000775c:	f893 21bb 	ldrb.w	r2, [r3, #443]	@ 0x1bb
20007760:	2a02      	cmp	r2, #2
20007762:	f000 8179 	beq.w	20007a58 <dcd_rp2040_irq+0x354>
20007766:	f893 21fb 	ldrb.w	r2, [r3, #507]	@ 0x1fb
2000776a:	2a02      	cmp	r2, #2
2000776c:	f000 8168 	beq.w	20007a40 <dcd_rp2040_irq+0x33c>
20007770:	f893 223b 	ldrb.w	r2, [r3, #571]	@ 0x23b
20007774:	2a02      	cmp	r2, #2
20007776:	f000 8157 	beq.w	20007a28 <dcd_rp2040_irq+0x324>
2000777a:	f893 227b 	ldrb.w	r2, [r3, #635]	@ 0x27b
2000777e:	2a02      	cmp	r2, #2
20007780:	f000 8132 	beq.w	200079e8 <dcd_rp2040_irq+0x2e4>
20007784:	f893 22bb 	ldrb.w	r2, [r3, #699]	@ 0x2bb
20007788:	2a02      	cmp	r2, #2
2000778a:	f000 8121 	beq.w	200079d0 <dcd_rp2040_irq+0x2cc>
2000778e:	f893 22fb 	ldrb.w	r2, [r3, #763]	@ 0x2fb
20007792:	2a02      	cmp	r2, #2
20007794:	f000 8110 	beq.w	200079b8 <dcd_rp2040_irq+0x2b4>
20007798:	f893 233b 	ldrb.w	r2, [r3, #827]	@ 0x33b
2000779c:	2a02      	cmp	r2, #2
2000779e:	f000 80ff 	beq.w	200079a0 <dcd_rp2040_irq+0x29c>
200077a2:	f893 237b 	ldrb.w	r2, [r3, #891]	@ 0x37b
200077a6:	2a02      	cmp	r2, #2
200077a8:	f000 80cf 	beq.w	2000794a <dcd_rp2040_irq+0x246>
200077ac:	f893 23bb 	ldrb.w	r2, [r3, #955]	@ 0x3bb
200077b0:	2a02      	cmp	r2, #2
200077b2:	f000 8194 	beq.w	20007ade <dcd_rp2040_irq+0x3da>
200077b6:	f893 23fb 	ldrb.w	r2, [r3, #1019]	@ 0x3fb
200077ba:	2a02      	cmp	r2, #2
200077bc:	f000 80df 	beq.w	2000797e <dcd_rp2040_irq+0x27a>
200077c0:	b93d      	cbnz	r5, 200077d2 <dcd_rp2040_irq+0xce>
200077c2:	4b93      	ldr	r3, [pc, #588]	@ (20007a10 <dcd_rp2040_irq+0x30c>)
200077c4:	781b      	ldrb	r3, [r3, #0]
200077c6:	b923      	cbnz	r3, 200077d2 <dcd_rp2040_irq+0xce>
200077c8:	f44f 3200 	mov.w	r2, #131072	@ 0x20000
200077cc:	4b91      	ldr	r3, [pc, #580]	@ (20007a14 <dcd_rp2040_irq+0x310>)
200077ce:	f8c3 2090 	str.w	r2, [r3, #144]	@ 0x90
200077d2:	2200      	movs	r2, #0
200077d4:	f44f 7540 	mov.w	r5, #768	@ 0x300
200077d8:	4b89      	ldr	r3, [pc, #548]	@ (20007a00 <dcd_rp2040_irq+0x2fc>)
200077da:	2101      	movs	r1, #1
200077dc:	6c9b      	ldr	r3, [r3, #72]	@ 0x48
200077de:	a803      	add	r0, sp, #12
200077e0:	f3c3 030a 	ubfx	r3, r3, #0, #11
200077e4:	f8cd 200e 	str.w	r2, [sp, #14]
200077e8:	f8cd 2012 	str.w	r2, [sp, #18]
200077ec:	f8ad 500c 	strh.w	r5, [sp, #12]
200077f0:	9304      	str	r3, [sp, #16]
200077f2:	f8ad 2016 	strh.w	r2, [sp, #22]
200077f6:	f000 fb9d 	bl	20007f34 <dcd_event_handler>
200077fa:	06e3      	lsls	r3, r4, #27
200077fc:	f44f 3500 	mov.w	r5, #131072	@ 0x20000
20007800:	4e85      	ldr	r6, [pc, #532]	@ (20007a18 <dcd_rp2040_irq+0x314>)
20007802:	d507      	bpl.n	20007814 <dcd_rp2040_irq+0x110>
20007804:	f7ff ff36 	bl	20007674 <hw_handle_buff_status>
20007808:	4635      	mov	r5, r6
2000780a:	e003      	b.n	20007814 <dcd_rp2040_irq+0x110>
2000780c:	06e3      	lsls	r3, r4, #27
2000780e:	f04f 0610 	mov.w	r6, #16
20007812:	d4f7      	bmi.n	20007804 <dcd_rp2040_irq+0x100>
20007814:	03e0      	lsls	r0, r4, #15
20007816:	d51c      	bpl.n	20007852 <dcd_rp2040_irq+0x14e>
20007818:	487b      	ldr	r0, [pc, #492]	@ (20007a08 <dcd_rp2040_irq+0x304>)
2000781a:	2602      	movs	r6, #2
2000781c:	7e83      	ldrb	r3, [r0, #26]
2000781e:	f445 3580 	orr.w	r5, r5, #65536	@ 0x10000
20007822:	bb2b      	cbnz	r3, 20007870 <dcd_rp2040_irq+0x16c>
20007824:	f04f 0301 	mov.w	r3, #1
20007828:	2e01      	cmp	r6, #1
2000782a:	70c3      	strb	r3, [r0, #3]
2000782c:	f100 0020 	add.w	r0, r0, #32
20007830:	d11a      	bne.n	20007868 <dcd_rp2040_irq+0x164>
20007832:	f44f 62c0 	mov.w	r2, #1536	@ 0x600
20007836:	4b79      	ldr	r3, [pc, #484]	@ (20007a1c <dcd_rp2040_irq+0x318>)
20007838:	9203      	str	r2, [sp, #12]
2000783a:	e893 0003 	ldmia.w	r3, {r0, r1}
2000783e:	e9cd 0104 	strd	r0, r1, [sp, #16]
20007842:	4631      	mov	r1, r6
20007844:	a803      	add	r0, sp, #12
20007846:	f000 fb75 	bl	20007f34 <dcd_event_handler>
2000784a:	f44f 3200 	mov.w	r2, #131072	@ 0x20000
2000784e:	4b71      	ldr	r3, [pc, #452]	@ (20007a14 <dcd_rp2040_irq+0x310>)
20007850:	651a      	str	r2, [r3, #80]	@ 0x50
20007852:	04e1      	lsls	r1, r4, #19
20007854:	d44c      	bmi.n	200078f0 <dcd_rp2040_irq+0x1ec>
20007856:	0462      	lsls	r2, r4, #17
20007858:	d435      	bmi.n	200078c6 <dcd_rp2040_irq+0x1c2>
2000785a:	0423      	lsls	r3, r4, #16
2000785c:	d41d      	bmi.n	2000789a <dcd_rp2040_irq+0x196>
2000785e:	42a5      	cmp	r5, r4
20007860:	f040 81cd 	bne.w	20007bfe <dcd_rp2040_irq+0x4fa>
20007864:	b006      	add	sp, #24
20007866:	bd70      	pop	{r4, r5, r6, pc}
20007868:	7e83      	ldrb	r3, [r0, #26]
2000786a:	2601      	movs	r6, #1
2000786c:	2b00      	cmp	r3, #0
2000786e:	d0d9      	beq.n	20007824 <dcd_rp2040_irq+0x120>
20007870:	4b6b      	ldr	r3, [pc, #428]	@ (20007a20 <dcd_rp2040_irq+0x31c>)
20007872:	4a63      	ldr	r2, [pc, #396]	@ (20007a00 <dcd_rp2040_irq+0x2fc>)
20007874:	661e      	str	r6, [r3, #96]	@ 0x60
20007876:	6e53      	ldr	r3, [r2, #100]	@ 0x64
20007878:	ea36 0303 	bics.w	r3, r6, r3
2000787c:	d1fb      	bne.n	20007876 <dcd_rp2040_irq+0x172>
2000787e:	f44f 5240 	mov.w	r2, #12288	@ 0x3000
20007882:	2100      	movs	r1, #0
20007884:	9001      	str	r0, [sp, #4]
20007886:	f000 fae1 	bl	20007e4c <_hw_endpoint_buffer_control_update32>
2000788a:	9801      	ldr	r0, [sp, #4]
2000788c:	f000 fad8 	bl	20007e40 <hw_endpoint_reset_transfer>
20007890:	4b60      	ldr	r3, [pc, #384]	@ (20007a14 <dcd_rp2040_irq+0x310>)
20007892:	9801      	ldr	r0, [sp, #4]
20007894:	665e      	str	r6, [r3, #100]	@ 0x64
20007896:	661e      	str	r6, [r3, #96]	@ 0x60
20007898:	e7c4      	b.n	20007824 <dcd_rp2040_irq+0x120>
2000789a:	2300      	movs	r3, #0
2000789c:	f44f 62a0 	mov.w	r2, #1280	@ 0x500
200078a0:	2101      	movs	r1, #1
200078a2:	a803      	add	r0, sp, #12
200078a4:	f8cd 300e 	str.w	r3, [sp, #14]
200078a8:	f8cd 3012 	str.w	r3, [sp, #18]
200078ac:	f8ad 3016 	strh.w	r3, [sp, #22]
200078b0:	f8ad 200c 	strh.w	r2, [sp, #12]
200078b4:	f000 fb3e 	bl	20007f34 <dcd_event_handler>
200078b8:	f44f 6200 	mov.w	r2, #2048	@ 0x800
200078bc:	4b55      	ldr	r3, [pc, #340]	@ (20007a14 <dcd_rp2040_irq+0x310>)
200078be:	f445 4500 	orr.w	r5, r5, #32768	@ 0x8000
200078c2:	651a      	str	r2, [r3, #80]	@ 0x50
200078c4:	e7cb      	b.n	2000785e <dcd_rp2040_irq+0x15a>
200078c6:	2300      	movs	r3, #0
200078c8:	f44f 6280 	mov.w	r2, #1024	@ 0x400
200078cc:	2101      	movs	r1, #1
200078ce:	a803      	add	r0, sp, #12
200078d0:	f8cd 300e 	str.w	r3, [sp, #14]
200078d4:	f8cd 3012 	str.w	r3, [sp, #18]
200078d8:	f8ad 3016 	strh.w	r3, [sp, #22]
200078dc:	f8ad 200c 	strh.w	r2, [sp, #12]
200078e0:	f000 fb28 	bl	20007f34 <dcd_event_handler>
200078e4:	2210      	movs	r2, #16
200078e6:	4b4b      	ldr	r3, [pc, #300]	@ (20007a14 <dcd_rp2040_irq+0x310>)
200078e8:	f445 4580 	orr.w	r5, r5, #16384	@ 0x4000
200078ec:	651a      	str	r2, [r3, #80]	@ 0x50
200078ee:	e7b4      	b.n	2000785a <dcd_rp2040_irq+0x156>
200078f0:	2600      	movs	r6, #0
200078f2:	4b43      	ldr	r3, [pc, #268]	@ (20007a00 <dcd_rp2040_irq+0x2fc>)
200078f4:	f445 5580 	orr.w	r5, r5, #4096	@ 0x1000
200078f8:	601e      	str	r6, [r3, #0]
200078fa:	f7ff fe89 	bl	20007610 <reset_non_control_endpoints>
200078fe:	f44f 7380 	mov.w	r3, #256	@ 0x100
20007902:	2101      	movs	r1, #1
20007904:	a803      	add	r0, sp, #12
20007906:	f8ad 300c 	strh.w	r3, [sp, #12]
2000790a:	f8cd 600e 	str.w	r6, [sp, #14]
2000790e:	f8cd 6012 	str.w	r6, [sp, #18]
20007912:	f8ad 6016 	strh.w	r6, [sp, #22]
20007916:	f000 fb0d 	bl	20007f34 <dcd_event_handler>
2000791a:	f44f 2200 	mov.w	r2, #524288	@ 0x80000
2000791e:	4b3d      	ldr	r3, [pc, #244]	@ (20007a14 <dcd_rp2040_irq+0x310>)
20007920:	651a      	str	r2, [r3, #80]	@ 0x50
20007922:	e798      	b.n	20007856 <dcd_rp2040_irq+0x152>
20007924:	f893 503a 	ldrb.w	r5, [r3, #58]	@ 0x3a
20007928:	2d00      	cmp	r5, #0
2000792a:	f43f aefe 	beq.w	2000772a <dcd_rp2040_irq+0x26>
2000792e:	f893 203c 	ldrb.w	r2, [r3, #60]	@ 0x3c
20007932:	2a00      	cmp	r2, #0
20007934:	f43f aef9 	beq.w	2000772a <dcd_rp2040_irq+0x26>
20007938:	2200      	movs	r2, #0
2000793a:	f103 0020 	add.w	r0, r3, #32
2000793e:	f883 203c 	strb.w	r2, [r3, #60]	@ 0x3c
20007942:	f000 faa7 	bl	20007e94 <hw_endpoint_start_next_buffer>
20007946:	4b30      	ldr	r3, [pc, #192]	@ (20007a08 <dcd_rp2040_irq+0x304>)
20007948:	e6ef      	b.n	2000772a <dcd_rp2040_irq+0x26>
2000794a:	f893 637a 	ldrb.w	r6, [r3, #890]	@ 0x37a
2000794e:	2e00      	cmp	r6, #0
20007950:	f43f af2c 	beq.w	200077ac <dcd_rp2040_irq+0xa8>
20007954:	f893 237c 	ldrb.w	r2, [r3, #892]	@ 0x37c
20007958:	2a00      	cmp	r2, #0
2000795a:	f040 8140 	bne.w	20007bde <dcd_rp2040_irq+0x4da>
2000795e:	f893 23bb 	ldrb.w	r2, [r3, #955]	@ 0x3bb
20007962:	2a02      	cmp	r2, #2
20007964:	f040 80c4 	bne.w	20007af0 <dcd_rp2040_irq+0x3ec>
20007968:	f893 23ba 	ldrb.w	r2, [r3, #954]	@ 0x3ba
2000796c:	2a00      	cmp	r2, #0
2000796e:	f040 80bb 	bne.w	20007ae8 <dcd_rp2040_irq+0x3e4>
20007972:	f893 23fb 	ldrb.w	r2, [r3, #1019]	@ 0x3fb
20007976:	2a02      	cmp	r2, #2
20007978:	f47f af2b 	bne.w	200077d2 <dcd_rp2040_irq+0xce>
2000797c:	4635      	mov	r5, r6
2000797e:	f893 23fa 	ldrb.w	r2, [r3, #1018]	@ 0x3fa
20007982:	2a00      	cmp	r2, #0
20007984:	f43f af1c 	beq.w	200077c0 <dcd_rp2040_irq+0xbc>
20007988:	f893 23fc 	ldrb.w	r2, [r3, #1020]	@ 0x3fc
2000798c:	2a00      	cmp	r2, #0
2000798e:	f43f af20 	beq.w	200077d2 <dcd_rp2040_irq+0xce>
20007992:	2200      	movs	r2, #0
20007994:	4823      	ldr	r0, [pc, #140]	@ (20007a24 <dcd_rp2040_irq+0x320>)
20007996:	f883 23fc 	strb.w	r2, [r3, #1020]	@ 0x3fc
2000799a:	f000 fa7b 	bl	20007e94 <hw_endpoint_start_next_buffer>
2000799e:	e718      	b.n	200077d2 <dcd_rp2040_irq+0xce>
200079a0:	f893 633a 	ldrb.w	r6, [r3, #826]	@ 0x33a
200079a4:	2e00      	cmp	r6, #0
200079a6:	f43f aefc 	beq.w	200077a2 <dcd_rp2040_irq+0x9e>
200079aa:	f893 233c 	ldrb.w	r2, [r3, #828]	@ 0x33c
200079ae:	2a00      	cmp	r2, #0
200079b0:	f040 80a9 	bne.w	20007b06 <dcd_rp2040_irq+0x402>
200079b4:	4635      	mov	r5, r6
200079b6:	e6f4      	b.n	200077a2 <dcd_rp2040_irq+0x9e>
200079b8:	f893 62fa 	ldrb.w	r6, [r3, #762]	@ 0x2fa
200079bc:	2e00      	cmp	r6, #0
200079be:	f43f aeeb 	beq.w	20007798 <dcd_rp2040_irq+0x94>
200079c2:	f893 22fc 	ldrb.w	r2, [r3, #764]	@ 0x2fc
200079c6:	2a00      	cmp	r2, #0
200079c8:	f040 80af 	bne.w	20007b2a <dcd_rp2040_irq+0x426>
200079cc:	4635      	mov	r5, r6
200079ce:	e6e3      	b.n	20007798 <dcd_rp2040_irq+0x94>
200079d0:	f893 62ba 	ldrb.w	r6, [r3, #698]	@ 0x2ba
200079d4:	2e00      	cmp	r6, #0
200079d6:	f43f aeda 	beq.w	2000778e <dcd_rp2040_irq+0x8a>
200079da:	f893 22bc 	ldrb.w	r2, [r3, #700]	@ 0x2bc
200079de:	2a00      	cmp	r2, #0
200079e0:	f040 809a 	bne.w	20007b18 <dcd_rp2040_irq+0x414>
200079e4:	4635      	mov	r5, r6
200079e6:	e6d2      	b.n	2000778e <dcd_rp2040_irq+0x8a>
200079e8:	f893 627a 	ldrb.w	r6, [r3, #634]	@ 0x27a
200079ec:	2e00      	cmp	r6, #0
200079ee:	f43f aec9 	beq.w	20007784 <dcd_rp2040_irq+0x80>
200079f2:	f893 227c 	ldrb.w	r2, [r3, #636]	@ 0x27c
200079f6:	2a00      	cmp	r2, #0
200079f8:	f040 80cd 	bne.w	20007b96 <dcd_rp2040_irq+0x492>
200079fc:	4635      	mov	r5, r6
200079fe:	e6c1      	b.n	20007784 <dcd_rp2040_irq+0x80>
20007a00:	50110000 	.word	0x50110000
20007a04:	400b0000 	.word	0x400b0000
20007a08:	200096d0 	.word	0x200096d0
20007a0c:	200096c8 	.word	0x200096c8
20007a10:	20019b66 	.word	0x20019b66
20007a14:	50113000 	.word	0x50113000
20007a18:	00020010 	.word	0x00020010
20007a1c:	50100000 	.word	0x50100000
20007a20:	50112000 	.word	0x50112000
20007a24:	20009ab0 	.word	0x20009ab0
20007a28:	f893 623a 	ldrb.w	r6, [r3, #570]	@ 0x23a
20007a2c:	2e00      	cmp	r6, #0
20007a2e:	f43f aea4 	beq.w	2000777a <dcd_rp2040_irq+0x76>
20007a32:	f893 223c 	ldrb.w	r2, [r3, #572]	@ 0x23c
20007a36:	2a00      	cmp	r2, #0
20007a38:	f040 80a4 	bne.w	20007b84 <dcd_rp2040_irq+0x480>
20007a3c:	4635      	mov	r5, r6
20007a3e:	e69c      	b.n	2000777a <dcd_rp2040_irq+0x76>
20007a40:	f893 61fa 	ldrb.w	r6, [r3, #506]	@ 0x1fa
20007a44:	2e00      	cmp	r6, #0
20007a46:	f43f ae93 	beq.w	20007770 <dcd_rp2040_irq+0x6c>
20007a4a:	f893 21fc 	ldrb.w	r2, [r3, #508]	@ 0x1fc
20007a4e:	2a00      	cmp	r2, #0
20007a50:	f040 808f 	bne.w	20007b72 <dcd_rp2040_irq+0x46e>
20007a54:	4635      	mov	r5, r6
20007a56:	e68b      	b.n	20007770 <dcd_rp2040_irq+0x6c>
20007a58:	f893 61ba 	ldrb.w	r6, [r3, #442]	@ 0x1ba
20007a5c:	2e00      	cmp	r6, #0
20007a5e:	f43f ae82 	beq.w	20007766 <dcd_rp2040_irq+0x62>
20007a62:	f893 21bc 	ldrb.w	r2, [r3, #444]	@ 0x1bc
20007a66:	2a00      	cmp	r2, #0
20007a68:	d17a      	bne.n	20007b60 <dcd_rp2040_irq+0x45c>
20007a6a:	4635      	mov	r5, r6
20007a6c:	e67b      	b.n	20007766 <dcd_rp2040_irq+0x62>
20007a6e:	f893 617a 	ldrb.w	r6, [r3, #378]	@ 0x17a
20007a72:	2e00      	cmp	r6, #0
20007a74:	f43f ae72 	beq.w	2000775c <dcd_rp2040_irq+0x58>
20007a78:	f893 217c 	ldrb.w	r2, [r3, #380]	@ 0x17c
20007a7c:	2a00      	cmp	r2, #0
20007a7e:	d166      	bne.n	20007b4e <dcd_rp2040_irq+0x44a>
20007a80:	4635      	mov	r5, r6
20007a82:	e66b      	b.n	2000775c <dcd_rp2040_irq+0x58>
20007a84:	f893 613a 	ldrb.w	r6, [r3, #314]	@ 0x13a
20007a88:	2e00      	cmp	r6, #0
20007a8a:	f43f ae62 	beq.w	20007752 <dcd_rp2040_irq+0x4e>
20007a8e:	f893 213c 	ldrb.w	r2, [r3, #316]	@ 0x13c
20007a92:	2a00      	cmp	r2, #0
20007a94:	f040 8091 	bne.w	20007bba <dcd_rp2040_irq+0x4b6>
20007a98:	4635      	mov	r5, r6
20007a9a:	e65a      	b.n	20007752 <dcd_rp2040_irq+0x4e>
20007a9c:	f893 60fa 	ldrb.w	r6, [r3, #250]	@ 0xfa
20007aa0:	2e00      	cmp	r6, #0
20007aa2:	f43f ae51 	beq.w	20007748 <dcd_rp2040_irq+0x44>
20007aa6:	f893 20fc 	ldrb.w	r2, [r3, #252]	@ 0xfc
20007aaa:	2a00      	cmp	r2, #0
20007aac:	d17c      	bne.n	20007ba8 <dcd_rp2040_irq+0x4a4>
20007aae:	4635      	mov	r5, r6
20007ab0:	e64a      	b.n	20007748 <dcd_rp2040_irq+0x44>
20007ab2:	f893 60ba 	ldrb.w	r6, [r3, #186]	@ 0xba
20007ab6:	2e00      	cmp	r6, #0
20007ab8:	f43f ae41 	beq.w	2000773e <dcd_rp2040_irq+0x3a>
20007abc:	f893 20bc 	ldrb.w	r2, [r3, #188]	@ 0xbc
20007ac0:	2a00      	cmp	r2, #0
20007ac2:	d13b      	bne.n	20007b3c <dcd_rp2040_irq+0x438>
20007ac4:	4635      	mov	r5, r6
20007ac6:	e63a      	b.n	2000773e <dcd_rp2040_irq+0x3a>
20007ac8:	f893 607a 	ldrb.w	r6, [r3, #122]	@ 0x7a
20007acc:	2e00      	cmp	r6, #0
20007ace:	f43f ae31 	beq.w	20007734 <dcd_rp2040_irq+0x30>
20007ad2:	f893 207c 	ldrb.w	r2, [r3, #124]	@ 0x7c
20007ad6:	2a00      	cmp	r2, #0
20007ad8:	d178      	bne.n	20007bcc <dcd_rp2040_irq+0x4c8>
20007ada:	4635      	mov	r5, r6
20007adc:	e62a      	b.n	20007734 <dcd_rp2040_irq+0x30>
20007ade:	f893 23ba 	ldrb.w	r2, [r3, #954]	@ 0x3ba
20007ae2:	2a00      	cmp	r2, #0
20007ae4:	f43f ae67 	beq.w	200077b6 <dcd_rp2040_irq+0xb2>
20007ae8:	f893 23bc 	ldrb.w	r2, [r3, #956]	@ 0x3bc
20007aec:	2a00      	cmp	r2, #0
20007aee:	d17e      	bne.n	20007bee <dcd_rp2040_irq+0x4ea>
20007af0:	f893 23fb 	ldrb.w	r2, [r3, #1019]	@ 0x3fb
20007af4:	2a02      	cmp	r2, #2
20007af6:	f47f ae6c 	bne.w	200077d2 <dcd_rp2040_irq+0xce>
20007afa:	f893 23fa 	ldrb.w	r2, [r3, #1018]	@ 0x3fa
20007afe:	2a00      	cmp	r2, #0
20007b00:	f43f ae67 	beq.w	200077d2 <dcd_rp2040_irq+0xce>
20007b04:	e740      	b.n	20007988 <dcd_rp2040_irq+0x284>
20007b06:	2200      	movs	r2, #0
20007b08:	483f      	ldr	r0, [pc, #252]	@ (20007c08 <dcd_rp2040_irq+0x504>)
20007b0a:	f883 233c 	strb.w	r2, [r3, #828]	@ 0x33c
20007b0e:	4635      	mov	r5, r6
20007b10:	f000 f9c0 	bl	20007e94 <hw_endpoint_start_next_buffer>
20007b14:	4b3d      	ldr	r3, [pc, #244]	@ (20007c0c <dcd_rp2040_irq+0x508>)
20007b16:	e644      	b.n	200077a2 <dcd_rp2040_irq+0x9e>
20007b18:	2200      	movs	r2, #0
20007b1a:	483d      	ldr	r0, [pc, #244]	@ (20007c10 <dcd_rp2040_irq+0x50c>)
20007b1c:	f883 22bc 	strb.w	r2, [r3, #700]	@ 0x2bc
20007b20:	4635      	mov	r5, r6
20007b22:	f000 f9b7 	bl	20007e94 <hw_endpoint_start_next_buffer>
20007b26:	4b39      	ldr	r3, [pc, #228]	@ (20007c0c <dcd_rp2040_irq+0x508>)
20007b28:	e631      	b.n	2000778e <dcd_rp2040_irq+0x8a>
20007b2a:	2200      	movs	r2, #0
20007b2c:	4839      	ldr	r0, [pc, #228]	@ (20007c14 <dcd_rp2040_irq+0x510>)
20007b2e:	f883 22fc 	strb.w	r2, [r3, #764]	@ 0x2fc
20007b32:	4635      	mov	r5, r6
20007b34:	f000 f9ae 	bl	20007e94 <hw_endpoint_start_next_buffer>
20007b38:	4b34      	ldr	r3, [pc, #208]	@ (20007c0c <dcd_rp2040_irq+0x508>)
20007b3a:	e62d      	b.n	20007798 <dcd_rp2040_irq+0x94>
20007b3c:	2200      	movs	r2, #0
20007b3e:	4836      	ldr	r0, [pc, #216]	@ (20007c18 <dcd_rp2040_irq+0x514>)
20007b40:	f883 20bc 	strb.w	r2, [r3, #188]	@ 0xbc
20007b44:	4635      	mov	r5, r6
20007b46:	f000 f9a5 	bl	20007e94 <hw_endpoint_start_next_buffer>
20007b4a:	4b30      	ldr	r3, [pc, #192]	@ (20007c0c <dcd_rp2040_irq+0x508>)
20007b4c:	e5f7      	b.n	2000773e <dcd_rp2040_irq+0x3a>
20007b4e:	2200      	movs	r2, #0
20007b50:	4832      	ldr	r0, [pc, #200]	@ (20007c1c <dcd_rp2040_irq+0x518>)
20007b52:	f883 217c 	strb.w	r2, [r3, #380]	@ 0x17c
20007b56:	4635      	mov	r5, r6
20007b58:	f000 f99c 	bl	20007e94 <hw_endpoint_start_next_buffer>
20007b5c:	4b2b      	ldr	r3, [pc, #172]	@ (20007c0c <dcd_rp2040_irq+0x508>)
20007b5e:	e5fd      	b.n	2000775c <dcd_rp2040_irq+0x58>
20007b60:	2200      	movs	r2, #0
20007b62:	482f      	ldr	r0, [pc, #188]	@ (20007c20 <dcd_rp2040_irq+0x51c>)
20007b64:	f883 21bc 	strb.w	r2, [r3, #444]	@ 0x1bc
20007b68:	4635      	mov	r5, r6
20007b6a:	f000 f993 	bl	20007e94 <hw_endpoint_start_next_buffer>
20007b6e:	4b27      	ldr	r3, [pc, #156]	@ (20007c0c <dcd_rp2040_irq+0x508>)
20007b70:	e5f9      	b.n	20007766 <dcd_rp2040_irq+0x62>
20007b72:	2200      	movs	r2, #0
20007b74:	482b      	ldr	r0, [pc, #172]	@ (20007c24 <dcd_rp2040_irq+0x520>)
20007b76:	f883 21fc 	strb.w	r2, [r3, #508]	@ 0x1fc
20007b7a:	4635      	mov	r5, r6
20007b7c:	f000 f98a 	bl	20007e94 <hw_endpoint_start_next_buffer>
20007b80:	4b22      	ldr	r3, [pc, #136]	@ (20007c0c <dcd_rp2040_irq+0x508>)
20007b82:	e5f5      	b.n	20007770 <dcd_rp2040_irq+0x6c>
20007b84:	2200      	movs	r2, #0
20007b86:	4828      	ldr	r0, [pc, #160]	@ (20007c28 <dcd_rp2040_irq+0x524>)
20007b88:	f883 223c 	strb.w	r2, [r3, #572]	@ 0x23c
20007b8c:	4635      	mov	r5, r6
20007b8e:	f000 f981 	bl	20007e94 <hw_endpoint_start_next_buffer>
20007b92:	4b1e      	ldr	r3, [pc, #120]	@ (20007c0c <dcd_rp2040_irq+0x508>)
20007b94:	e5f1      	b.n	2000777a <dcd_rp2040_irq+0x76>
20007b96:	2200      	movs	r2, #0
20007b98:	4824      	ldr	r0, [pc, #144]	@ (20007c2c <dcd_rp2040_irq+0x528>)
20007b9a:	f883 227c 	strb.w	r2, [r3, #636]	@ 0x27c
20007b9e:	4635      	mov	r5, r6
20007ba0:	f000 f978 	bl	20007e94 <hw_endpoint_start_next_buffer>
20007ba4:	4b19      	ldr	r3, [pc, #100]	@ (20007c0c <dcd_rp2040_irq+0x508>)
20007ba6:	e5ed      	b.n	20007784 <dcd_rp2040_irq+0x80>
20007ba8:	2200      	movs	r2, #0
20007baa:	4821      	ldr	r0, [pc, #132]	@ (20007c30 <dcd_rp2040_irq+0x52c>)
20007bac:	f883 20fc 	strb.w	r2, [r3, #252]	@ 0xfc
20007bb0:	4635      	mov	r5, r6
20007bb2:	f000 f96f 	bl	20007e94 <hw_endpoint_start_next_buffer>
20007bb6:	4b15      	ldr	r3, [pc, #84]	@ (20007c0c <dcd_rp2040_irq+0x508>)
20007bb8:	e5c6      	b.n	20007748 <dcd_rp2040_irq+0x44>
20007bba:	2200      	movs	r2, #0
20007bbc:	481d      	ldr	r0, [pc, #116]	@ (20007c34 <dcd_rp2040_irq+0x530>)
20007bbe:	f883 213c 	strb.w	r2, [r3, #316]	@ 0x13c
20007bc2:	4635      	mov	r5, r6
20007bc4:	f000 f966 	bl	20007e94 <hw_endpoint_start_next_buffer>
20007bc8:	4b10      	ldr	r3, [pc, #64]	@ (20007c0c <dcd_rp2040_irq+0x508>)
20007bca:	e5c2      	b.n	20007752 <dcd_rp2040_irq+0x4e>
20007bcc:	2200      	movs	r2, #0
20007bce:	481a      	ldr	r0, [pc, #104]	@ (20007c38 <dcd_rp2040_irq+0x534>)
20007bd0:	f883 207c 	strb.w	r2, [r3, #124]	@ 0x7c
20007bd4:	4635      	mov	r5, r6
20007bd6:	f000 f95d 	bl	20007e94 <hw_endpoint_start_next_buffer>
20007bda:	4b0c      	ldr	r3, [pc, #48]	@ (20007c0c <dcd_rp2040_irq+0x508>)
20007bdc:	e5aa      	b.n	20007734 <dcd_rp2040_irq+0x30>
20007bde:	2200      	movs	r2, #0
20007be0:	4816      	ldr	r0, [pc, #88]	@ (20007c3c <dcd_rp2040_irq+0x538>)
20007be2:	f883 237c 	strb.w	r2, [r3, #892]	@ 0x37c
20007be6:	f000 f955 	bl	20007e94 <hw_endpoint_start_next_buffer>
20007bea:	4b08      	ldr	r3, [pc, #32]	@ (20007c0c <dcd_rp2040_irq+0x508>)
20007bec:	e6b7      	b.n	2000795e <dcd_rp2040_irq+0x25a>
20007bee:	2200      	movs	r2, #0
20007bf0:	4813      	ldr	r0, [pc, #76]	@ (20007c40 <dcd_rp2040_irq+0x53c>)
20007bf2:	f883 23bc 	strb.w	r2, [r3, #956]	@ 0x3bc
20007bf6:	f000 f94d 	bl	20007e94 <hw_endpoint_start_next_buffer>
20007bfa:	4b04      	ldr	r3, [pc, #16]	@ (20007c0c <dcd_rp2040_irq+0x508>)
20007bfc:	e778      	b.n	20007af0 <dcd_rp2040_irq+0x3ec>
20007bfe:	4811      	ldr	r0, [pc, #68]	@ (20007c44 <dcd_rp2040_irq+0x540>)
20007c00:	ea85 0104 	eor.w	r1, r5, r4
20007c04:	f7f9 f91e 	bl	20000e44 <panic>
20007c08:	200099f0 	.word	0x200099f0
20007c0c:	200096d0 	.word	0x200096d0
20007c10:	20009970 	.word	0x20009970
20007c14:	200099b0 	.word	0x200099b0
20007c18:	20009770 	.word	0x20009770
20007c1c:	20009830 	.word	0x20009830
20007c20:	20009870 	.word	0x20009870
20007c24:	200098b0 	.word	0x200098b0
20007c28:	200098f0 	.word	0x200098f0
20007c2c:	20009930 	.word	0x20009930
20007c30:	200097b0 	.word	0x200097b0
20007c34:	200097f0 	.word	0x200097f0
20007c38:	20009730 	.word	0x20009730
20007c3c:	20009a30 	.word	0x20009a30
20007c40:	20009a70 	.word	0x20009a70
20007c44:	20008538 	.word	0x20008538

20007c48 <prepare_ep_buffer>:
20007c48:	e92d 43f0 	stmdb	sp!, {r4, r5, r6, r7, r8, r9, lr}
20007c4c:	8a82      	ldrh	r2, [r0, #20]
20007c4e:	f8b0 e018 	ldrh.w	lr, [r0, #24]
20007c52:	4603      	mov	r3, r0
20007c54:	4596      	cmp	lr, r2
20007c56:	78c0      	ldrb	r0, [r0, #3]
20007c58:	bf28      	it	cs
20007c5a:	4696      	movcs	lr, r2
20007c5c:	1e04      	subs	r4, r0, #0
20007c5e:	bf18      	it	ne
20007c60:	2401      	movne	r4, #1
20007c62:	f080 0001 	eor.w	r0, r0, #1
20007c66:	460d      	mov	r5, r1
20007c68:	eba2 020e 	sub.w	r2, r2, lr
20007c6c:	7859      	ldrb	r1, [r3, #1]
20007c6e:	70d8      	strb	r0, [r3, #3]
20007c70:	b292      	uxth	r2, r2
20007c72:	f44e 6080 	orr.w	r0, lr, #1024	@ 0x400
20007c76:	829a      	strh	r2, [r3, #20]
20007c78:	ea40 3044 	orr.w	r0, r0, r4, lsl #13
20007c7c:	bba1      	cbnz	r1, 20007ce8 <prepare_ep_buffer+0xa0>
20007c7e:	6919      	ldr	r1, [r3, #16]
20007c80:	f1be 0f00 	cmp.w	lr, #0
20007c84:	d02c      	beq.n	20007ce0 <prepare_ep_buffer+0x98>
20007c86:	f10e 34ff 	add.w	r4, lr, #4294967295	@ 0xffffffff
20007c8a:	68da      	ldr	r2, [r3, #12]
20007c8c:	2c05      	cmp	r4, #5
20007c8e:	46a1      	mov	r9, r4
20007c90:	eb02 1885 	add.w	r8, r2, r5, lsl #6
20007c94:	d92f      	bls.n	20007cf6 <prepare_ep_buffer+0xae>
20007c96:	eba8 0401 	sub.w	r4, r8, r1
20007c9a:	3c01      	subs	r4, #1
20007c9c:	2c02      	cmp	r4, #2
20007c9e:	46c4      	mov	ip, r8
20007ca0:	460a      	mov	r2, r1
20007ca2:	d928      	bls.n	20007cf6 <prepare_ep_buffer+0xae>
20007ca4:	ea4f 079e 	mov.w	r7, lr, lsr #2
20007ca8:	eb01 0687 	add.w	r6, r1, r7, lsl #2
20007cac:	f852 4b04 	ldr.w	r4, [r2], #4
20007cb0:	4296      	cmp	r6, r2
20007cb2:	f84c 4b04 	str.w	r4, [ip], #4
20007cb6:	d1f9      	bne.n	20007cac <prepare_ep_buffer+0x64>
20007cb8:	ebbe 0f87 	cmp.w	lr, r7, lsl #2
20007cbc:	d00e      	beq.n	20007cdc <prepare_ep_buffer+0x94>
20007cbe:	f811 2027 	ldrb.w	r2, [r1, r7, lsl #2]
20007cc2:	ebb9 0187 	subs.w	r1, r9, r7, lsl #2
20007cc6:	f808 2027 	strb.w	r2, [r8, r7, lsl #2]
20007cca:	eb08 0287 	add.w	r2, r8, r7, lsl #2
20007cce:	d005      	beq.n	20007cdc <prepare_ep_buffer+0x94>
20007cd0:	7874      	ldrb	r4, [r6, #1]
20007cd2:	2901      	cmp	r1, #1
20007cd4:	7054      	strb	r4, [r2, #1]
20007cd6:	d001      	beq.n	20007cdc <prepare_ep_buffer+0x94>
20007cd8:	78b1      	ldrb	r1, [r6, #2]
20007cda:	7091      	strb	r1, [r2, #2]
20007cdc:	6919      	ldr	r1, [r3, #16]
20007cde:	8a9a      	ldrh	r2, [r3, #20]
20007ce0:	4471      	add	r1, lr
20007ce2:	6119      	str	r1, [r3, #16]
20007ce4:	f440 4000 	orr.w	r0, r0, #32768	@ 0x8000
20007ce8:	b90a      	cbnz	r2, 20007cee <prepare_ep_buffer+0xa6>
20007cea:	f440 4080 	orr.w	r0, r0, #16384	@ 0x4000
20007cee:	b105      	cbz	r5, 20007cf2 <prepare_ep_buffer+0xaa>
20007cf0:	0400      	lsls	r0, r0, #16
20007cf2:	e8bd 83f0 	ldmia.w	sp!, {r4, r5, r6, r7, r8, r9, pc}
20007cf6:	f108 32ff 	add.w	r2, r8, #4294967295	@ 0xffffffff
20007cfa:	eb01 060e 	add.w	r6, r1, lr
20007cfe:	f811 4b01 	ldrb.w	r4, [r1], #1
20007d02:	42b1      	cmp	r1, r6
20007d04:	f802 4f01 	strb.w	r4, [r2, #1]!
20007d08:	d1f9      	bne.n	20007cfe <prepare_ep_buffer+0xb6>
20007d0a:	e7e7      	b.n	20007cdc <prepare_ep_buffer+0x94>

20007d0c <sync_ep_buffer>:
20007d0c:	6883      	ldr	r3, [r0, #8]
20007d0e:	e92d 41f0 	stmdb	sp!, {r4, r5, r6, r7, r8, lr}
20007d12:	4605      	mov	r5, r0
20007d14:	6818      	ldr	r0, [r3, #0]
20007d16:	b101      	cbz	r1, 20007d1a <sync_ep_buffer+0xe>
20007d18:	0c00      	lsrs	r0, r0, #16
20007d1a:	786a      	ldrb	r2, [r5, #1]
20007d1c:	f3c0 0009 	ubfx	r0, r0, #0, #10
20007d20:	b94a      	cbnz	r2, 20007d36 <sync_ep_buffer+0x2a>
20007d22:	8aeb      	ldrh	r3, [r5, #22]
20007d24:	4403      	add	r3, r0
20007d26:	82eb      	strh	r3, [r5, #22]
20007d28:	8b2b      	ldrh	r3, [r5, #24]
20007d2a:	4283      	cmp	r3, r0
20007d2c:	bf84      	itt	hi
20007d2e:	2300      	movhi	r3, #0
20007d30:	82ab      	strhhi	r3, [r5, #20]
20007d32:	e8bd 81f0 	ldmia.w	sp!, {r4, r5, r6, r7, r8, pc}
20007d36:	f8d5 c010 	ldr.w	ip, [r5, #16]
20007d3a:	b388      	cbz	r0, 20007da0 <sync_ep_buffer+0x94>
20007d3c:	1e42      	subs	r2, r0, #1
20007d3e:	68eb      	ldr	r3, [r5, #12]
20007d40:	2a05      	cmp	r2, #5
20007d42:	4616      	mov	r6, r2
20007d44:	eb03 1e81 	add.w	lr, r3, r1, lsl #6
20007d48:	d931      	bls.n	20007dae <sync_ep_buffer+0xa2>
20007d4a:	0189      	lsls	r1, r1, #6
20007d4c:	1c4c      	adds	r4, r1, #1
20007d4e:	441c      	add	r4, r3
20007d50:	ebac 0404 	sub.w	r4, ip, r4
20007d54:	2c02      	cmp	r4, #2
20007d56:	4662      	mov	r2, ip
20007d58:	d929      	bls.n	20007dae <sync_ep_buffer+0xa2>
20007d5a:	f400 717f 	and.w	r1, r0, #1020	@ 0x3fc
20007d5e:	4673      	mov	r3, lr
20007d60:	460f      	mov	r7, r1
20007d62:	ea4f 0890 	mov.w	r8, r0, lsr #2
20007d66:	185c      	adds	r4, r3, r1
20007d68:	f853 1b04 	ldr.w	r1, [r3], #4
20007d6c:	42a3      	cmp	r3, r4
20007d6e:	f842 1b04 	str.w	r1, [r2], #4
20007d72:	d1f9      	bne.n	20007d68 <sync_ep_buffer+0x5c>
20007d74:	42b8      	cmp	r0, r7
20007d76:	d011      	beq.n	20007d9c <sync_ep_buffer+0x90>
20007d78:	f81e 3028 	ldrb.w	r3, [lr, r8, lsl #2]
20007d7c:	44be      	add	lr, r7
20007d7e:	f80c 3028 	strb.w	r3, [ip, r8, lsl #2]
20007d82:	1bf3      	subs	r3, r6, r7
20007d84:	44bc      	add	ip, r7
20007d86:	d009      	beq.n	20007d9c <sync_ep_buffer+0x90>
20007d88:	f89e 2001 	ldrb.w	r2, [lr, #1]
20007d8c:	2b01      	cmp	r3, #1
20007d8e:	f88c 2001 	strb.w	r2, [ip, #1]
20007d92:	d003      	beq.n	20007d9c <sync_ep_buffer+0x90>
20007d94:	f89e 3002 	ldrb.w	r3, [lr, #2]
20007d98:	f88c 3002 	strb.w	r3, [ip, #2]
20007d9c:	f8d5 c010 	ldr.w	ip, [r5, #16]
20007da0:	8aea      	ldrh	r2, [r5, #22]
20007da2:	eb0c 0300 	add.w	r3, ip, r0
20007da6:	4402      	add	r2, r0
20007da8:	82ea      	strh	r2, [r5, #22]
20007daa:	612b      	str	r3, [r5, #16]
20007dac:	e7bc      	b.n	20007d28 <sync_ep_buffer+0x1c>
20007dae:	f10c 3cff 	add.w	ip, ip, #4294967295	@ 0xffffffff
20007db2:	eb0e 0200 	add.w	r2, lr, r0
20007db6:	f81e 3b01 	ldrb.w	r3, [lr], #1
20007dba:	4572      	cmp	r2, lr
20007dbc:	f80c 3f01 	strb.w	r3, [ip, #1]!
20007dc0:	d1f9      	bne.n	20007db6 <sync_ep_buffer+0xaa>
20007dc2:	e7eb      	b.n	20007d9c <sync_ep_buffer+0x90>

20007dc4 <_hw_endpoint_xfer_sync>:
20007dc4:	b510      	push	{r4, lr}
20007dc6:	4604      	mov	r4, r0
20007dc8:	6883      	ldr	r3, [r0, #8]
20007dca:	2100      	movs	r1, #0
20007dcc:	681b      	ldr	r3, [r3, #0]
20007dce:	f7ff ff9d 	bl	20007d0c <sync_ep_buffer>
20007dd2:	6863      	ldr	r3, [r4, #4]
20007dd4:	681b      	ldr	r3, [r3, #0]
20007dd6:	005b      	lsls	r3, r3, #1
20007dd8:	d502      	bpl.n	20007de0 <_hw_endpoint_xfer_sync+0x1c>
20007dda:	8b23      	ldrh	r3, [r4, #24]
20007ddc:	4283      	cmp	r3, r0
20007dde:	d000      	beq.n	20007de2 <_hw_endpoint_xfer_sync+0x1e>
20007de0:	bd10      	pop	{r4, pc}
20007de2:	4620      	mov	r0, r4
20007de4:	e8bd 4010 	ldmia.w	sp!, {r4, lr}
20007de8:	2101      	movs	r1, #1
20007dea:	f7ff bf8f 	b.w	20007d0c <sync_ep_buffer>
20007dee:	bf00      	nop

20007df0 <e15_is_bulkin_ep>:
20007df0:	4b08      	ldr	r3, [pc, #32]	@ (20007e14 <e15_is_bulkin_ep+0x24>)
20007df2:	6c1b      	ldr	r3, [r3, #64]	@ 0x40
20007df4:	f013 0302 	ands.w	r3, r3, #2
20007df8:	d102      	bne.n	20007e00 <e15_is_bulkin_ep+0x10>
20007dfa:	7882      	ldrb	r2, [r0, #2]
20007dfc:	09d2      	lsrs	r2, r2, #7
20007dfe:	d101      	bne.n	20007e04 <e15_is_bulkin_ep+0x14>
20007e00:	2000      	movs	r0, #0
20007e02:	4770      	bx	lr
20007e04:	7ec0      	ldrb	r0, [r0, #27]
20007e06:	f1a0 0002 	sub.w	r0, r0, #2
20007e0a:	fab0 f080 	clz	r0, r0
20007e0e:	0940      	lsrs	r0, r0, #5
20007e10:	4770      	bx	lr
20007e12:	bf00      	nop
20007e14:	50110000 	.word	0x50110000

20007e18 <e15_is_critical_frame_period>:
20007e18:	b508      	push	{r3, lr}
20007e1a:	f7ff ffe9 	bl	20007df0 <e15_is_bulkin_ep>
20007e1e:	b150      	cbz	r0, 20007e36 <e15_is_critical_frame_period+0x1e>
20007e20:	4a05      	ldr	r2, [pc, #20]	@ (20007e38 <e15_is_critical_frame_period+0x20>)
20007e22:	4b06      	ldr	r3, [pc, #24]	@ (20007e3c <e15_is_critical_frame_period+0x24>)
20007e24:	6a90      	ldr	r0, [r2, #40]	@ 0x28
20007e26:	681b      	ldr	r3, [r3, #0]
20007e28:	f5a0 7048 	sub.w	r0, r0, #800	@ 0x320
20007e2c:	1ac0      	subs	r0, r0, r3
20007e2e:	28c6      	cmp	r0, #198	@ 0xc6
20007e30:	bf8c      	ite	hi
20007e32:	2000      	movhi	r0, #0
20007e34:	2001      	movls	r0, #1
20007e36:	bd08      	pop	{r3, pc}
20007e38:	400b0000 	.word	0x400b0000
20007e3c:	200096c8 	.word	0x200096c8

20007e40 <hw_endpoint_reset_transfer>:
20007e40:	2300      	movs	r3, #0
20007e42:	e9c0 3304 	strd	r3, r3, [r0, #16]
20007e46:	7683      	strb	r3, [r0, #26]
20007e48:	4770      	bx	lr
20007e4a:	bf00      	nop

20007e4c <_hw_endpoint_buffer_control_update32>:
20007e4c:	b508      	push	{r3, lr}
20007e4e:	6883      	ldr	r3, [r0, #8]
20007e50:	b119      	cbz	r1, 20007e5a <_hw_endpoint_buffer_control_update32+0xe>
20007e52:	f8d3 c000 	ldr.w	ip, [r3]
20007e56:	ea01 010c 	and.w	r1, r1, ip
20007e5a:	b18a      	cbz	r2, 20007e80 <_hw_endpoint_buffer_control_update32+0x34>
20007e5c:	4311      	orrs	r1, r2
20007e5e:	0552      	lsls	r2, r2, #21
20007e60:	d50e      	bpl.n	20007e80 <_hw_endpoint_buffer_control_update32+0x34>
20007e62:	681a      	ldr	r2, [r3, #0]
20007e64:	0552      	lsls	r2, r2, #21
20007e66:	d40d      	bmi.n	20007e84 <_hw_endpoint_buffer_control_update32+0x38>
20007e68:	4a08      	ldr	r2, [pc, #32]	@ (20007e8c <_hw_endpoint_buffer_control_update32+0x40>)
20007e6a:	f421 6c80 	bic.w	ip, r1, #1024	@ 0x400
20007e6e:	f8c3 c000 	str.w	ip, [r3]
20007e72:	6c12      	ldr	r2, [r2, #64]	@ 0x40
20007e74:	0792      	lsls	r2, r2, #30
20007e76:	d403      	bmi.n	20007e80 <_hw_endpoint_buffer_control_update32+0x34>
20007e78:	230c      	movs	r3, #12
20007e7a:	3b03      	subs	r3, #3
20007e7c:	d2fd      	bcs.n	20007e7a <_hw_endpoint_buffer_control_update32+0x2e>
20007e7e:	6883      	ldr	r3, [r0, #8]
20007e80:	6019      	str	r1, [r3, #0]
20007e82:	bd08      	pop	{r3, pc}
20007e84:	7881      	ldrb	r1, [r0, #2]
20007e86:	4802      	ldr	r0, [pc, #8]	@ (20007e90 <_hw_endpoint_buffer_control_update32+0x44>)
20007e88:	f7f8 ffdc 	bl	20000e44 <panic>
20007e8c:	50110000 	.word	0x50110000
20007e90:	2000854c 	.word	0x2000854c

20007e94 <hw_endpoint_start_next_buffer>:
20007e94:	b530      	push	{r4, r5, lr}
20007e96:	6843      	ldr	r3, [r0, #4]
20007e98:	2100      	movs	r1, #0
20007e9a:	b083      	sub	sp, #12
20007e9c:	4605      	mov	r5, r0
20007e9e:	681c      	ldr	r4, [r3, #0]
20007ea0:	f7ff fed2 	bl	20007c48 <prepare_ep_buffer>
20007ea4:	4b13      	ldr	r3, [pc, #76]	@ (20007ef4 <hw_endpoint_start_next_buffer+0x60>)
20007ea6:	f440 5280 	orr.w	r2, r0, #4096	@ 0x1000
20007eaa:	6c19      	ldr	r1, [r3, #64]	@ 0x40
20007eac:	78ab      	ldrb	r3, [r5, #2]
20007eae:	0789      	lsls	r1, r1, #30
20007eb0:	d50e      	bpl.n	20007ed0 <hw_endpoint_start_next_buffer+0x3c>
20007eb2:	065b      	lsls	r3, r3, #25
20007eb4:	d00e      	beq.n	20007ed4 <hw_endpoint_start_next_buffer+0x40>
20007eb6:	f024 44a0 	bic.w	r4, r4, #1342177280	@ 0x50000000
20007eba:	f044 5400 	orr.w	r4, r4, #536870912	@ 0x20000000
20007ebe:	2100      	movs	r1, #0
20007ec0:	4628      	mov	r0, r5
20007ec2:	686b      	ldr	r3, [r5, #4]
20007ec4:	601c      	str	r4, [r3, #0]
20007ec6:	b003      	add	sp, #12
20007ec8:	e8bd 4030 	ldmia.w	sp!, {r4, r5, lr}
20007ecc:	f7ff bfbe 	b.w	20007e4c <_hw_endpoint_buffer_control_update32>
20007ed0:	09db      	lsrs	r3, r3, #7
20007ed2:	d0f0      	beq.n	20007eb6 <hw_endpoint_start_next_buffer+0x22>
20007ed4:	8aab      	ldrh	r3, [r5, #20]
20007ed6:	2b00      	cmp	r3, #0
20007ed8:	d0ed      	beq.n	20007eb6 <hw_endpoint_start_next_buffer+0x22>
20007eda:	2101      	movs	r1, #1
20007edc:	4628      	mov	r0, r5
20007ede:	9201      	str	r2, [sp, #4]
20007ee0:	f7ff feb2 	bl	20007c48 <prepare_ep_buffer>
20007ee4:	9a01      	ldr	r2, [sp, #4]
20007ee6:	f024 5400 	bic.w	r4, r4, #536870912	@ 0x20000000
20007eea:	4302      	orrs	r2, r0
20007eec:	f044 44a0 	orr.w	r4, r4, #1342177280	@ 0x50000000
20007ef0:	e7e5      	b.n	20007ebe <hw_endpoint_start_next_buffer+0x2a>
20007ef2:	bf00      	nop
20007ef4:	50110000 	.word	0x50110000

20007ef8 <hw_endpoint_xfer_continue>:
20007ef8:	b538      	push	{r3, r4, r5, lr}
20007efa:	7e85      	ldrb	r5, [r0, #26]
20007efc:	4604      	mov	r4, r0
20007efe:	b195      	cbz	r5, 20007f26 <hw_endpoint_xfer_continue+0x2e>
20007f00:	f7ff ff60 	bl	20007dc4 <_hw_endpoint_xfer_sync>
20007f04:	8aa3      	ldrh	r3, [r4, #20]
20007f06:	b90b      	cbnz	r3, 20007f0c <hw_endpoint_xfer_continue+0x14>
20007f08:	4628      	mov	r0, r5
20007f0a:	bd38      	pop	{r3, r4, r5, pc}
20007f0c:	4620      	mov	r0, r4
20007f0e:	f7ff ff83 	bl	20007e18 <e15_is_critical_frame_period>
20007f12:	b120      	cbz	r0, 20007f1e <hw_endpoint_xfer_continue+0x26>
20007f14:	2301      	movs	r3, #1
20007f16:	7723      	strb	r3, [r4, #28]
20007f18:	2500      	movs	r5, #0
20007f1a:	4628      	mov	r0, r5
20007f1c:	bd38      	pop	{r3, r4, r5, pc}
20007f1e:	4620      	mov	r0, r4
20007f20:	f7ff ffb8 	bl	20007e94 <hw_endpoint_start_next_buffer>
20007f24:	e7f8      	b.n	20007f18 <hw_endpoint_xfer_continue+0x20>
20007f26:	7881      	ldrb	r1, [r0, #2]
20007f28:	4801      	ldr	r0, [pc, #4]	@ (20007f30 <hw_endpoint_xfer_continue+0x38>)
20007f2a:	f7f8 ff8b 	bl	20000e44 <panic>
20007f2e:	bf00      	nop
20007f30:	2000856c 	.word	0x2000856c

20007f34 <dcd_event_handler>:
20007f34:	b570      	push	{r4, r5, r6, lr}
20007f36:	7843      	ldrb	r3, [r0, #1]
20007f38:	4604      	mov	r4, r0
20007f3a:	3b02      	subs	r3, #2
20007f3c:	460e      	mov	r6, r1
20007f3e:	b086      	sub	sp, #24
20007f40:	2b04      	cmp	r3, #4
20007f42:	d813      	bhi.n	20007f6c <dcd_event_handler+0x38>
20007f44:	e8df f003 	tbb	[pc, r3]
20007f48:	72694903 	.word	0x72694903
20007f4c:	44          	.byte	0x44
20007f4d:	00          	.byte	0x00
20007f4e:	2100      	movs	r1, #0
20007f50:	4b78      	ldr	r3, [pc, #480]	@ (20008134 <dcd_event_handler+0x200>)
20007f52:	781a      	ldrb	r2, [r3, #0]
20007f54:	f022 0201 	bic.w	r2, r2, #1
20007f58:	701a      	strb	r2, [r3, #0]
20007f5a:	781a      	ldrb	r2, [r3, #0]
20007f5c:	f022 0202 	bic.w	r2, r2, #2
20007f60:	701a      	strb	r2, [r3, #0]
20007f62:	7059      	strb	r1, [r3, #1]
20007f64:	781a      	ldrb	r2, [r3, #0]
20007f66:	f361 0282 	bfi	r2, r1, #2, #1
20007f6a:	701a      	strb	r2, [r3, #0]
20007f6c:	4b72      	ldr	r3, [pc, #456]	@ (20008138 <dcd_event_handler+0x204>)
20007f6e:	681b      	ldr	r3, [r3, #0]
20007f70:	695a      	ldr	r2, [r3, #20]
20007f72:	f3ef 8010 	mrs	r0, PRIMASK
20007f76:	b672      	cpsid	i
20007f78:	e8d2 cfcf 	ldaexb	ip, [r2]
20007f7c:	2101      	movs	r1, #1
20007f7e:	f1bc 0f00 	cmp.w	ip, #0
20007f82:	d1f9      	bne.n	20007f78 <dcd_event_handler+0x44>
20007f84:	e8c2 1f4c 	strexb	ip, r1, [r2]
20007f88:	f1bc 0f00 	cmp.w	ip, #0
20007f8c:	d1f4      	bne.n	20007f78 <dcd_event_handler+0x44>
20007f8e:	f3bf 8f5f 	dmb	sy
20007f92:	4621      	mov	r1, r4
20007f94:	6198      	str	r0, [r3, #24]
20007f96:	4618      	mov	r0, r3
20007f98:	9301      	str	r3, [sp, #4]
20007f9a:	f7fe fd49 	bl	20006a30 <tu_fifo_write>
20007f9e:	9b01      	ldr	r3, [sp, #4]
20007fa0:	2200      	movs	r2, #0
20007fa2:	6959      	ldr	r1, [r3, #20]
20007fa4:	e8c1 2f8f 	stlb	r2, [r1]
20007fa8:	699b      	ldr	r3, [r3, #24]
20007faa:	f383 8810 	msr	PRIMASK, r3
20007fae:	b940      	cbnz	r0, 20007fc2 <dcd_event_handler+0x8e>
20007fb0:	f04f 23e0 	mov.w	r3, #3758153728	@ 0xe000e000
20007fb4:	f8d3 3df0 	ldr.w	r3, [r3, #3568]	@ 0xdf0
20007fb8:	07db      	lsls	r3, r3, #31
20007fba:	d507      	bpl.n	20007fcc <dcd_event_handler+0x98>
20007fbc:	be00      	bkpt	0x0000
20007fbe:	b006      	add	sp, #24
20007fc0:	bd70      	pop	{r4, r5, r6, pc}
20007fc2:	4632      	mov	r2, r6
20007fc4:	7861      	ldrb	r1, [r4, #1]
20007fc6:	7820      	ldrb	r0, [r4, #0]
20007fc8:	f7fd f816 	bl	20004ff8 <tud_event_hook_cb>
20007fcc:	b006      	add	sp, #24
20007fce:	bd70      	pop	{r4, r5, r6, pc}
20007fd0:	4a5a      	ldr	r2, [pc, #360]	@ (2000813c <dcd_event_handler+0x208>)
20007fd2:	7813      	ldrb	r3, [r2, #0]
20007fd4:	3301      	adds	r3, #1
20007fd6:	7013      	strb	r3, [r2, #0]
20007fd8:	e7c8      	b.n	20007f6c <dcd_event_handler+0x38>
20007fda:	2300      	movs	r3, #0
20007fdc:	4a58      	ldr	r2, [pc, #352]	@ (20008140 <dcd_event_handler+0x20c>)
20007fde:	7810      	ldrb	r0, [r2, #0]
20007fe0:	461a      	mov	r2, r3
20007fe2:	e013      	b.n	2000800c <dcd_event_handler+0xd8>
20007fe4:	4a57      	ldr	r2, [pc, #348]	@ (20008144 <dcd_event_handler+0x210>)
20007fe6:	6812      	ldr	r2, [r2, #0]
20007fe8:	eb12 1243 	adds.w	r2, r2, r3, lsl #5
20007fec:	d008      	beq.n	20008000 <dcd_event_handler+0xcc>
20007fee:	69d2      	ldr	r2, [r2, #28]
20007ff0:	b132      	cbz	r2, 20008000 <dcd_event_handler+0xcc>
20007ff2:	7820      	ldrb	r0, [r4, #0]
20007ff4:	6861      	ldr	r1, [r4, #4]
20007ff6:	9301      	str	r3, [sp, #4]
20007ff8:	4790      	blx	r2
20007ffa:	4b51      	ldr	r3, [pc, #324]	@ (20008140 <dcd_event_handler+0x20c>)
20007ffc:	7818      	ldrb	r0, [r3, #0]
20007ffe:	9b01      	ldr	r3, [sp, #4]
20008000:	3301      	adds	r3, #1
20008002:	b2db      	uxtb	r3, r3
20008004:	1c41      	adds	r1, r0, #1
20008006:	4299      	cmp	r1, r3
20008008:	461a      	mov	r2, r3
2000800a:	db18      	blt.n	2000803e <dcd_event_handler+0x10a>
2000800c:	4298      	cmp	r0, r3
2000800e:	d8e9      	bhi.n	20007fe4 <dcd_event_handler+0xb0>
20008010:	494d      	ldr	r1, [pc, #308]	@ (20008148 <dcd_event_handler+0x214>)
20008012:	1a12      	subs	r2, r2, r0
20008014:	eb01 1242 	add.w	r2, r1, r2, lsl #5
20008018:	e7e9      	b.n	20007fee <dcd_event_handler+0xba>
2000801a:	4b46      	ldr	r3, [pc, #280]	@ (20008134 <dcd_event_handler+0x200>)
2000801c:	781a      	ldrb	r2, [r3, #0]
2000801e:	07d2      	lsls	r2, r2, #31
20008020:	d5d4      	bpl.n	20007fcc <dcd_event_handler+0x98>
20008022:	781a      	ldrb	r2, [r3, #0]
20008024:	f042 0204 	orr.w	r2, r2, #4
20008028:	701a      	strb	r2, [r3, #0]
2000802a:	e79f      	b.n	20007f6c <dcd_event_handler+0x38>
2000802c:	4b41      	ldr	r3, [pc, #260]	@ (20008134 <dcd_event_handler+0x200>)
2000802e:	781a      	ldrb	r2, [r3, #0]
20008030:	07d5      	lsls	r5, r2, #31
20008032:	d5cb      	bpl.n	20007fcc <dcd_event_handler+0x98>
20008034:	781a      	ldrb	r2, [r3, #0]
20008036:	f022 0204 	bic.w	r2, r2, #4
2000803a:	701a      	strb	r2, [r3, #0]
2000803c:	e796      	b.n	20007f6c <dcd_event_handler+0x38>
2000803e:	4b3d      	ldr	r3, [pc, #244]	@ (20008134 <dcd_event_handler+0x200>)
20008040:	781a      	ldrb	r2, [r3, #0]
20008042:	0750      	lsls	r0, r2, #29
20008044:	d433      	bmi.n	200080ae <dcd_event_handler+0x17a>
20008046:	78db      	ldrb	r3, [r3, #3]
20008048:	07da      	lsls	r2, r3, #31
2000804a:	d5bf      	bpl.n	20007fcc <dcd_event_handler+0x98>
2000804c:	2203      	movs	r2, #3
2000804e:	4b3a      	ldr	r3, [pc, #232]	@ (20008138 <dcd_event_handler+0x204>)
20008050:	7820      	ldrb	r0, [r4, #0]
20008052:	6861      	ldr	r1, [r4, #4]
20008054:	681b      	ldr	r3, [r3, #0]
20008056:	f88d 000c 	strb.w	r0, [sp, #12]
2000805a:	f88d 200d 	strb.w	r2, [sp, #13]
2000805e:	695a      	ldr	r2, [r3, #20]
20008060:	9104      	str	r1, [sp, #16]
20008062:	f3ef 8110 	mrs	r1, PRIMASK
20008066:	b672      	cpsid	i
20008068:	e8d2 4fcf 	ldaexb	r4, [r2]
2000806c:	2001      	movs	r0, #1
2000806e:	2c00      	cmp	r4, #0
20008070:	d1fa      	bne.n	20008068 <dcd_event_handler+0x134>
20008072:	e8c2 0f44 	strexb	r4, r0, [r2]
20008076:	2c00      	cmp	r4, #0
20008078:	d1f6      	bne.n	20008068 <dcd_event_handler+0x134>
2000807a:	f3bf 8f5f 	dmb	sy
2000807e:	6199      	str	r1, [r3, #24]
20008080:	4618      	mov	r0, r3
20008082:	a903      	add	r1, sp, #12
20008084:	9301      	str	r3, [sp, #4]
20008086:	f7fe fcd3 	bl	20006a30 <tu_fifo_write>
2000808a:	9b01      	ldr	r3, [sp, #4]
2000808c:	2200      	movs	r2, #0
2000808e:	6959      	ldr	r1, [r3, #20]
20008090:	e8c1 2f8f 	stlb	r2, [r1]
20008094:	699b      	ldr	r3, [r3, #24]
20008096:	f383 8810 	msr	PRIMASK, r3
2000809a:	2800      	cmp	r0, #0
2000809c:	d088      	beq.n	20007fb0 <dcd_event_handler+0x7c>
2000809e:	4632      	mov	r2, r6
200080a0:	f89d 100d 	ldrb.w	r1, [sp, #13]
200080a4:	f89d 000c 	ldrb.w	r0, [sp, #12]
200080a8:	f7fc ffa6 	bl	20004ff8 <tud_event_hook_cb>
200080ac:	e78e      	b.n	20007fcc <dcd_event_handler+0x98>
200080ae:	2500      	movs	r5, #0
200080b0:	2005      	movs	r0, #5
200080b2:	7819      	ldrb	r1, [r3, #0]
200080b4:	e9cd 5504 	strd	r5, r5, [sp, #16]
200080b8:	f021 0104 	bic.w	r1, r1, #4
200080bc:	9503      	str	r5, [sp, #12]
200080be:	7019      	strb	r1, [r3, #0]
200080c0:	f88d 000d 	strb.w	r0, [sp, #13]
200080c4:	4a1c      	ldr	r2, [pc, #112]	@ (20008138 <dcd_event_handler+0x204>)
200080c6:	7821      	ldrb	r1, [r4, #0]
200080c8:	6812      	ldr	r2, [r2, #0]
200080ca:	f88d 100c 	strb.w	r1, [sp, #12]
200080ce:	6951      	ldr	r1, [r2, #20]
200080d0:	f3ef 8010 	mrs	r0, PRIMASK
200080d4:	b672      	cpsid	i
200080d6:	e8d1 efcf 	ldaexb	lr, [r1]
200080da:	f05f 0c01 	movs.w	ip, #1
200080de:	f1be 0f00 	cmp.w	lr, #0
200080e2:	d1f8      	bne.n	200080d6 <dcd_event_handler+0x1a2>
200080e4:	e8c1 cf4e 	strexb	lr, ip, [r1]
200080e8:	f1be 0f00 	cmp.w	lr, #0
200080ec:	d1f3      	bne.n	200080d6 <dcd_event_handler+0x1a2>
200080ee:	f3bf 8f5f 	dmb	sy
200080f2:	6190      	str	r0, [r2, #24]
200080f4:	a903      	add	r1, sp, #12
200080f6:	4610      	mov	r0, r2
200080f8:	9201      	str	r2, [sp, #4]
200080fa:	f7fe fc99 	bl	20006a30 <tu_fifo_write>
200080fe:	9a01      	ldr	r2, [sp, #4]
20008100:	6951      	ldr	r1, [r2, #20]
20008102:	e8c1 5f8f 	stlb	r5, [r1]
20008106:	6992      	ldr	r2, [r2, #24]
20008108:	f382 8810 	msr	PRIMASK, r2
2000810c:	4b09      	ldr	r3, [pc, #36]	@ (20008134 <dcd_event_handler+0x200>)
2000810e:	b938      	cbnz	r0, 20008120 <dcd_event_handler+0x1ec>
20008110:	f04f 22e0 	mov.w	r2, #3758153728	@ 0xe000e000
20008114:	f8d2 2df0 	ldr.w	r2, [r2, #3568]	@ 0xdf0
20008118:	07d1      	lsls	r1, r2, #31
2000811a:	d594      	bpl.n	20008046 <dcd_event_handler+0x112>
2000811c:	be00      	bkpt	0x0000
2000811e:	e792      	b.n	20008046 <dcd_event_handler+0x112>
20008120:	4632      	mov	r2, r6
20008122:	f89d 100d 	ldrb.w	r1, [sp, #13]
20008126:	f89d 000c 	ldrb.w	r0, [sp, #12]
2000812a:	f7fc ff65 	bl	20004ff8 <tud_event_hook_cb>
2000812e:	4b01      	ldr	r3, [pc, #4]	@ (20008134 <dcd_event_handler+0x200>)
20008130:	e789      	b.n	20008046 <dcd_event_handler+0x112>
20008132:	bf00      	nop
20008134:	2000927c 	.word	0x2000927c
20008138:	200092d4 	.word	0x200092d4
2000813c:	20019b67 	.word	0x20019b67
20008140:	20019b65 	.word	0x20019b65
20008144:	200091f8 	.word	0x200091f8
20008148:	200089c4 	.word	0x200089c4
2000814c:	343a3032 	.word	0x343a3032
20008150:	39343a33 	.word	0x39343a33
20008154:	00000000 	.word	0x00000000
20008158:	2072614d 	.word	0x2072614d
2000815c:	32203431 	.word	0x32203431
20008160:	00363230 	.word	0x00363230
20008164:	7265560a 	.word	0x7265560a
20008168:	6e6f6973 	.word	0x6e6f6973
2000816c:	312e313a 	.word	0x312e313a
20008170:	2064252e 	.word	0x2064252e
20008174:	706d6f43 	.word	0x706d6f43
20008178:	20656c69 	.word	0x20656c69
2000817c:	656d6974 	.word	0x656d6974
20008180:	2073253a 	.word	0x2073253a
20008184:	000a7325 	.word	0x000a7325
20008188:	0064250a 	.word	0x0064250a
2000818c:	7365520a 	.word	0x7365520a
20008190:	69747465 	.word	0x69747465
20008194:	2e2e676e 	.word	0x2e2e676e
20008198:	0000002e 	.word	0x0000002e
2000819c:	6e6f440a 	.word	0x6e6f440a
200081a0:	00000065 	.word	0x00000065
200081a4:	3430250a 	.word	0x3430250a
200081a8:	00203a58 	.word	0x00203a58
200081ac:	32302520 	.word	0x32302520
200081b0:	00000058 	.word	0x00000058
200081b4:	3a63250a 	.word	0x3a63250a
200081b8:	25202020 	.word	0x25202020
200081bc:	00000073 	.word	0x00000073
200081c0:	392d300a 	.word	0x392d300a
200081c4:	6e45203a 	.word	0x6e45203a
200081c8:	20726574 	.word	0x20726574
200081cc:	61726170 	.word	0x61726170
200081d0:	6574656d 	.word	0x6574656d
200081d4:	69642072 	.word	0x69642072
200081d8:	00746967 	.word	0x00746967
200081dc:	746e450a 	.word	0x746e450a
200081e0:	70207265 	.word	0x70207265
200081e4:	6d617261 	.word	0x6d617261
200081e8:	72657465 	.word	0x72657465
200081ec:	4528203a 	.word	0x4528203a
200081f0:	6f204353 	.word	0x6f204353
200081f4:	523c2072 	.word	0x523c2072
200081f8:	52555445 	.word	0x52555445
200081fc:	74203e4e 	.word	0x74203e4e
20008200:	7865206f 	.word	0x7865206f
20008204:	00297469 	.word	0x00297469
20008208:	54280a0a 	.word	0x54280a0a
2000820c:	20747865 	.word	0x20747865
20008210:	61726150 	.word	0x61726150
20008214:	6574656d 	.word	0x6574656d
20008218:	25273a72 	.word	0x25273a72
2000821c:	00002773 	.word	0x00002773
20008220:	6150280a 	.word	0x6150280a
20008224:	656d6172 	.word	0x656d6172
20008228:	20726574 	.word	0x20726574
2000822c:	3e206425 	.word	0x3e206425
20008230:	00000000 	.word	0x00000000
20008234:	79654b0a 	.word	0x79654b0a
20008238:	2064253a 	.word	0x2064253a
2000823c:	25783028 	.word	0x25783028
20008240:	29583230 	.word	0x29583230
20008244:	00000000 	.word	0x00000000
20008248:	2020200a 	.word	0x2020200a
2000824c:	20202020 	.word	0x20202020
20008250:	20202020 	.word	0x20202020
20008254:	20202020 	.word	0x20202020
20008258:	20202020 	.word	0x20202020
2000825c:	20202020 	.word	0x20202020
20008260:	20202020 	.word	0x20202020
20008264:	20202020 	.word	0x20202020
20008268:	2a202020 	.word	0x2a202020
2000826c:	2a2a2a2a 	.word	0x2a2a2a2a
20008270:	2a2a2a2a 	.word	0x2a2a2a2a
20008274:	2a2a2a2a 	.word	0x2a2a2a2a
20008278:	2a2a2a2a 	.word	0x2a2a2a2a
2000827c:	2a2a2a2a 	.word	0x2a2a2a2a
20008280:	2a2a2a2a 	.word	0x2a2a2a2a
20008284:	2a2a2a2a 	.word	0x2a2a2a2a
20008288:	2a2a2a2a 	.word	0x2a2a2a2a
2000828c:	2a2a2a2a 	.word	0x2a2a2a2a
20008290:	2a2a2a2a 	.word	0x2a2a2a2a
20008294:	002a2a2a 	.word	0x002a2a2a
20008298:	2020200a 	.word	0x2020200a
2000829c:	20202020 	.word	0x20202020
200082a0:	20202020 	.word	0x20202020
200082a4:	20202020 	.word	0x20202020
200082a8:	20202020 	.word	0x20202020
200082ac:	20202020 	.word	0x20202020
200082b0:	20202020 	.word	0x20202020
200082b4:	20202020 	.word	0x20202020
200082b8:	2a202020 	.word	0x2a202020
200082bc:	20202020 	.word	0x20202020
200082c0:	20202020 	.word	0x20202020
200082c4:	726f6341 	.word	0x726f6341
200082c8:	7953206e 	.word	0x7953206e
200082cc:	6d657473 	.word	0x6d657473
200082d0:	47203120 	.word	0x47203120
200082d4:	65676461 	.word	0x65676461
200082d8:	20202074 	.word	0x20202074
200082dc:	20202020 	.word	0x20202020
200082e0:	20202020 	.word	0x20202020
200082e4:	002a2020 	.word	0x002a2020
200082e8:	7265560a 	.word	0x7265560a
200082ec:	6e6f6973 	.word	0x6e6f6973
200082f0:	312e313a 	.word	0x312e313a
200082f4:	2064252e 	.word	0x2064252e
200082f8:	706d6f43 	.word	0x706d6f43
200082fc:	20656c69 	.word	0x20656c69
20008300:	656d6974 	.word	0x656d6974
20008304:	2073253a 	.word	0x2073253a
20008308:	00007325 	.word	0x00007325
2000830c:	726f6341 	.word	0x726f6341
20008310:	7953206e 	.word	0x7953206e
20008314:	6d657473 	.word	0x6d657473
20008318:	00003120 	.word	0x00003120
2000831c:	6f6d654d 	.word	0x6f6d654d
20008320:	45207972 	.word	0x45207972
20008324:	616c756d 	.word	0x616c756d
20008328:	00726f74 	.word	0x00726f74
2000832c:	74737953 	.word	0x74737953
20008330:	63206d65 	.word	0x63206d65
20008334:	6b636f6c 	.word	0x6b636f6c
20008338:	20666f20 	.word	0x20666f20
2000833c:	6b207525 	.word	0x6b207525
20008340:	63207a48 	.word	0x63207a48
20008344:	6f6e6e61 	.word	0x6f6e6e61
20008348:	65622074 	.word	0x65622074
2000834c:	61786520 	.word	0x61786520
20008350:	796c7463 	.word	0x796c7463
20008354:	68636120 	.word	0x68636120
20008358:	65766569 	.word	0x65766569
2000835c:	00000064 	.word	0x00000064
20008360:	69726553 	.word	0x69726553
20008364:	63206c61 	.word	0x63206c61
20008368:	616d6d6f 	.word	0x616d6d6f
2000836c:	6820646e 	.word	0x6820646e
20008370:	00706c65 	.word	0x00706c65
20008374:	746f6f42 	.word	0x746f6f42
20008378:	206f7420 	.word	0x206f7420
2000837c:	7373616d 	.word	0x7373616d
20008380:	6f747320 	.word	0x6f747320
20008384:	65676172 	.word	0x65676172
20008388:	00000000 	.word	0x00000000
2000838c:	72636e49 	.word	0x72636e49
20008390:	6e656d65 	.word	0x6e656d65
20008394:	78302074 	.word	0x78302074
20008398:	30303042 	.word	0x30303042
2000839c:	00000000 	.word	0x00000000
200083a0:	6f666e49 	.word	0x6f666e49
200083a4:	74616d72 	.word	0x74616d72
200083a8:	006e6f69 	.word	0x006e6f69
200083ac:	706d7544 	.word	0x706d7544
200083b0:	4d4f5220 	.word	0x4d4f5220
200083b4:	00000000 	.word	0x00000000
200083b8:	706d7544 	.word	0x706d7544
200083bc:	4d415220 	.word	0x4d415220
200083c0:	00000000 	.word	0x00000000
200083c4:	706d7544 	.word	0x706d7544
200083c8:	6d656d20 	.word	0x6d656d20
200083cc:	2079726f 	.word	0x2079726f
200083d0:	646e6977 	.word	0x646e6977
200083d4:	0000776f 	.word	0x0000776f
200083d8:	65746e45 	.word	0x65746e45
200083dc:	61702072 	.word	0x61702072
200083e0:	656d6172 	.word	0x656d6172
200083e4:	20726574 	.word	0x20726574
200083e8:	756c6176 	.word	0x756c6176
200083ec:	00000065 	.word	0x00000065
200083f0:	73726556 	.word	0x73726556
200083f4:	006e6f69 	.word	0x006e6f69
200083f8:	65736552 	.word	0x65736552
200083fc:	00000074 	.word	0x00000074
20008400:	6769442a 	.word	0x6769442a
20008404:	00007469 	.word	0x00007469
20008408:	64616f4c 	.word	0x64616f4c
2000840c:	70706120 	.word	0x70706120
20008410:	00000031 	.word	0x00000031
20008414:	2a2a2a0a 	.word	0x2a2a2a0a
20008418:	4e415020 	.word	0x4e415020
2000841c:	2a204349 	.word	0x2a204349
20008420:	000a2a2a 	.word	0x000a2a2a
20008424:	0000000a 	.word	0x0000000a
20008428:	73206f4e 	.word	0x73206f4e
2000842c:	6c6e6970 	.word	0x6c6e6970
20008430:	736b636f 	.word	0x736b636f
20008434:	65726120 	.word	0x65726120
20008438:	61766120 	.word	0x61766120
2000843c:	62616c69 	.word	0x62616c69
20008440:	0000656c 	.word	0x0000656c
20008444:	75206f4e 	.word	0x75206f4e
20008448:	20726573 	.word	0x20726573
2000844c:	73515249 	.word	0x73515249
20008450:	65726120 	.word	0x65726120
20008454:	61766120 	.word	0x61766120
20008458:	62616c69 	.word	0x62616c69
2000845c:	0000656c 	.word	0x0000656c
20008460:	64726148 	.word	0x64726148
20008464:	65726177 	.word	0x65726177
20008468:	616c6120 	.word	0x616c6120
2000846c:	25206d72 	.word	0x25206d72
20008470:	6c612064 	.word	0x6c612064
20008474:	64616572 	.word	0x64616572
20008478:	6c632079 	.word	0x6c632079
2000847c:	656d6961 	.word	0x656d6961
20008480:	00000064 	.word	0x00000064
20008484:	64726148 	.word	0x64726148
20008488:	73736120 	.word	0x73736120
2000848c:	00747265 	.word	0x00747265
20008490:	656c6552 	.word	0x656c6552
20008494:	00657361 	.word	0x00657361
20008498:	746f6f62 	.word	0x746f6f62
2000849c:	32775f32 	.word	0x32775f32
200084a0:	38307135 	.word	0x38307135
200084a4:	00000030 	.word	0x00000030
200084a8:	00312e30 	.word	0x00312e30
200084ac:	2e312e32 	.word	0x2e312e32
200084b0:	00000031 	.word	0x00000031
200084b4:	6f6d6970 	.word	0x6f6d6970
200084b8:	696e6f72 	.word	0x696e6f72
200084bc:	6369705f 	.word	0x6369705f
200084c0:	6c705f6f 	.word	0x6c705f6f
200084c4:	5f327375 	.word	0x5f327375
200084c8:	33327072 	.word	0x33327072
200084cc:	00003035 	.word	0x00003035
200084d0:	726f6361 	.word	0x726f6361
200084d4:	79735f6e 	.word	0x79735f6e
200084d8:	6d657473 	.word	0x6d657473
200084dc:	675f315f 	.word	0x675f315f
200084e0:	65676461 	.word	0x65676461
200084e4:	00000074 	.word	0x00000074
200084e8:	2b696e66 	.word	0x2b696e66
200084ec:	00000000 	.word	0x00000000
200084f0:	00696e66 	.word	0x00696e66
200084f4:	006e616e 	.word	0x006e616e
200084f8:	2d696e66 	.word	0x2d696e66
200084fc:	00000000 	.word	0x00000000
20008500:	20425355 	.word	0x20425355
20008504:	69647473 	.word	0x69647473
20008508:	202f206e 	.word	0x202f206e
2000850c:	6f647473 	.word	0x6f647473
20008510:	00007475 	.word	0x00007475
20008514:	70736152 	.word	0x70736152
20008518:	72726562 	.word	0x72726562
2000851c:	69502079 	.word	0x69502079
20008520:	00000000 	.word	0x00000000
20008524:	6f636950 	.word	0x6f636950
20008528:	00000000 	.word	0x00000000
2000852c:	72616f42 	.word	0x72616f42
20008530:	44432064 	.word	0x44432064
20008534:	00000043 	.word	0x00000043
20008538:	61686e55 	.word	0x61686e55
2000853c:	656c646e 	.word	0x656c646e
20008540:	52492064 	.word	0x52492064
20008544:	78302051 	.word	0x78302051
20008548:	000a7825 	.word	0x000a7825
2000854c:	25207065 	.word	0x25207065
20008550:	20583230 	.word	0x20583230
20008554:	20736177 	.word	0x20736177
20008558:	65726c61 	.word	0x65726c61
2000855c:	20796461 	.word	0x20796461
20008560:	69617661 	.word	0x69617661
20008564:	6c62616c 	.word	0x6c62616c
20008568:	00000065 	.word	0x00000065
2000856c:	276e6143 	.word	0x276e6143
20008570:	6f632074 	.word	0x6f632074
20008574:	6e69746e 	.word	0x6e69746e
20008578:	78206575 	.word	0x78206575
2000857c:	20726566 	.word	0x20726566
20008580:	69206e6f 	.word	0x69206e6f
20008584:	7463616e 	.word	0x7463616e
20008588:	20657669 	.word	0x20657669
2000858c:	25207065 	.word	0x25207065
20008590:	00583230 	.word	0x00583230

20008594 <font_5x7_letters>:
20008594:	00000000 5f000000 07000000 14000700     ......._........
200085a4:	147f147f 2a7f2a24 08132312 49366264     ....$*.*.#..db6I
200085b4:	00502255 00000305 41221c00 22410000     U"P......."A..A"
200085c4:	2a08001c 08082a1c 08083e08 00305000     ...*.*...>...P0.
200085d4:	08080800 18000808 20000018 02040810     ........... ....
200085e4:	4141413e 7f00003e 51620000 22464949     >AAA>.....bQIIF"
200085f4:	36494941 7f121418 45452710 493e3945     AII6.....'EEE9>I
20008604:	00304949 03050971 49494936 49490636     II0.q...6III6.II
20008614:	36003e49 00000036 00003656 22140800     I>.66...V6....."
20008624:	14141441 22411414 02000814 06095101     A.....A".....Q..
20008634:	41794932 11117e3e 497f7e11 3e364949     2IyA>~...~.III6>
20008644:	22414141 2241417f 49497f1c 097f4149     AAA".AA"..IIIA..
20008654:	3e010109 32514141 0808087f 7f41007f     ...>AAQ2......A.
20008664:	40200041 7f013f41 41221408 4040407f     A. @A?...."A.@@@
20008674:	04027f40 047f7f02 3e7f1008 3e414141     @..........>AAA>
20008684:	0909097f 51413e06 097f5e21 46462919     .....>AQ!^...)FF
20008694:	31494949 017f0101 40403f01 201f3f40     III1.....?@@@?. 
200086a4:	7f1f2040 7f201820 14081463 78040363     @ .. . .c...c..x
200086b4:	51610304 00434549 41417f00 10080402     ..aQIEC...AA....
200086c4:	7f414120 02040000 40040201 40404040      AA........@@@@@
200086d4:	04020100 54542000 487f7854 38384444     ..... TTTx.HDD88
200086e4:	20444444 48444438 5454387f 7e081854     DDD 8DDH.8TTT..~
200086f4:	08020109 3c545414 0404087f 7d440078     .....TT<....x.D}
20008704:	40200040 00003d44 4428107f 407f4100     @. @D=....(D.A.@
20008714:	18047c00 087c7804 38780404 38444444     .|...x|...x8DDD8
20008724:	1414147c 14140808 087c7c18 48080404     |........||....H
20008734:	20545454 40443f04 40403c20 201c7c20     TTT .?D@ <@@ |. 
20008744:	3c1c2040 3c403040 28102844 50500c44     @ .<@0@<D(.(D.PP
20008754:	64443c50 00444c54 00413608 007f0000     P<DdTLD..6A.....
20008764:	36410000 08080008 7f081c2a 7f7f7f7f     ..A6....*.......

20008774 <init_seq2>:
20008774:	00d33fa8 a1148d40 8112dac8 dbf1d92f     .?..@......./...
20008784:	80d5a640 00210220 0700227f 0000afa4     @... .!.."......

20008794 <__bi_84>:
20008794:	50520006 4275f0d3 20008490              ..RP..uB... 

200087a0 <__bi_78>:
200087a0:	50520006 7f8882e1 20008498              ..RP....... 

200087ac <__bi_60>:
200087ac:	50520006 11a9bc3a 200084a8              ..RP:...... 

200087b8 <__bi_54>:
200087b8:	50520006 5360b3ab 200084ac              ..RP..`S... 

200087c4 <__bi_48>:
200087c4:	50520006 b63cffbb 200084b4              ..RP..<.... 

200087d0 <__bi_42>:
200087d0:	50520006 02031c86 200084d0              ..RP....... 

200087dc <__bi_34>:
200087dc:	50520006 9da22254 20008158              ..RPT"..X.. 

200087e8 <__bi_26>:
200087e8:	50520005 68f465de 10008e14 00000000     ..RP.e.h........

200087f8 <pow10.0>:
200087f8:	00000000 3ff00000 00000000 40240000     .......?......$@
20008808:	00000000 40590000 00000000 408f4000     ......Y@.....@.@
20008818:	00000000 40c38800 00000000 40f86a00     .......@.....j.@
20008828:	00000000 412e8480 00000000 416312d0     .......A......cA
20008838:	00000000 4197d784 00000000 41cdcd65     .......A....e..A

20008848 <crlf_str.0>:
20008848:	00000a0d                                ....

2000884c <_resetd_driver>:
2000884c:	00000000 20004529 00000000 2000452d     ....)E. ....-E. 
2000885c:	20004539 20004565 20004561 00000000     9E. eE. aE. ....

2000886c <desc_ms_os_20>:
2000886c:	0000000a 06030000 000800a6 00020002     ................
2000887c:	0014009c 49570003 4253554e 00000000     ......WINUSB....
2000888c:	00000000 00800000 00010004 00440028     ............(.D.
2000889c:	00760065 00630069 00490065 0074006e     e.v.i.c.e.I.n.t.
200088ac:	00720065 00610066 00650063 00550047     e.r.f.a.c.e.G.U.
200088bc:	00440049 004e0000 0062007b 00370063     I.D...N.{.b.c.7.
200088cc:	00390033 00630038 002d0031 00330037     3.9.8.c.1.-.7.3.
200088dc:	00640063 0034002d 00620063 002d0037     c.d.-.4.c.b.7.-.
200088ec:	00380039 00380062 0039002d 00330031     9.8.b.8.-.9.1.3.
200088fc:	00380061 00630066 00370061 00660062     a.8.f.c.a.7.b.f.
2000890c:	007d0036 00000000                       6.}.....

20008914 <desc_bos>:
20008914:	00210f05 05101c01 dd60df00 c74589d8     ..!.......`...E.
20008924:	65d29c4c 8a649e9d 0300009f 0100a606     L..e..d.........
20008934:	00000000                                ....

20008938 <__bi_197.0>:
20008938:	50520006 a1f4b453 20008500              ..RPS...... 

20008944 <usbd_desc_str>:
20008944:	00000000 20008514 20008524 20019b54     ....... $.. T.. 
20008954:	2000852c 200083f8                       ,.. ... 

2000895c <usbd_desc_cfg>:
2000895c:	00540209 80000103 000b087d 00020202     ..T.....}.......
2000896c:	00040900 02020100 24050400 05012000     ...........$. ..
2000897c:	01000124 06022404 00062405 81050701     $....$...$......
2000898c:	10000803 00010409 00000a02 02050700     ................
2000899c:	00004002 02820507 09000040 00000204     .@......@.......
200089ac:	050100ff                                ....

200089b0 <usbd_desc_device>:
200089b0:	02100112 400102ef 00092e8a 02010100     .......@........
200089c0:	00000103                                ....

200089c4 <_usbd_driver>:
200089c4:	00000000 20005ed5 20005f49 20005f79     .....^. I_. y_. 
200089d4:	20005fc9 20006095 20006169 00000000     ._. .`. ia. ....
200089e4:	00000000 20006261 200062bd 200062d9     ....ab. .b. .b. 
200089f4:	200062f9 200045bd 200063f1 00000000     .b. .E. .c. ....

20008a04 <m_Crc7Table>:
20008a04:	1b120900 3f362d24 535a4148 777e656c     ....$-6?HAZSle~w
20008a14:	020b1019 262f343d 4a435851 6e677c75     ....=4/&QXCJu|gn
20008a24:	29203b32 0d041f16 6168737a 454c575e     2; )....zsha^WLE
20008a34:	3039222b 141d060f 78716a63 5c554e47     +"90....cjqxGNU\
20008a44:	7f766d64 5b524940 373e252c 131a0108     dmv.@IR[,%>7....
20008a54:	666f747d 424b5059 2e273c35 0a031811     }tofYPKB5<'.....
20008a64:	4d445f56 69607b72 050c171e 2128333a     V_DMr{`i....:3(!
20008a74:	545d464f 7079626b 1c150e07 38312a23     OF]Tkbyp....#*18
20008a84:	5a534841 7e776c65 121b0009 363f242d     AHSZelw~....-$?6
20008a94:	434a5158 676e757c 0b021910 2f263d34     XQJC|ung....4=&/
20008aa4:	68617a73 4c455e57 2029323b 040d161f     szahW^EL;2) ....
20008ab4:	7178636a 555c474e 39302b22 1d140f06     jcxqNG\U"+09....
20008ac4:	3e372c25 1a130801 767f646d 525b4049     %,7>....md.vI@[R
20008ad4:	272e353c 030a1118 6f667d74 4b425950     <5.'....t}foPYBK
20008ae4:	0c051e17 28213a33 444d565f 6069727b     ....3:!(_VMD{ri`
20008af4:	151c070e 3138232a 5d544f46 79706b62     ....*#81FOT]bkpy
20008b04:	00000000                                ....

20008b08 <serial_cmds>:
20008b08:	0000003f 20008360 200003a9 00000021     ?...`.. ... !...
20008b18:	20008374 20000251 0000002b 2000838c     t.. Q.. +...... 
20008b28:	2000023d 00000069 200083a0 2000024d     =.. i...... M.. 
20008b38:	0000006f 200083ac 200002bd 00000061     o...... ... a...
20008b48:	200083b8 2000034d 00000077 200083c4     ... M.. w...... 
20008b58:	20000305 0000007a 200083d8 2000044d     ... z...... M.. 
20008b68:	00000076 200083f0 2000025d 00000052     v...... ].. R...
20008b78:	200083f8 20000289 00000030 20008400     ... ... 0...... 
20008b88:	20000275 00000031 20008400 20000275     u.. 1...... u.. 
20008b98:	00000032 20008400 20000275 00000033     2...... u.. 3...
20008ba8:	20008400 20000275 00000034 20008400     ... u.. 4...... 
20008bb8:	20000275 00000035 20008400 20000275     u.. 5...... u.. 
20008bc8:	00000036 20008400 20000275 00000037     6...... u.. 7...
20008bd8:	20008400 20000275 00000038 20008400     ... u.. 8...... 
20008be8:	20000275 00000039 20008400 20000275     u.. 9...... u.. 
20008bf8:	00000040 20008408 20000219              @...... ... 

20008c04 <app1>:
20008c04:	10bd07a2 ca1095b0 0c20f810 fefb4cfe     .......... ..L..
20008c14:	5c587700 30005450                       .wX\PT.0

20008c1c <oled0>:
20008c1c:	20008c24 0000003c                       $.. <...

20008c24 <i2c_bus_0>:
20008c24:	07001200                                ....

20008c28 <striped_spin_lock_num>:
20008c28:	00000010                                ....

20008c2c <irq_handler_chain_slots>:
20008c2c:	00000000 	.word	0x00000000
20008c30:	00010000 	.word	0x00010000
	...
20008c3c:	00020000 	.word	0x00020000
	...
20008c48:	00030000 	.word	0x00030000
	...
20008c54:	00040000 	.word	0x00040000
	...
20008c60:	00050000 	.word	0x00050000
	...
20008c6c:	00060000 	.word	0x00060000
	...
20008c78:	00070000 	.word	0x00070000
	...
20008c84:	00ff0000 	.word	0x00ff0000
20008c88:	00000000 	.word	0x00000000

20008c8c <irq_handler_chain_first_slot>:
20008c8c:	b501      	push	{r0, lr}
20008c8e:	6848      	ldr	r0, [r1, #4]
20008c90:	3101      	adds	r1, #1
20008c92:	468e      	mov	lr, r1
20008c94:	4700      	bx	r0

20008c96 <irq_handler_chain_remove_tail>:
20008c96:	4670      	mov	r0, lr
20008c98:	3809      	subs	r0, #9
20008c9a:	4901      	ldr	r1, [pc, #4]	@ (20008ca0 <irq_handler_chain_remove_tail+0xa>)
20008c9c:	4788      	blx	r1
20008c9e:	bd01      	pop	{r0, pc}
20008ca0:	200012f5 	.word	0x200012f5

20008ca4 <default_alarm_pool>:
	...
20008cb8:	20008eb0                                ... 

20008cbc <stdio_usb>:
20008cbc:	20004779 20004725 2000469d 2000460d     yG. %G. .F. .F. 
20008ccc:	00000000 00000100                       ........

20008cd4 <_usbd_qdef>:
20008cd4:	200092d8 000c0010 00000000 00000000     ... ............
	...

20008cf0 <_usbd_rhport>:
20008cf0:	000000ff                                ....

20008cf4 <__atexit_recursive_mutex>:
20008cf4:	200091f4                                ... 

20008cf8 <malloc_mutex>:
	...

20008d00 <print_mutex>:
	...

20008d08 <initialized_mutex.1>:
	...

20008d10 <my_spi_init_mutex.1>:
	...

20008d18 <__pre_init_runtime_init_bootrom_reset>:
20008d18:	20002599                                .%. 

20008d1c <__pre_init_runtime_init_early_resets>:
20008d1c:	20002511                                .%. 

20008d20 <__pre_init_runtime_init_usb_power_down>:
20008d20:	20002541                                A%. 

20008d24 <__pre_init_runtime_init_clocks>:
20008d24:	200025e1                                .%. 

20008d28 <__pre_init_runtime_init_post_clock_resets>:
20008d28:	20002579                                y%. 

20008d2c <__pre_init_runtime_init_boot_locks_reset>:
20008d2c:	20002479                                y$. 

20008d30 <__pre_init_runtime_init_spin_locks_reset>:
20008d30:	200025c1                                .%. 

20008d34 <__pre_init_runtime_init_bootrom_locking_enable>:
20008d34:	20002465                                e$. 

20008d38 <__pre_init_runtime_init_mutex>:
20008d38:	20001429                                ).. 

20008d3c <__pre_init_runtime_init_install_ram_vector_table>:
20008d3c:	200025c5                                .%. 

20008d40 <__pre_init_runtime_init_default_alarm_pool>:
20008d40:	200017e5                                ... 

20008d44 <__pre_init_first_per_core_initializer>:
20008d44:	200024c1                                .$. 

20008d48 <__pre_init_runtime_init_per_core_bootrom_reset>:
20008d48:	200025ad                                .%. 

20008d4c <__pre_init_runtime_init_per_core_enable_coprocessors>:
20008d4c:	2000255d                                ]%. 

20008d50 <__pre_init_spinlock_set_extexclall>:
20008d50:	20000f8d                                ... 

20008d54 <__pre_init_runtime_init_per_core_irq_priorities>:
20008d54:	20000fb5                                ... 

20008d58 <__init_array_start>:
20008d58:	2000745d 	.word	0x2000745d

20008d5c <__frame_dummy_init_array_entry>:
20008d5c:	200001f9 20004acd 20006e45              ... .J. En. 
